ccopy_reg
_reconstructor
p1
(cicarus.results.readwrite
ResultSet
p2
c__builtin__
object
p3
NtRp4
(dp5
S'attr'
p6
(dp7
sS'_results'
p8
ccollections
deque
p9
((lp10
(cicarus.util
Tree
p11
(tRp12
S'workload'
p13
g11
(tRp14
S'n_contents'
p15
I100000
sS'name'
p16
S'STATIONARY'
p17
sS'n_warmup'
p18
I100000
sS'rate'
p19
F1
sS'n_measured'
p20
I400000
sS'alpha'
p21
F0.80000000000000004
ssS'cache_policy'
p22
g11
(tRp23
g16
S'LRU'
p24
ssS'strategy'
p25
g11
(tRp26
g16
S'LCE'
p27
ssS'content_placement'
p28
g11
(tRp29
g16
S'UNIFORM'
p30
ssS'cache_placement'
p31
g11
(tRp32
S'network_cache'
p33
F0.01
sg16
g30
ssS'desc'
p34
S'Strategy: LCE'
p35
sS'topology'
p36
g11
(tRp37
g16
S'ROCKET_FUEL'
p38
sS'asn'
p39
I1221
ssg11
(tRp40
S'LATENCY'
p41
g11
(tRp42
S'MEAN'
p43
F87.879054999999994
ssS'LINK_LOAD'
p44
g11
(tRp45
S'MEAN_INTERNAL'
p46
F15.40650060888643
sS'PER_LINK_INTERNAL'
p47
g11
(tRp48
(I46
I42
tp49
F5.8808797497705365
s(I34
I73
tp50
F208.64865011951227
s(I78
S'rec_85'
p51
tp52
F14.47283002357212
s(I66
I10
tp53
F1.3784721971009455
s(I40
I41
tp54
F2.8464360425679645
s(S'rec_94'
p55
I95
tp56
F1.4390106651132892
s(I1
I83
tp57
F11.415825396613394
s(S'rec_83'
p58
I70
tp59
F1.5010531944427099
s(I19
S'rec_59'
p60
tp61
F14.5781143157675
s(I10
I61
tp62
F3.9541772025950741
s(I34
I46
tp63
F94.855131022769484
s(I33
I30
tp64
F0.86671533396554268
s(S'rec_78'
p65
I65
tp66
F1.4119375614059058
s(I5
I102
tp67
F146.8768518271655
s(I44
S'rec_15'
p68
tp69
F14.596915082230961
s(I44
I34
tp70
F6.3700756931497864
s(I77
I76
tp71
F1.4288582512230203
s(I52
I35
tp72
F44.696942190231695
s(I71
I26
tp73
F0.69487632848951097
s(I45
S'rec_24'
p74
tp75
F14.284822358937511
s(I85
I22
tp76
F1.4559313549304038
s(I52
I98
tp77
F14.089294387717519
s(S'rec_17'
p78
I61
tp79
F1.4149456840400594
s(I62
I8
tp80
F8.4265035289231278
s(I38
S'rec_38'
p81
tp82
F14.882686732475564
s(I25
I26
tp83
F1.4314903585279048
s(I25
S'rec_63'
p84
tp85
F14.442748797230582
s(I43
S'rec_7'
p86
tp87
F14.566833855889424
s(S'rec_70'
p88
I48
tp89
F1.4431468337352507
s(I22
I65
tp90
F13.953928869180602
s(I73
I103
tp91
F10.159934196854213
s(I82
S'rec_48'
p92
tp93
F14.781162593572876
s(I76
S'rec_44'
p94
tp95
F14.484110483450197
s(I50
I1
tp96
F96.026794788772349
s(I99
I5
tp97
F1.4168257606864054
s(I46
I75
tp98
F77.863374308422877
s(I101
I10
tp99
F1.4679638454670187
s(I100
I6
tp100
F1.4604435388816346
s(S'rec_40'
p101
I54
tp102
F1.4446508950523274
s(I37
S'rec_67'
p103
tp104
F14.484110483450197
s(I27
I5
tp105
F1.4431468337352507
s(I97
S'rec_96'
p106
tp107
F14.292342665522895
s(I46
I45
tp108
F5.9184812826974582
s(I79
I1
tp109
F1.1694076740272614
s(S'rec_88'
p110
I86
tp111
F1.4288582512230203
s(I57
I59
tp112
F14.22842005954713
s(I101
S'rec_100'
p113
tp114
F14.830044586377875
s(I50
S'rec_19'
p115
tp116
F14.517951863084425
s(I32
I35
tp117
F0.58507985234289994
s(I91
S'rec_91'
p118
tp119
F14.548033089425962
s(I54
g101
tp120
F14.446508950523274
s(I1
S'rec_5'
p121
tp122
F14.194578679912899
s(I69
I5
tp123
F1.4119375614059058
s(I34
I41
tp124
F4.2376927608640633
s(I41
I34
tp125
F0.4237692760864063
s(I103
I102
tp126
F0.43655379728155963
s(I35
I52
tp127
F4.469694219023169
s(S'rec_37'
p128
I33
tp129
F1.4630756461865191
s(I38
I35
tp130
F1.4728520447475186
s(I95
I22
tp131
F1.4250980979303283
s(I61
g78
tp132
F14.149456840400594
s(I105
I18
tp133
F1.3886246109912144
s(I70
I44
tp134
F1.4841325046255951
s(I62
S'rec_12'
p135
tp136
F14.303623125400973
s(I15
I16
tp137
F1.461195569540173
s(I22
I85
tp138
F14.55931354930404
s(I62
I6
tp139
F42.61381726608024
s(I61
I73
tp140
F11.56209535969912
s(I48
I5
tp141
F1.4288582512230203
s(S'rec_57'
p142
I15
tp143
F1.4747321213938647
s(I30
S'rec_14'
p144
tp145
F14.506671403206349
s(I2
S'rec_4'
p146
tp147
F14.461549563694042
s(S'rec_49'
p148
I83
tp149
F1.4360025424791354
s(I28
I22
tp150
F1.4243460672717898
s(S'rec_22'
p151
I41
tp152
F1.4679638454670187
s(S'rec_11'
p153
I35
tp154
F1.4262261439181358
s(I51
I54
tp155
F2.9667609479341133
s(g60
I19
tp156
F1.4578114315767501
s(S'rec_103'
p157
I107
tp158
F1.4375066037962123
s(I46
I52
tp159
F255.08165508497996
s(I78
I2
tp160
F1.4326184045157127
s(I51
I53
tp161
F2.7975540497629661
s(I57
I60
tp162
F14.104335000888288
s(S'rec_65'
p163
I28
tp164
F1.4367545731376739
s(S'rec_41'
p165
I71
tp166
F1.4239700519425207
s(I2
I78
tp167
F14.326184045157126
s(I66
S'rec_79'
p168
tp169
F13.905046876375604
s(I8
I62
tp170
F0.84265035289231283
s(S'rec_47'
p171
I81
tp172
F1.4713479834304417
s(I40
I42
tp173
F2.9178789551291153
s(S'rec_53'
p174
I4
tp175
F1.4416427724181737
s(I52
I74
tp176
F7.7571962428239241
s(I67
I18
tp177
F1.4845085199548644
s(I41
I43
tp178
F0.14815003973207105
s(I36
I35
tp179
F1.0265218489049595
s(I26
I74
tp180
F7.4187824464816297
s(I2
I79
tp181
F2.8953180353729624
s(I91
I22
tp182
F1.4412667570889046
s(I47
I5
tp183
F1.3953928869180601
s(I86
g110
tp184
F14.288582512230203
s(I10
I9
tp185
F14.220899752961746
s(I43
I45
tp186
F1.4815003973207106
s(S'rec_66'
p187
I29
tp188
F1.4258501285888667
s(I45
I34
tp189
F0.4068485862692916
s(I73
I34
tp190
F26.624141404236099
s(S'rec_89'
p191
I87
tp192
F1.4581874469060192
s(I77
S'rec_84'
p193
tp194
F14.408907417596353
s(I44
I57
tp195
F37.812101511312349
s(I102
I73
tp196
F16.34350628668647
s(I70
g58
tp197
F15.010531944427099
s(I61
I12
tp198
F20.27474655419612
s(I50
I51
tp199
F34.644548377548475
s(I74
I52
tp200
F0.77571962428239238
s(g146
I2
tp201
F1.4461549563694043
s(I22
I55
tp202
F14.341224658327894
s(I1
I0
tp203
F11.370703557101088
s(S'rec_23'
p204
I42
tp205
F1.4277302052352128
s(I62
I102
tp206
F8.1828455955566763
s(S'rec_76'
p207
I63
tp208
F1.4442748797230582
s(g118
I91
tp209
F1.4548033089425962
s(I88
I18
tp210
F1.4769882133694801
s(I72
S'rec_42'
p211
tp212
F14.397626957718277
s(I17
I18
tp213
F1.3859925036863299
s(I28
g163
tp214
F14.367545731376739
s(I62
I72
tp215
F3.8992789645217689
s(I57
I58
tp216
F0.41737701548882966
s(I76
I77
tp217
F14.288582512230203
s(I54
I50
tp218
F1.1363183250515705
s(I30
I36
tp219
F8.1144108056296798
s(I83
g148
tp220
F14.360025424791354
s(I58
I18
tp221
F1.3984010095522139
s(S'rec_45'
p222
I79
tp223
F1.4754841520524031
s(g81
I38
tp224
F1.4882686732475565
s(I88
S'rec_90'
p225
tp226
F14.954129645036716
s(I42
I43
tp227
F0.13160536524422556
s(S'rec_33'
p228
I0
tp229
F1.4348744964913278
s(S'rec_32'
p230
I58
tp231
F1.4454029257108658
s(I61
I62
tp232
F17.286176717164391
s(I43
I34
tp233
F67.013827997688921
s(I81
I1
tp234
F1.1667755667223769
s(I62
I61
tp235
F5.8519265694168068
s(I83
I2
tp236
F0.27975540497629664
s(I6
I87
tp237
F14.423948030767122
s(I12
I62
tp238
F0.85618690474600456
s(g103
I37
tp239
F1.4484110483450197
s(I106
S'rec_102'
p240
tp241
F14.322423891864434
s(S'rec_29'
p242
I12
tp243
F1.4886446885768256
s(I36
I30
tp244
F0.81144108056296793
s(I1
I20
tp245
F11.487268309174546
s(I27
S'rec_64'
p246
tp247
F14.626996308572497
s(I57
S'rec_25'
p248
tp249
F14.02161162844906
s(I18
I67
tp250
F14.845085199548643
s(I99
S'rec_98'
p251
tp252
F14.318663738571741
s(S'rec_80'
p253
I67
tp254
F1.499549133125633
s(I75
S'rec_26'
p255
tp256
F14.649557228328652
s(I29
I22
tp257
F1.4089294387717519
s(S'rec_61'
p258
I23
tp259
F1.4747321213938647
s(g74
I45
tp260
F1.4284822358937512
s(I3
I5
tp261
F2.8347795673606186
s(I55
S'rec_72'
p262
tp263
F14.469069870279428
s(I46
I40
tp264
F11.45681106750374
s(I53
I51
tp265
F0.27975540497629664
s(S'rec_74'
p266
I59
tp267
F1.4390106651132892
s(I17
S'rec_58'
p268
tp269
F13.995290555400215
s(I2
I82
tp270
F2.8727571156168095
s(S'rec_62'
p271
I24
tp272
F1.4318663738571742
s(I40
I43
tp273
F1.5623436931135921
s(I5
I39
tp274
F14.33370435174251
s(I20
I1
tp275
F1.1487268309174545
s(I1
I81
tp276
F11.667755667223769
s(I18
I17
tp277
F13.859925036863297
s(I51
I76
tp278
F28.547083798118869
s(I34
I44
tp279
F63.700756931497864
s(I8
I7
tp280
F14.33370435174251
s(I22
I28
tp281
F14.243460672717898
s(I107
I93
tp282
F1.4217139599669053
s(I18
I43
tp283
F2.6847494509822014
s(I82
I1
tp284
F1.1769279806126458
s(I5
I69
tp285
F14.119375614059056
s(I45
I46
tp286
F0.59184812826974587
s(I84
S'rec_86'
p287
tp288
F14.570594009182116
s(I75
I34
tp289
F90.654663779503068
s(I73
S'rec_20'
p290
tp291
F14.450269103815966
s(I6
S'rec_21'
p292
tp293
F13.901286723082912
s(I39
I5
tp294
F1.4333704351742509
s(S'rec_101'
p295
I105
tp296
F1.4006571015278293
s(I46
S'rec_8'
p297
tp298
F14.371305884669431
s(I3
I4
tp299
F14.307383278693665
s(I63
g207
tp300
F14.442748797230582
s(I2
I51
tp301
F133.32638740629076
s(I26
I52
tp302
F17.894569519921983
s(I40
S'rec_6'
p303
tp304
F14.642036921743268
s(I96
S'rec_95'
p305
tp306
F14.901487498939026
s(I5
I19
tp307
F14.397626957718277
s(I54
I51
tp308
F0.29667609479341134
s(I40
I18
tp309
F11.771535898102073
s(I93
S'rec_50'
p310
tp311
F14.532992476255194
s(g246
I27
tp312
F1.4626996308572497
s(I42
I40
tp313
F0.29178789551291151
s(S'rec_46'
p314
I80
tp315
F1.4532992476255193
s(I18
I34
tp316
F131.98326065014112
s(I67
g253
tp317
F14.99549133125633
s(I72
I62
tp318
F0.3899278964521769
s(I62
I10
tp319
F17.255343460164319
s(g121
I1
tp320
F1.4194578679912899
s(I69
S'rec_82'
p321
tp322
F14.277302052352127
s(I52
I46
tp323
F187.22442470374017
s(I12
g242
tp324
F14.886446885768256
s(I106
I34
tp325
F1.4205859139790977
s(I71
I52
tp326
F0.71743724824566391
s(I52
I26
tp327
F26.324081171479268
s(I10
I101
tp328
F14.679638454670188
s(I50
I54
tp329
F11.363183250515704
s(I56
I22
tp330
F1.4386346497840199
s(I79
g222
tp331
F14.754841520524032
s(I51
I2
tp332
F49.392997637474927
s(S'rec_3'
p333
I18
tp334
F1.4724760294182495
s(S'rec_51'
p335
I103
tp336
F1.4645797075035958
s(I12
I11
tp337
F14.172017760156747
s(S'rec_54'
p338
I7
tp339
F1.4435228490645198
s(I34
I106
tp340
F14.205859139790975
s(I1
I50
tp341
F157.79746503513132
s(S'rec_43'
p342
I74
tp343
F1.5303823901257088
s(I18
I105
tp344
F13.886246109912143
s(S'rec_0'
p345
I22
tp346
F1.410809515418098
s(S'rec_60'
p347
I21
tp348
F1.4769882133694801
s(I46
I41
tp349
F6.0012046551366858
s(I53
I50
tp350
F1.1348142637344936
s(I102
I16
tp351
F28.535803338240793
s(I58
I57
tp352
F4.1737701548882962
s(I35
g153
tp353
F14.262261439181358
s(I102
I103
tp354
F4.3655379728155967
s(I94
I22
tp355
F1.4427708184059813
s(I40
I44
tp356
F8.6709134929481184
s(I21
I22
tp357
F1.4563073702596732
s(I20
I2
tp358
F0.30870858533002626
s(I1
I80
tp359
F11.325581717588783
s(I34
I18
tp360
F87.928552642301256
s(I0
I2
tp361
F0.28125946629337351
s(S'rec_81'
p362
I68
tp363
F1.4220899752961744
s(I52
I71
tp364
F7.1743724824566391
s(S'rec_36'
p365
I32
tp366
F1.4457789410401352
s(I26
I71
tp367
F6.9487632848951097
s(I18
I40
tp368
F6.9694441280049162
s(g251
I99
tp369
F1.4318663738571742
s(S'rec_39'
p370
I53
tp371
F1.4262261439181358
s(I16
S'rec_34'
p372
tp373
F14.138176380522518
s(I73
I104
tp374
F9.8892031597803776
s(I44
I40
tp375
F0.8670913492948118
s(I40
I45
tp376
F2.6772291443968173
s(I5
I68
tp377
F14.111855307473672
s(I58
g230
tp378
F14.454029257108658
s(S'rec_73'
p379
I56
tp380
F1.4521712016377117
s(I61
I10
tp381
F39.541772025950742
s(I44
I70
tp382
F14.841325046255951
s(I74
I26
tp383
F0.74187824464816299
s(I84
I44
tp384
F1.4405147264303662
s(I20
S'rec_35'
p385
tp386
F14.721000140889801
s(g135
I62
tp387
F1.4303623125400973
s(I51
I50
tp388
F9.1367964859126776
s(g225
I88
tp389
F1.4954129645036716
s(I65
I22
tp390
F1.3953928869180601
s(I79
I2
tp391
F0.28953180353729624
s(I100
S'rec_99'
p392
tp393
F14.739800907353263
s(I41
I40
tp394
F0.28464360425679641
s(I29
g187
tp395
F14.258501285888666
s(S'rec_56'
p396
I11
tp397
F1.4344984811620587
s(g287
I84
tp398
F1.4570594009182116
s(I93
I107
tp399
F14.217139599669053
s(I48
g88
tp400
F14.431468337352506
s(g211
I72
tp401
F1.4397626957718277
s(I5
I47
tp402
F13.953928869180602
s(S'rec_87'
p403
I85
tp404
F1.4758601673816725
s(I85
g403
tp405
F14.758601673816724
s(I15
g142
tp406
F14.747321213938648
s(I31
I35
tp407
F0.58282376036728467
s(I60
I57
tp408
F1.4104335000888288
s(S'rec_31'
p409
I36
tp410
F1.4205859139790977
s(I87
g191
tp411
F14.581874469060192
s(I10
I62
tp412
F1.7255343460164316
s(I9
S'rec_55'
p413
tp414
F14.363785578084046
s(g94
I76
tp415
F1.4484110483450197
s(I43
I41
tp416
F1.4815003973207106
s(I98
I52
tp417
F1.4089294387717519
s(I35
I31
tp418
F5.8282376036728465
s(g262
I55
tp419
F1.4469069870279427
s(S'rec_27'
p420
I3
tp421
F1.4269781745766743
s(I42
g204
tp422
F14.277302052352127
s(I22
I95
tp423
F14.250980979303282
s(S'rec_1'
p424
I34
tp425
F1.4397626957718277
s(I0
I1
tp426
F1.1370703557101089
s(I49
I5
tp427
F1.4363785578084047
s(I43
I42
tp428
F1.3160536524422557
s(I0
g228
tp429
F14.348744964913278
s(I52
I22
tp430
F177.23444943571565
s(S'rec_13'
p431
I102
tp432
F1.4792443053450952
s(S'rec_2'
p433
I5
tp434
F1.4292342665522897
s(I36
g409
tp435
F14.205859139790975
s(I65
g65
tp436
F14.119375614059056
s(g115
I50
tp437
F1.4517951863084426
s(I34
I86
tp438
F14.179538066742131
s(g113
I101
tp439
F1.4830044586377875
s(I5
I27
tp440
F14.431468337352506
s(I72
I61
tp441
F1.0374262934537666
s(I22
I94
tp442
F14.427708184059814
s(I7
I8
tp443
F1.4333704351742509
s(S'rec_18'
p444
I10
tp445
F1.4510431556499042
s(I102
g431
tp446
F14.792443053450953
s(I2
I80
tp447
F3.0908460065929546
s(I22
I23
tp448
F14.611955695401729
s(I45
I40
tp449
F0.26772291443968171
s(I61
I72
tp450
F10.374262934537667
s(I18
I64
tp451
F14.066733467961367
s(I68
I5
tp452
F1.4111855307473673
s(I23
I22
tp453
F1.461195569540173
s(I22
I26
tp454
F78.82672558201061
s(I102
I75
tp455
F117.98082580348479
s(S'rec_77'
p456
I64
tp457
F1.4168257606864054
s(I34
I42
tp458
F4.0271241764733023
s(g106
I97
tp459
F1.4292342665522897
s(I33
I35
tp460
F0.58395180635509225
s(I43
I46
tp461
F57.361514495348153
s(g68
I44
tp462
F1.4596915082230961
s(g303
I40
tp463
F1.4642036921743267
s(I34
g424
tp464
F14.397626957718277
s(I62
I12
tp465
F8.5618690474600463
s(I19
I5
tp466
F1.4397626957718277
s(I80
g314
tp467
F14.532992476255194
s(I24
I18
tp468
F1.4175777913449439
s(S'rec_28'
p469
I8
tp470
F1.4010331168570984
s(I47
S'rec_69'
p471
tp472
F14.081774081132135
s(I51
I26
tp473
F135.06921845745359
s(I95
g55
tp474
F14.390106651132893
s(I35
I32
tp475
F5.850798523428999
s(S'rec_71'
p476
I49
tp477
F1.4510431556499042
s(I8
g469
tp478
F14.010331168570984
s(I26
I25
tp479
F14.314903585279049
s(I22
g345
tp480
F14.10809515418098
s(I23
g258
tp481
F14.747321213938648
s(I102
I5
tp482
F177.78756798507067
s(I10
I66
tp483
F13.784721971009455
s(I22
I52
tp484
F59.232190758462501
s(I4
g174
tp485
F14.416427724181737
s(S'rec_52'
p486
I104
tp487
F1.4062973314668674
s(S'rec_93'
p488
I94
tp489
F1.4570594009182116
s(I92
S'rec_92'
p490
tp491
F14.920288265402487
s(g193
I77
tp492
F1.4408907417596353
s(I34
I75
tp493
F85.412258058831654
s(I92
I22
tp494
F1.4762361827109416
s(I57
I44
tp495
F3.7812101511312348
s(I56
g379
tp496
F14.521712016377117
s(I12
I61
tp497
F2.0274746554196121
s(I8
I61
tp498
F1.969944310041422
s(g321
I69
tp499
F1.4277302052352128
s(I22
I29
tp500
F14.089294387717519
s(I74
g342
tp501
F15.303823901257086
s(I43
I18
tp502
F11.585032294784542
s(I102
I62
tp503
F81.666769363981004
s(S'rec_30'
p504
I31
tp505
F1.4356265271498663
s(g255
I75
tp506
F1.4649557228328651
s(I6
I62
tp507
F4.2613817266080236
s(I43
I40
tp508
F1.6266423144186279
s(I81
I2
tp509
F0.28877977287875778
s(g144
I30
tp510
F1.4506671403206348
s(I107
g157
tp511
F14.375066037962123
s(I18
I58
tp512
F13.984010095522139
s(I73
I61
tp513
F115.78264018857696
s(I32
g365
tp514
F14.45778941040135
s(I68
g362
tp515
F14.220899752961746
s(I75
I46
tp516
F10.552870215940544
s(I22
I92
tp517
F14.762361827109416
s(I87
I6
tp518
F1.4423948030767122
s(I103
I73
tp519
F1.0159934196854212
s(I50
I52
tp520
F147.27730815283721
s(I5
I99
tp521
F14.168257606864055
s(S'rec_75'
p522
I60
tp523
F1.4269781745766743
s(I44
I84
tp524
F14.405147264303661
s(I59
g266
tp525
F14.390106651132893
s(I18
I88
tp526
F14.7698821336948
s(I98
S'rec_97'
p527
tp528
F14.266021592474051
s(I64
I18
tp529
F1.4066733467961365
s(I26
S'rec_10'
p530
tp531
F14.375066037962123
s(I75
I26
tp532
F116.47563644042012
s(I30
I31
tp533
F8.3964223025815912
s(g413
I9
tp534
F1.4363785578084047
s(g248
I57
tp535
F1.402161162844906
s(g310
I93
tp536
F1.4532992476255193
s(I31
I30
tp537
F0.83964223025815909
s(I46
I34
tp538
F149.54881675695253
s(g385
I20
tp539
F1.4721000140889802
s(I22
I97
tp540
F14.172017760156747
s(I2
I81
tp541
F2.8877977287875782
s(I5
I37
tp542
F14.33370435174251
s(I40
I46
tp543
F56.169169886235473
s(I30
I33
tp544
F8.6671533396554263
s(g86
I43
tp545
F1.4566833855889423
s(I7
g338
tp546
F14.435228490645198
s(I102
I104
tp547
F3.9932827968390727
s(I5
I49
tp548
F14.363785578084046
s(I35
I33
tp549
F5.8395180635509227
s(I34
I43
tp550
F10.654394354843232
s(g392
I100
tp551
F1.4739800907353262
s(g490
I92
tp552
F1.4920288265402486
s(I80
I1
tp553
F1.1325581717588782
s(I36
I58
tp554
F4.376818432693673
s(g471
I47
tp555
F1.4081774081132135
s(I64
g456
tp556
F14.168257606864055
s(I83
I1
tp557
F1.1415825396613395
s(I22
I96
tp558
F14.709719681011725
s(I45
I43
tp559
F0.14815003973207105
s(I35
I30
tp560
F7.5838531760308152
s(I34
I30
tp561
F58.929122403071517
s(g51
I78
tp562
F1.4472830023572119
s(I97
I22
tp563
F1.4172017760156748
s(I37
I5
tp564
F1.4333704351742509
s(I61
I8
tp565
F19.699443100414221
s(I11
g396
tp566
F14.344984811620586
s(I2
I20
tp567
F3.0870858533002625
s(I76
I51
tp568
F2.8547083798118869
s(I60
g522
tp569
F14.269781745766743
s(I63
I22
tp570
F1.4247220826010589
s(I52
I50
tp571
F137.16023970351969
s(I2
I83
tp572
F2.7975540497629661
s(I26
I51
tp573
F68.569403414875666
s(I5
I3
tp574
F28.347795673606186
s(I21
g347
tp575
F14.7698821336948
s(I49
g476
tp576
F14.510431556499041
s(I22
I56
tp577
F14.386346497840201
s(I22
I63
tp578
F14.24722082601059
s(I30
I32
tp579
F8.4039426091669753
s(I104
I73
tp580
F0.98892031597803776
s(I93
I22
tp581
F2.8580925177753098
s(I30
I35
tp582
F17.803949825568104
s(I103
g335
tp583
F14.64579707503596
s(I35
I38
tp584
F14.728520447475187
s(g297
I46
tp585
F1.4371305884669432
s(I43
I44
tp586
F8.7649173252654222
s(I32
I30
tp587
F0.84039426091669756
s(I52
S'rec_9'
p588
tp589
F14.796203206743645
s(I42
I34
tp590
F0.40271241764733023
s(I5
g433
tp591
F14.292342665522895
s(I86
I34
tp592
F1.4179538066742132
s(I105
g295
tp593
F14.006571015278292
s(I82
I2
tp594
F0.28727571156168091
s(I75
I102
tp595
F218.65028186274415
s(I41
g151
tp596
F14.679638454670188
s(I10
g444
tp597
F14.510431556499041
s(I53
g370
tp598
F14.262261439181358
s(g530
I26
tp599
F1.4375066037962123
s(I22
I93
tp600
F28.580925177753098
s(I39
S'rec_68'
p601
tp602
F14.491630790035581
s(I50
I53
tp603
F11.348142637344935
s(g305
I96
tp604
F1.4901487498939026
s(g240
I106
tp605
F1.4322423891864433
s(I16
I102
tp606
F2.8535803338240795
s(I51
S'rec_16'
p607
tp608
F14.626996308572497
s(g372
I16
tp609
F1.4138176380522518
s(I55
I22
tp610
F1.4341224658327894
s(I1
I82
tp611
F11.769279806126457
s(I18
I24
tp612
F14.175777913449439
s(I34
I45
tp613
F4.0684858626929161
s(I42
I46
tp614
F0.58808797497705367
s(g84
I25
tp615
F1.4442748797230582
s(I16
I15
tp616
F14.611955695401729
s(I104
I102
tp617
F0.39932827968390727
s(I22
I21
tp618
F14.563073702596732
s(I46
I43
tp619
F11.804249231748495
s(I30
I34
tp620
F5.892912240307151
s(I41
I46
tp621
F0.6001204655136686
s(I40
I34
tp622
F65.323639092623793
s(g527
I98
tp623
F1.4266021592474052
s(I96
I22
tp624
F1.4709719681011726
s(g588
I52
tp625
F1.4796203206743646
s(I34
I40
tp626
F10.802920409904573
s(I80
I2
tp627
F0.30908460065929544
s(I1
I79
tp628
F11.694076740272614
s(I9
I10
tp629
F1.4220899752961744
s(g290
I73
tp630
F1.4450269103815967
s(g168
I66
tp631
F1.3905046876375604
s(I44
I43
tp632
F0.87649173252654222
s(I18
g333
tp633
F14.724760294182495
s(I104
g486
tp634
F14.062973314668675
s(I81
g171
tp635
F14.713479834304417
s(I59
I57
tp636
F1.4228420059547129
s(I11
I12
tp637
F1.4172017760156748
s(I71
g165
tp638
F14.239700519425206
s(I35
I36
tp639
F10.265218489049595
s(I58
I36
tp640
F0.43768184326936732
s(I6
I100
tp641
F14.604435388816345
s(I33
g128
tp642
F14.63075646186519
s(g601
I39
tp643
F1.4491630790035581
s(I22
I91
tp644
F14.412667570889045
s(g607
I51
tp645
F1.4626996308572497
s(I26
I22
tp646
F66.822436195090901
s(I94
g488
tp647
F14.570594009182116
s(I2
I0
tp648
F2.8125946629337348
s(I31
g504
tp649
F14.356265271498662
s(g268
I17
tp650
F1.3995290555400215
s(g292
I6
tp651
F1.3901286723082911
s(I4
I3
tp652
F1.4307383278693664
s(I5
I48
tp653
F14.288582512230203
s(I26
I75
tp654
F166.36309423588406
s(g92
I82
tp655
F1.4781162593572876
s(I73
I102
tp656
F64.248611266243117
s(I24
g271
tp657
F14.318663738571741
s(I3
g420
tp658
F14.269781745766743
ssS'MEAN_EXTERNAL'
p659
F78.817174792647165
sS'PER_LINK_EXTERNAL'
p660
g11
(tRp661
(I52
S'src_9'
p662
tp663
F13.695230322643381
s(I40
S'src_6'
p664
tp665
F14.344608796291316
s(S'src_4'
p666
I2
tp667
F141.48328794412785
s(S'src_0'
p668
I22
tp669
F137.88482124302146
s(S'src_5'
p670
I1
tp671
F159.40793869039138
s(S'src_1'
p672
I34
tp673
F136.89966108033613
s(I5
S'src_2'
p674
tp675
F14.745441137292302
s(S'src_8'
p676
I46
tp677
F139.65585344387947
s(I43
S'src_7'
p678
tp679
F14.758977689145993
s(I2
g666
tp680
F14.148328794412786
s(g674
I5
tp681
F147.454411372923
s(g678
I43
tp682
F147.58977689145993
s(S'src_3'
p683
I18
tp684
F142.26539982900783
s(I34
g672
tp685
F13.689966108033612
s(I1
g670
tp686
F15.940793869039139
s(g662
I52
tp687
F136.9523032264338
s(I18
g683
tp688
F14.226539982900784
s(I22
g668
tp689
F13.788482124302147
s(g664
I40
tp690
F143.44608796291317
s(I46
g676
tp691
F13.965585344387947
sssS'CACHE_HIT_RATIO'
p692
g11
(tRp693
S'PER_NODE_SERVER_HIT_RATIO'
p694
g11
(tRp695
g676
F0.092852500000000004
sg662
F0.091054999999999997
sg664
F0.095372499999999999
sg678
F0.098127500000000006
sg666
F0.094067499999999998
sg670
F0.105985
sg674
F0.0980375
sg683
F0.094587500000000005
sg668
F0.091675000000000006
sg672
F0.091020000000000004
ssS'PER_NODE_CACHE_HIT_RATIO'
p696
g11
(tRp697
I0
F0.00011
sI1
F0.0027599999999999999
sI2
F0.00067000000000000002
sI3
F0.00015249999999999999
sI4
F7.25e-05
sI5
F0.0022225000000000001
sI6
F0.00021000000000000001
sI7
F6.7500000000000001e-05
sI8
F0.000145
sI9
F9.5000000000000005e-05
sI10
F0.00026499999999999999
sI11
F0.000115
sI12
F0.00014750000000000001
sI15
F9.0000000000000006e-05
sI16
F0.00014249999999999999
sI17
F9.0000000000000006e-05
sI18
F0.0038375000000000002
sI19
F0.00012
sI20
F9.7499999999999998e-05
sI21
F0.00013750000000000001
sI22
F0.001835
sI23
F9.0000000000000006e-05
sI24
F9.5000000000000005e-05
sI25
F8.5000000000000006e-05
sI26
F0.0012600000000000001
sI27
F0.00012999999999999999
sI28
F8.25e-05
sI29
F0.0001125
sI30
F0.00034249999999999998
sI31
F8.7499999999999999e-05
sI32
F0.000135
sI33
F8.25e-05
sI34
F0.0028925000000000001
sI35
F0.00048000000000000001
sI36
F0.000135
sI37
F0.0001
sI38
F0.0001025
sI39
F0.000105
sI40
F0.0025474999999999999
sI41
F7.4999999999999993e-05
sI42
F9.0000000000000006e-05
sI43
F0.0021424999999999999
sI44
F0.00034499999999999998
sI45
F9.2499999999999999e-05
sI46
F0.0021099999999999999
sI47
F8.5000000000000006e-05
sI48
F9.5000000000000005e-05
sI49
F9.7499999999999998e-05
sI50
F0.0054374999999999996
sI51
F0.00081499999999999997
sI52
F0.0035925000000000002
sI53
F7.75e-05
sI54
F7.75e-05
sI55
F8.5000000000000006e-05
sI56
F9.0000000000000006e-05
sI57
F0.00024499999999999999
sI58
F0.0001775
sI59
F0.0001075
sI60
F0.00011
sI61
F0.00062750000000000002
sI62
F0.00046999999999999999
sI63
F0.00012999999999999999
sI64
F6.7500000000000001e-05
sI65
F0.00011
sI66
F8.0000000000000007e-05
sI67
F0.0001
sI68
F7.25e-05
sI69
F0.000105
sI70
F0.0001125
sI71
F7.75e-05
sI72
F8.25e-05
sI73
F0.00084999999999999995
sI74
F8.5000000000000006e-05
sI75
F0.0014025000000000001
sI76
F0.00014999999999999999
sI77
F8.0000000000000007e-05
sI78
F9.7499999999999998e-05
sI79
F0.00011
sI80
F7.75e-05
sI81
F0.000105
sI82
F9.2499999999999999e-05
sI83
F9.7499999999999998e-05
sI84
F0.00011
sI85
F0.0001325
sI86
F7.25e-05
sI87
F0.000105
sI88
F0.0001225
sI91
F9.0000000000000006e-05
sI92
F0.000105
sI93
F0.0001125
sI94
F9.5000000000000005e-05
sI95
F9.2499999999999999e-05
sI96
F0.00012750000000000001
sI97
F8.0000000000000007e-05
sI98
F0.0001175
sI99
F0.0001
sI100
F9.0000000000000006e-05
sI101
F0.0001
sI102
F0.0017275000000000001
sI103
F8.0000000000000007e-05
sI104
F0.00012
sI105
F8.0000000000000007e-05
sI106
F7.75e-05
sI107
F0.000105
ssg43
F0.047219999999999998
sstp698
a(g11
(tRp699
g13
g11
(tRp700
g15
I100000
sg16
g17
sg18
I100000
sg19
F1
sg20
I400000
sg21
F0.80000000000000004
ssg22
g11
(tRp701
g16
g24
ssg25
g11
(tRp702
g16
S'PROB_CACHE'
p703
ssg28
g11
(tRp704
g16
g30
ssg31
g11
(tRp705
g33
F0.01
sg16
g30
ssg34
S'Strategy: PROB_CACHE'
p706
sg36
g11
(tRp707
g16
g38
sg39
I1221
ssg11
(tRp708
g41
g11
(tRp709
g43
F85.322209999999998
ssg44
g11
(tRp710
g46
F15.305207093371493
sg47
g11
(tRp711
(I46
I42
tp712
F5.9354821439265972
s(I34
I73
tp713
F214.75130730708253
s(I78
S'rec_85'
p714
tp715
F14.622562089850831
s(I66
I10
tp716
F1.4712778411227803
s(I40
I41
tp717
F3.2214744758360316
s(S'rec_94'
p718
I95
tp719
F1.458497195594376
s(I1
I83
tp720
F12.073951010951379
s(S'rec_83'
p721
I70
tp722
F1.4449647473878302
s(I19
S'rec_59'
p723
tp724
F14.61128504967871
s(I10
I61
tp725
F4.1834060025179927
s(I34
I46
tp726
F94.22831636887345
s(I33
I30
tp727
F0.881112738781757
s(S'rec_78'
p728
I65
tp729
F1.4374467206064159
s(I44
S'rec_15'
p730
tp731
F14.487237607785373
s(I44
I34
tp732
F6.3703999932314144
s(I77
I76
tp733
F1.4697742357664974
s(I52
I35
tp734
F44.168407340809068
s(I71
I26
tp735
F0.70105599736688429
s(I45
S'rec_24'
p736
tp737
F14.389503259626988
s(I85
I22
tp738
F1.4325600031984966
s(I52
I98
tp739
F14.389503259626988
s(S'rec_17'
p740
I61
tp741
F1.4148926402621729
s(I62
I8
tp742
F7.9277592410013886
s(I38
S'rec_38'
p743
tp744
F14.577453929162346
s(I25
I26
tp745
F1.4318082005203552
s(I25
S'rec_63'
p746
tp747
F14.460924514050424
s(I43
S'rec_7'
p748
tp749
F15.280389433224583
s(S'rec_70'
p750
I48
tp751
F1.4558658862208809
s(I22
I65
tp752
F14.28049187129648
s(I73
I103
tp753
F10.58162269484064
s(I82
S'rec_48'
p754
tp755
F14.314322991812844
s(I76
S'rec_44'
p756
tp757
F14.878175000418917
s(I50
I1
tp758
F96.593111692967327
s(I99
I5
tp759
F1.4487237607785373
s(I63
S'rec_76'
p760
tp761
F14.652634196976488
s(I101
I10
tp762
F1.4291768911468601
s(I100
I6
tp763
F1.4318082005203552
s(S'rec_40'
p764
I54
tp765
F1.4415816353361937
s(I37
S'rec_67'
p766
tp767
F14.118854295496073
s(I27
I5
tp768
F1.4288009898077894
s(I97
S'rec_96'
p769
tp770
F14.810512759386189
s(I46
I45
tp771
F6.0294574786942761
s(I79
I1
tp772
F1.1739398819178444
s(S'rec_88'
p773
I86
tp774
F1.4280491871296479
s(I57
I59
tp775
F14.445888460487595
s(I101
S'rec_100'
p776
tp777
F14.348154112329208
s(I50
S'rec_19'
p778
tp779
F14.521068728301739
s(I32
I35
tp780
F0.57663265413447751
s(I91
S'rec_91'
p781
tp782
F14.449647473878303
s(I54
g764
tp783
F14.415816353361938
s(I1
S'rec_5'
p784
tp785
F14.28049187129648
s(I69
I5
tp786
F1.4633839130022952
s(I34
I41
tp787
F3.8793018192097835
s(g778
I50
tp788
F1.4521068728301738
s(I103
I102
tp789
F0.38755428058190761
s(I35
I52
tp790
F4.4168407340809068
s(S'rec_37'
p791
I33
tp792
F1.4731573478181339
s(I75
I26
tp793
F109.4808891030068
s(I38
I35
tp794
F1.4453406487269009
s(I95
I22
tp795
F1.4487237607785373
s(I61
g740
tp796
F14.148926402621729
s(I105
I18
tp797
F1.4100059228542536
s(I70
I44
tp798
F1.4385744246236281
s(I62
S'rec_12'
p799
tp800
F14.333118058766381
s(I15
I16
tp801
F1.4351913125719915
s(I22
I85
tp802
F14.325600031984965
s(I62
I6
tp803
F43.070775430722577
s(I61
I73
tp804
F11.978096169488348
s(I48
I5
tp805
F1.4366949179282744
s(I22
I52
tp806
F56.776514154579935
s(I30
S'rec_14'
p807
tp808
F14.227865683826581
s(I2
S'rec_4'
p809
tp810
F14.757886571916289
s(S'rec_49'
p811
I83
tp812
F1.4896970067372453
s(I28
I22
tp813
F1.4096300215151829
s(S'rec_22'
p814
I41
tp815
F1.4498514647957494
s(S'rec_11'
p816
I35
tp817
F1.4596248996115881
s(I51
I54
tp818
F2.7140076680905656
s(g723
I19
tp819
F1.4611285049678711
s(S'rec_103'
p820
I107
tp821
F1.4460924514050424
s(I46
I52
tp822
F260.23950424936885
s(I78
I2
tp823
F1.4543622808645982
s(I51
I53
tp824
F2.6538634538392509
s(I57
I60
tp825
F14.366949179282745
s(S'rec_65'
p826
I28
tp827
F1.4137649362449609
s(I46
I43
tp828
F11.339815695746273
s(I2
I78
tp829
F14.543622808645981
s(I66
S'rec_79'
p830
tp831
F14.787958679041946
s(I8
I62
tp832
F0.79277592410013886
s(S'rec_47'
p833
I81
tp834
F1.4265455817733652
s(I40
I42
tp835
F3.1049450607241096
s(S'rec_53'
p836
I4
tp837
F1.4178998509747387
s(I52
I74
tp838
F7.7134954777310814
s(I67
I18
tp839
F1.4739091504962754
s(I41
I43
tp840
F0.13118956733567969
s(I36
I35
tp841
F0.99989756192810308
s(I26
I74
tp842
F6.612104554253885
s(I2
I79
tp843
F2.6087552931507654
s(I91
I22
tp844
F1.4329359045375674
s(I47
I5
tp845
F1.4381985232845573
s(I86
g773
tp846
F14.28049187129648
s(I10
I9
tp847
F14.445888460487595
s(I43
I45
tp848
F1.4321841018594259
s(S'rec_66'
p849
I29
tp850
F1.4182757523138094
s(I45
I34
tp851
F0.37477363505350331
s(I73
I34
tp852
F26.564195829449318
s(S'rec_89'
p853
I87
tp854
F1.4562417875599516
s(I77
S'rec_84'
p855
tp856
F14.787958679041946
s(I44
I57
tp857
F38.721596937674398
s(I102
I73
tp858
F15.443530614381274
s(I70
g721
tp859
F14.449647473878303
s(I61
I12
tp860
F20.411442711539848
s(I50
I51
tp861
F36.737589670059165
s(I74
I52
tp862
F0.77134954777310816
s(g809
I2
tp863
F1.4757886571916288
s(I22
I55
tp864
F14.494755634566788
s(I1
I0
tp865
F11.679254604927129
s(S'rec_23'
p866
I42
tp867
F1.4415816353361937
s(I62
I102
tp868
F7.8725017441579936
s(g760
I63
tp869
F1.4652634196976488
s(g781
I91
tp870
F1.4449647473878302
s(I88
I18
tp871
F1.3821892237630207
s(I72
S'rec_42'
p872
tp873
F14.919524147716697
s(I17
I18
tp874
F1.4152685416012436
s(I28
g826
tp875
F14.137649362449608
s(I62
I72
tp876
F3.8905788593819048
s(I57
I58
tp877
F0.42965523055782778
s(I76
I77
tp878
F14.697742357664975
s(I54
I50
tp879
F1.1596556310331572
s(I73
I61
tp880
F120.17941711429843
s(I30
I36
tp881
F8.7885733074733281
s(I83
g811
tp882
F14.896970067372454
s(I58
I18
tp883
F1.3776784076941722
s(S'rec_45'
p884
I79
tp885
F1.4468442540831838
s(g743
I38
tp886
F1.4577453929162345
s(I88
S'rec_90'
p887
tp888
F13.957216719695666
s(I42
I43
tp889
F0.14848102893293261
s(S'rec_33'
p890
I0
tp891
F1.4547381822036689
s(I61
I62
tp892
F17.894031443783266
s(I43
I34
tp893
F60.953905735672791
s(I81
I1
tp894
F1.1607833350503693
s(I62
I61
tp895
F5.593787826711317
s(I83
I2
tp896
F0.26876945743556152
s(I6
I87
tp897
F14.506032674738909
s(I12
I62
tp898
F0.76646283036518881
s(g766
I37
tp899
F1.4118854295496073
s(I106
S'rec_102'
p900
tp901
F14.53234576847386
s(S'rec_29'
p902
I12
tp903
F1.4269214831124359
s(I36
I30
tp904
F0.87885733074733274
s(I1
I20
tp905
F11.863446261071779
s(I27
S'rec_64'
p906
tp907
F14.393262273017694
s(I57
S'rec_25'
p908
tp909
F14.521068728301739
s(I18
I67
tp910
F14.739091504962753
s(I5
I102
tp911
F137.47689313297647
s(S'rec_80'
p912
I67
tp913
F1.4870656973637504
s(I75
S'rec_26'
p914
tp915
F14.498514647957496
s(I29
I22
tp916
F1.4145167389231021
s(S'rec_61'
p917
I23
tp918
F1.4190275549919509
s(g736
I45
tp919
F1.4389503259626988
s(I3
I5
tp920
F2.8756452438909732
s(I55
S'rec_72'
p921
tp922
F14.656393210367195
s(I46
I40
tp923
F11.913817040507256
s(I53
I51
tp924
F0.26538634538392508
s(S'rec_74'
p925
I59
tp926
F1.4509791688129616
s(I17
S'rec_58'
p927
tp928
F14.235383710607994
s(I2
I82
tp929
F2.552370092290158
s(S'rec_62'
p930
I24
tp931
F1.4626321103241537
s(I40
I43
tp932
F1.9794964515463875
s(I5
I39
tp933
F14.272973844515066
s(I20
I1
tp934
F1.1863446261071779
s(I1
I81
tp935
F11.607833350503693
s(I18
I17
tp936
F14.152685416012437
s(I51
I76
tp937
F29.365412608204291
s(I34
I44
tp938
F63.703999932314147
s(I8
I7
tp939
F14.254178777561529
s(I22
I28
tp940
F14.09630021515183
s(I107
I93
tp941
F1.4370708192673451
s(I18
I43
tp942
F2.5662784418357742
s(I82
I1
tp943
F1.1634146444238642
s(I5
I69
tp944
F14.633839130022952
s(I45
I46
tp945
F0.60294574786942756
s(I84
S'rec_86'
p946
tp947
F14.626321103241539
s(I75
I34
tp948
F84.905963159919708
s(I73
S'rec_20'
p949
tp950
F14.186516536528801
s(I6
S'rec_21'
p951
tp952
F14.536104781864566
s(I39
I5
tp953
F1.4272973844515067
s(S'rec_101'
p954
I105
tp955
F1.4133890349058902
s(I46
S'rec_8'
p956
tp957
F14.904488094153868
s(I3
I4
tp958
F14.122613308886779
s(S'rec_32'
p959
I58
tp960
F1.3927144612570008
s(I2
I51
tp961
F123.94482082776979
s(I26
I52
tp962
F17.197486262485231
s(I40
S'rec_6'
p963
tp964
F14.509791688129617
s(I96
S'rec_95'
p965
tp966
F14.190275549919509
s(I5
I19
tp967
F14.547381822036687
s(I54
I51
tp968
F0.27140076680905656
s(I40
I18
tp969
F13.952705903626816
s(I93
S'rec_50'
p970
tp971
F14.746609531744166
s(g906
I27
tp972
F1.4393262273017695
s(I42
I40
tp973
F0.31049450607241097
s(S'rec_46'
p974
I80
tp975
F1.4058710081244759
s(I18
I34
tp976
F132.16991802797611
s(I67
g912
tp977
F14.870656973637503
s(I72
I62
tp978
F0.38905788593819052
s(I62
I10
tp979
F15.50968925005772
s(g784
I1
tp980
F1.4280491871296479
s(I69
S'rec_82'
p981
tp982
F14.739091504962753
s(I52
I46
tp983
F185.94786720078895
s(I12
g902
tp984
F14.269214831124359
s(I106
I34
tp985
F1.4404539313189817
s(I71
I52
tp986
F0.7593207049228452
s(I52
I26
tp987
F28.004649760768302
s(I10
I101
tp988
F14.291768911468601
s(I50
I54
tp989
F11.596556310331572
s(I56
I22
tp990
F1.4348154112329208
s(I79
g884
tp991
F14.468442540831838
s(I51
I2
tp992
F48.220623775991378
s(S'rec_3'
p993
I18
tp994
F1.4682706304102147
s(S'rec_51'
p995
I103
tp996
F1.4528586755083153
s(I12
I11
tp997
F13.968493759867787
s(S'rec_54'
p998
I7
tp999
F1.4295527924859308
s(I102
I62
tp1000
F78.326562022164978
s(I1
I50
tp1001
F149.82299671341505
s(S'rec_43'
p1002
I74
tp1003
F1.4430852406924766
s(I18
I105
tp1004
F14.100059228542536
s(S'rec_0'
p1005
I22
tp1006
F1.4381985232845573
s(S'rec_60'
p1007
I21
tp1008
F1.4103818241933244
s(I46
I41
tp1009
F5.9881083313964973
s(I53
I50
tp1010
F1.1746916845959858
s(I102
I16
tp1011
F28.56098374259296
s(I58
I57
tp1012
F4.2965523055782775
s(I35
g816
tp1013
F14.596248996115881
s(I102
I103
tp1014
F3.8755428058190762
s(I94
I22
tp1015
F1.406998712141688
s(I40
I44
tp1016
F10.303455703928311
s(I21
I22
tp1017
F1.399104784021203
s(I20
I2
tp1018
F0.25899602261972293
s(I1
I80
tp1019
F11.329666359591364
s(I34
I18
tp1020
F86.149444789565635
s(I0
I2
tp1021
F0.27515978019976373
s(S'rec_34'
p1022
I16
tp1023
F1.4374467206064159
s(I52
I71
tp1024
F7.593207049228452
s(I42
I46
tp1025
F0.5935482143926597
s(I26
I71
tp1026
F7.0105599736688431
s(I18
I40
tp1027
F6.9327483964812053
s(S'rec_98'
p1028
I99
tp1029
F1.4558658862208809
s(S'rec_39'
p1030
I53
tp1031
F1.4494755634566787
s(I16
g1022
tp1032
F14.374467206064159
s(I73
I104
tp1033
F10.25082951645841
s(I44
I40
tp1034
F1.030345570392831
s(I40
I45
tp1035
F3.0861499937705736
s(I5
I68
tp1036
F14.517309714911031
s(I58
g959
tp1037
F13.927144612570007
s(I46
I75
tp1038
F81.159354513401894
s(S'rec_73'
p1039
I56
tp1040
F1.4472201554222546
s(I61
I10
tp1041
F41.834060025179923
s(I44
I70
tp1042
F14.38574424623628
s(I74
I26
tp1043
F0.66121045542538848
s(I84
I44
tp1044
F1.4569935902380931
s(I20
S'rec_35'
p1045
tp1046
F14.521068728301739
s(g799
I62
tp1047
F1.4333118058766381
s(I51
I50
tp1048
F9.1956744576869127
s(g887
I88
tp1049
F1.3957216719695664
s(I65
I22
tp1050
F1.4280491871296479
s(I79
I2
tp1051
F0.26087552931507652
s(I100
S'rec_99'
p1052
tp1053
F14.378226219454866
s(I41
I40
tp1054
F0.32214744758360314
s(I29
g849
tp1055
F14.182757523138093
s(S'rec_56'
p1056
I11
tp1057
F1.4107577255323951
s(g946
I84
tp1058
F1.4626321103241537
s(I93
I107
tp1059
F14.370708192673451
s(g872
I72
tp1060
F1.4919524147716696
s(I5
I47
tp1061
F14.381985232845572
s(S'rec_87'
p1062
I85
tp1063
F1.4408298326580524
s(I85
g1062
tp1064
F14.408298326580523
s(I15
S'rec_57'
p1065
tp1066
F14.46468352744113
s(I31
I35
tp1067
F0.57888806216890176
s(I60
I57
tp1068
F1.4366949179282744
s(S'rec_31'
p1069
I36
tp1070
F1.4596248996115881
s(I87
g853
tp1071
F14.562417875599516
s(I10
I62
tp1072
F1.5509689250057719
s(I9
S'rec_55'
p1073
tp1074
F14.558658862208809
s(g756
I76
tp1075
F1.4878175000418918
s(I43
I41
tp1076
F1.311895673356797
s(I98
I52
tp1077
F1.4389503259626988
s(I35
I31
tp1078
F5.7888806216890183
s(g921
I55
tp1079
F1.4656393210367196
s(S'rec_27'
p1080
I3
tp1081
F1.4731573478181339
s(I42
g866
tp1082
F14.415816353361938
s(I22
I95
tp1083
F14.487237607785373
s(S'rec_1'
p1084
I34
tp1085
F1.4021119947337686
s(I0
I1
tp1086
F1.167925460492713
s(I49
I5
tp1087
F1.4006083893774857
s(I43
I42
tp1088
F1.484810289329326
s(I0
g890
tp1089
F14.547381822036687
s(I52
I22
tp1090
F181.72875057105924
s(S'rec_13'
p1091
I102
tp1092
F1.476916361208841
s(S'rec_2'
p1093
I5
tp1094
F1.440078029979911
s(I36
g1069
tp1095
F14.596248996115881
s(I65
g728
tp1096
F14.374467206064159
s(I41
I34
tp1097
F0.38793018192097833
s(I34
I86
tp1098
F14.190275549919509
s(g776
I101
tp1099
F1.4348154112329208
s(I5
I27
tp1100
F14.288009898077894
s(I72
I61
tp1101
F1.0934969953567113
s(I22
I94
tp1102
F14.069987121416879
s(I7
I8
tp1103
F1.425417877756153
s(S'rec_18'
p1104
I10
tp1105
F1.4344395098938503
s(I102
g1091
tp1106
F14.769163612088411
s(I2
I80
tp1107
F2.6049962797600581
s(I22
I23
tp1108
F14.088782188370415
s(I45
I40
tp1109
F0.30861499937705739
s(I61
I72
tp1110
F10.934969953567112
s(I18
I64
tp1111
F14.389503259626988
s(I68
I5
tp1112
F1.4517309714911031
s(I23
I22
tp1113
F1.4088782188370415
s(I22
I26
tp1114
F74.158567974548887
s(I102
I75
tp1115
F109.91467924829441
s(S'rec_77'
p1116
I64
tp1117
F1.4472201554222546
s(I34
I42
tp1118
F3.8229166183491761
s(g769
I97
tp1119
F1.481051275938619
s(I33
I35
tp1120
F0.57926396350797249
s(I43
I46
tp1121
F52.204050266123751
s(g730
I44
tp1122
F1.4487237607785373
s(g963
I40
tp1123
F1.4509791688129616
s(I34
g1084
tp1124
F14.021119947337686
s(I62
I12
tp1125
F7.6646283036518881
s(I19
I5
tp1126
F1.4547381822036689
s(I80
g974
tp1127
F14.058710081244758
s(I24
I18
tp1128
F1.4577453929162345
s(S'rec_28'
p1129
I8
tp1130
F1.4509791688129616
s(I47
S'rec_69'
p1131
tp1132
F14.524827741692445
s(I51
I26
tp1133
F126.1667736430168
s(I95
g718
tp1134
F14.584971955943759
s(I35
I32
tp1135
F5.7663265413447746
s(S'rec_71'
p1136
I49
tp1137
F1.4107577255323951
s(I8
g1129
tp1138
F14.509791688129617
s(I48
g750
tp1139
F14.558658862208809
s(I22
g1005
tp1140
F14.381985232845572
s(I23
g917
tp1141
F14.190275549919509
s(I102
I5
tp1142
F179.48499547814615
s(I10
I66
tp1143
F14.712778411227802
s(g1065
I15
tp1144
F1.4464683527441131
s(I4
g836
tp1145
F14.178998509747387
s(S'rec_52'
p1146
I104
tp1147
F1.4081264161589
s(S'rec_93'
p1148
I94
tp1149
F1.4186516536528802
s(I92
S'rec_92'
p1150
tp1151
F14.543622808645981
s(g855
I77
tp1152
F1.4787958679041946
s(I34
I75
tp1153
F83.43994793754392
s(I92
I22
tp1154
F1.447971958100396
s(I57
I44
tp1155
F3.8721596937674398
s(I56
g1039
tp1156
F14.472201554222545
s(I12
I61
tp1157
F2.0411442711539851
s(I8
I61
tp1158
F2.0704645756015005
s(g981
I69
tp1159
F1.4739091504962754
s(I22
I29
tp1160
F14.145167389231023
s(I74
g1002
tp1161
F14.430852406924766
s(I43
I18
tp1162
F10.777091391157413
s(I34
I106
tp1163
F14.404539313189817
s(S'rec_30'
p1164
I31
tp1165
F1.4618803076460123
s(g914
I75
tp1166
F1.4498514647957494
s(I6
I62
tp1167
F4.3070775430722579
s(I43
I40
tp1168
F1.6344190222794708
s(I81
I2
tp1169
F0.25523700922901577
s(g807
I30
tp1170
F1.4227865683826579
s(I107
g820
tp1171
F14.460924514050424
s(I18
I58
tp1172
F13.776784076941722
s(I99
g1028
tp1173
F14.558658862208809
s(I32
S'rec_36'
p1174
tp1175
F14.870656973637503
s(I68
S'rec_81'
p1176
tp1177
F14.558658862208809
s(I75
I46
tp1178
F10.681236549694379
s(I22
I92
tp1179
F14.479719581003959
s(I87
I6
tp1180
F1.4506032674738909
s(I103
I73
tp1181
F1.058162269484064
s(I50
I52
tp1182
F139.96122508289483
s(I5
I99
tp1183
F14.487237607785373
s(S'rec_75'
p1184
I60
tp1185
F1.4434611420315473
s(I44
I84
tp1186
F14.56993590238093
s(I59
g925
tp1187
F14.509791688129617
s(I18
I88
tp1188
F13.821892237630207
s(I98
S'rec_97'
p1189
tp1190
F14.513550701520323
s(I64
I18
tp1191
F1.4389503259626988
s(I26
S'rec_10'
p1192
tp1193
F14.938319214670232
s(I26
I25
tp1194
F14.318082005203552
s(I30
I31
tp1195
F8.7472241601755485
s(g1073
I9
tp1196
F1.4558658862208809
s(g908
I57
tp1197
F1.4521068728301738
s(g970
I93
tp1198
F1.4746609531744168
s(I31
I30
tp1199
F0.87472241601755485
s(I46
I34
tp1200
F157.86427815881581
s(g1045
I20
tp1201
F1.4521068728301738
s(I22
I97
tp1202
F14.739091504962753
s(I2
I81
tp1203
F2.552370092290158
s(I5
I37
tp1204
F14.039915014291221
s(I40
I46
tp1205
F61.141104602530007
s(I30
I33
tp1206
F8.8111273878175709
s(g748
I43
tp1207
F1.5280389433224584
s(I7
g998
tp1208
F14.295527924859309
s(I102
I104
tp1209
F3.7327002969722045
s(I5
I49
tp1210
F14.006083893774857
s(I35
I33
tp1211
F5.7926396350797251
s(I34
I43
tp1212
F10.436900679298414
s(g1052
I100
tp1213
F1.4378226219454866
s(g1150
I92
tp1214
F1.4543622808645982
s(I80
I1
tp1215
F1.1329666359591364
s(I36
I58
tp1216
F4.3153473725318134
s(g1131
I47
tp1217
F1.4524827741692445
s(I64
g1116
tp1218
F14.472201554222545
s(I83
I1
tp1219
F1.207395101095138
s(I22
I96
tp1220
F14.013601920556273
s(I45
I43
tp1221
F0.14321841018594259
s(I35
I30
tp1222
F7.5841854170907546
s(I34
I30
tp1223
F60.384791108319732
s(g714
I78
tp1224
F1.462256208985083
s(I97
I22
tp1225
F1.4739091504962754
s(I37
I5
tp1226
F1.4039915014291222
s(I61
I8
tp1227
F20.704645756015008
s(I11
g1056
tp1228
F14.107577255323951
s(I2
I20
tp1229
F2.5899602261972294
s(I76
I51
tp1230
F2.9365412608204293
s(I60
g1184
tp1231
F14.434611420315473
s(I63
I22
tp1232
F1.4592489982725174
s(I52
I50
tp1233
F140.33336740857484
s(I2
I83
tp1234
F2.6876945743556155
s(I26
I51
tp1235
F65.216626920734711
s(I5
I3
tp1236
F28.756452438909733
s(I21
g1007
tp1237
F14.103818241933244
s(I49
g1136
tp1238
F14.107577255323951
s(I22
I56
tp1239
F14.348154112329208
s(I22
I63
tp1240
F14.592489982725175
s(I30
I32
tp1241
F9.0178731243064636
s(I104
I73
tp1242
F1.0250829516458411
s(I93
I22
tp1243
F2.8929367054882262
s(I30
I35
tp1244
F18.159793690506262
s(I103
g995
tp1245
F14.528586755083152
s(I35
I38
tp1246
F14.453406487269008
s(g956
I46
tp1247
F1.4904488094153867
s(I43
I44
tp1248
F7.739808571466031
s(I32
I30
tp1249
F0.90178731243064636
s(I52
S'rec_9'
p1250
tp1251
F13.88579546527223
s(I42
I34
tp1252
F0.38229166183491764
s(I5
g1093
tp1253
F14.400780299799109
s(I86
I34
tp1254
F1.4190275549919509
s(I105
g954
tp1255
F14.133890349058902
s(I82
I2
tp1256
F0.25523700922901577
s(I75
I102
tp1257
F216.03463447866994
s(I41
g814
tp1258
F14.498514647957496
s(I10
g1104
tp1259
F14.344395098938502
s(I53
g1030
tp1260
F14.494755634566788
s(g1192
I26
tp1261
F1.4938319214670233
s(I22
I93
tp1262
F28.92936705488226
s(I39
S'rec_68'
p1263
tp1264
F14.370708192673451
s(I50
I53
tp1265
F11.746916845959857
s(g965
I96
tp1266
F1.4190275549919509
s(g900
I106
tp1267
F1.453234576847386
s(I16
I102
tp1268
F2.8560983742592958
s(I51
S'rec_16'
p1269
tp1270
F13.464785965513027
s(g1176
I68
tp1271
F1.4558658862208809
s(I55
I22
tp1272
F1.4494755634566787
s(I1
I82
tp1273
F11.634146444238644
s(I18
I24
tp1274
F14.577453929162346
s(I34
I45
tp1275
F3.7477363505350332
s(g1174
I32
tp1276
F1.4870656973637504
s(g746
I25
tp1277
F1.4460924514050424
s(I16
I15
tp1278
F14.351913125719916
s(I104
I102
tp1279
F0.37327002969722045
s(I22
I21
tp1280
F13.99104784021203
s(S'rec_41'
p1281
I71
tp1282
F1.4705260384446388
s(I30
I34
tp1283
F6.0384791108319726
s(I41
I46
tp1284
F0.59881083313964967
s(I40
I34
tp1285
F71.176918553039968
s(g1189
I98
tp1286
F1.4513550701520324
s(I96
I22
tp1287
F1.4013601920556271
s(g1250
I52
tp1288
F1.3885795465272228
s(I34
I40
tp1289
F11.224413984651564
s(I80
I2
tp1290
F0.26049962797600579
s(I1
I79
tp1291
F11.739398819178444
s(I9
I10
tp1292
F1.4445888460487595
s(g949
I73
tp1293
F1.4186516536528802
s(g830
I66
tp1294
F1.4787958679041946
s(I44
I43
tp1295
F0.77398085714660314
s(I18
g993
tp1296
F14.682706304102146
s(I104
g1146
tp1297
F14.081264161589001
s(I81
g833
tp1298
F14.265455817733651
s(I59
I57
tp1299
F1.4445888460487595
s(I11
I12
tp1300
F1.3968493759867786
s(I71
g1281
tp1301
F14.705260384446388
s(I35
I36
tp1302
F9.9989756192810315
s(I58
I36
tp1303
F0.43153473725318131
s(I6
I100
tp1304
F14.318082005203552
s(I33
g791
tp1305
F14.731573478181339
s(g1263
I39
tp1306
F1.4370708192673451
s(I22
I91
tp1307
F14.329359045375673
s(g1269
I51
tp1308
F1.3464785965513026
s(I26
I22
tp1309
F62.253020763501183
s(I94
g1148
tp1310
F14.186516536528801
s(I2
I0
tp1311
F2.751597801997637
s(I31
g1164
tp1312
F14.618803076460123
s(g927
I17
tp1313
F1.4235383710607994
s(g951
I6
tp1314
F1.4536104781864567
s(I4
I3
tp1315
F1.412261330888678
s(I5
I48
tp1316
F14.366949179282745
s(I26
I75
tp1317
F156.43021455026101
s(g754
I82
tp1318
F1.4314322991812845
s(I73
I102
tp1319
F65.671467541010273
s(I24
g930
tp1320
F14.626321103241539
s(I3
g1080
tp1321
F14.731573478181339
ssg659
F75.913519761201385
sg660
g11
(tRp1322
(I52
S'src_9'
p1323
tp1324
F14.147422797265447
s(S'src_5'
p1325
I1
tp1326
F149.28169878515322
s(S'src_4'
p1327
I2
tp1328
F129.7686602739924
s(I40
S'src_6'
p1329
tp1330
F13.871511214387542
s(S'src_1'
p1331
I34
tp1332
F134.04641751261713
s(I5
S'src_2'
p1333
tp1334
F13.795579143895257
s(S'src_0'
p1335
I22
tp1336
F130.31371721564491
s(I43
S'src_7'
p1337
tp1338
F13.21969829243892
s(I2
g1327
tp1339
F12.97686602739924
s(g1333
I5
tp1340
F137.95579143895256
s(g1337
I43
tp1341
F132.1969829243892
s(S'src_3'
p1342
I18
tp1343
F143.46274605633855
s(I34
g1331
tp1344
F13.404641751261712
s(I1
g1325
tp1345
F14.928169878515323
s(S'src_8'
p1346
I46
tp1347
F143.03045951640723
s(g1323
I52
tp1348
F141.47422797265446
s(I18
g1342
tp1349
F14.346274605633855
s(I22
g1335
tp1350
F13.031371721564492
s(g1329
I40
tp1351
F138.71511214387542
s(I46
g1346
tp1352
F14.303045951640723
sssg692
g11
(tRp1353
g694
g11
(tRp1354
g1346
F0.095125000000000001
sg1323
F0.094089999999999993
sg1329
F0.092255000000000004
sg1337
F0.087919999999999998
sg1327
F0.086305000000000007
sg1325
F0.099282499999999996
sg1333
F0.091749999999999998
sg1342
F0.095412499999999997
sg1335
F0.086667499999999995
sg1331
F0.089149999999999993
ssg696
g11
(tRp1355
I0
F7.75e-05
sI1
F0.0040375000000000003
sI2
F0.0013424999999999999
sI3
F6.4999999999999994e-05
sI4
F3.7499999999999997e-05
sI5
F0.0013749999999999999
sI6
F0.00019249999999999999
sI7
F2.7500000000000001e-05
sI8
F8.7499999999999999e-05
sI9
F7.4999999999999993e-05
sI10
F0.00029999999999999997
sI11
F9.2499999999999999e-05
sI12
F0.0001075
sI15
F7.4999999999999993e-05
sI16
F0.00011
sI17
F5.5000000000000002e-05
sI18
F0.0033175000000000001
sI19
F4.2500000000000003e-05
sI20
F4.5000000000000003e-05
sI21
F7.4999999999999993e-05
sI22
F0.001245
sI23
F6.7500000000000001e-05
sI24
F3.2499999999999997e-05
sI25
F9.5000000000000005e-05
sI26
F0.0013875000000000001
sI27
F6.9999999999999994e-05
sI28
F2.7500000000000001e-05
sI29
F2.5000000000000001e-05
sI30
F0.00063750000000000005
sI31
F5.5000000000000002e-05
sI32
F5.7500000000000002e-05
sI33
F8.5000000000000006e-05
sI34
F0.0046499999999999996
sI35
F0.00031750000000000002
sI36
F8.25e-05
sI37
F5.2500000000000002e-05
sI38
F8.25e-05
sI39
F6.4999999999999994e-05
sI40
F0.016629999999999999
sI41
F6.4999999999999994e-05
sI42
F4.5000000000000003e-05
sI43
F0.0035425000000000001
sI44
F0.00027750000000000002
sI45
F6.2500000000000001e-05
sI46
F0.0141575
sI47
F9.5000000000000005e-05
sI48
F0.00012750000000000001
sI49
F6.7500000000000001e-05
sI50
F0.0059249999999999997
sI51
F0.000785
sI52
F0.0099675000000000007
sI53
F6.2500000000000001e-05
sI54
F6.9999999999999994e-05
sI55
F0.0001075
sI56
F8.25e-05
sI57
F0.00021000000000000001
sI58
F8.7499999999999999e-05
sI59
F4.2500000000000003e-05
sI60
F4.5000000000000003e-05
sI61
F0.00098250000000000008
sI62
F0.00029750000000000002
sI63
F4.0000000000000003e-05
sI64
F5.5000000000000002e-05
sI65
F6.2500000000000001e-05
sI66
F5.0000000000000002e-05
sI67
F8.7499999999999999e-05
sI68
F2.7500000000000001e-05
sI69
F6.9999999999999994e-05
sI70
F4.2500000000000003e-05
sI71
F6.7500000000000001e-05
sI72
F6.2500000000000001e-05
sI73
F0.0012999999999999999
sI74
F6.9999999999999994e-05
sI75
F0.0023700000000000001
sI76
F0.00013999999999999999
sI77
F6.0000000000000002e-05
sI78
F5.2500000000000002e-05
sI79
F8.0000000000000007e-05
sI80
F8.25e-05
sI81
F6.9999999999999994e-05
sI82
F8.5000000000000006e-05
sI83
F9.0000000000000006e-05
sI84
F3.7499999999999997e-05
sI85
F5.5000000000000002e-05
sI86
F6.0000000000000002e-05
sI87
F3.7499999999999997e-05
sI88
F9.0000000000000006e-05
sI91
F8.0000000000000007e-05
sI92
F4.2500000000000003e-05
sI93
F0.000125
sI94
F7.75e-05
sI95
F6.4999999999999994e-05
sI96
F0.0001175
sI97
F4.7500000000000003e-05
sI98
F8.25e-05
sI99
F4.7500000000000003e-05
sI100
F4.0000000000000003e-05
sI101
F3.7499999999999997e-05
sI102
F0.0014475
sI103
F4.7500000000000003e-05
sI104
F6.4999999999999994e-05
sI105
F2.2500000000000001e-05
sI106
F8.5000000000000006e-05
sI107
F6.0000000000000002e-05
ssg43
F0.082042500000000004
sstp1356
atRp1357
sb.