ccopy_reg
_reconstructor
p1
(cicarus.results.readwrite
ResultSet
p2
c__builtin__
object
p3
NtRp4
(dp5
S'attr'
p6
(dp7
sS'_results'
p8
ccollections
deque
p9
((lp10
(cicarus.util
Tree
p11
(tRp12
S'workload'
p13
g11
(tRp14
S'n_contents'
p15
I100000
sS'name'
p16
S'STATIONARY'
p17
sS'n_warmup'
p18
I100000
sS'rate'
p19
F1
sS'n_measured'
p20
I400000
sS'alpha'
p21
F0.80000000000000004
ssS'cache_policy'
p22
g11
(tRp23
g16
S'LRU'
p24
ssS'strategy'
p25
g11
(tRp26
g16
S'LCE'
p27
ssS'content_placement'
p28
g11
(tRp29
g16
S'UNIFORM'
p30
ssS'cache_placement'
p31
g11
(tRp32
S'network_cache'
p33
F0.01
sg16
g30
ssS'desc'
p34
S'Strategy: LCE'
p35
sS'topology'
p36
g11
(tRp37
g16
S'ROCKET_FUEL'
p38
sS'asn'
p39
I1221
ssg11
(tRp40
S'LATENCY'
p41
g11
(tRp42
S'MEAN'
p43
F87.738555000000005
ssS'LINK_LOAD'
p44
g11
(tRp45
S'MEAN_INTERNAL'
p46
F15.215160150392512
sS'PER_LINK_INTERNAL'
p47
g11
(tRp48
(I46
I42
tp49
F5.4064420775143418
s(I34
I73
tp50
F211.25887255772196
s(I78
S'rec_85'
p51
tp52
F14.526777330598314
s(I66
I10
tp53
F1.4153146226416258
s(I40
I41
tp54
F3.0787202984601363
s(S'rec_94'
p55
I95
tp56
F1.4325016534340005
s(I1
I83
tp57
F11.67223569464741
s(S'rec_83'
p58
I70
tp59
F1.4100837871830771
s(I19
S'rec_59'
p60
tp61
F14.440842176636441
s(I10
I61
tp62
F4.0494139071251167
s(I34
I46
tp63
F98.301969879194587
s(I33
I30
tp64
F0.87504404599437369
s(S'rec_78'
p65
I65
tp66
F1.442963324351098
s(I44
S'rec_15'
p67
tp68
F14.183036714750823
s(I44
I34
tp69
F6.3016622031345459
s(I77
I76
tp70
F1.3899077075572461
s(I52
I35
tp71
F42.773288806761705
s(I71
I26
tp72
F0.72372344880064132
s(I45
S'rec_24'
p73
tp74
F14.444578487678262
s(I85
I22
tp75
F1.4373588577883671
s(I52
I98
tp76
F14.22787244725267
s(S'rec_17'
p77
I61
tp78
F1.435864333371639
s(I62
I8
tp79
F8.0816407834578587
s(I38
S'rec_38'
p80
tp81
F14.325016534340003
s(I25
I26
tp82
F1.456787675205834
s(I25
S'rec_63'
p83
tp84
F14.747219682065726
s(I43
S'rec_7'
p85
tp86
F14.343698089549108
s(S'rec_70'
p87
I48
tp88
F1.4298862357047259
s(I22
I65
tp89
F14.250290313503593
s(I73
I103
tp90
F9.856388528322622
s(I82
S'rec_48'
p91
tp92
F14.575349374141981
s(S'rec_73'
p93
I56
tp94
F1.4007430095785256
s(I50
I1
tp95
F96.710301375379032
s(I99
I5
tp96
F1.4014902717868898
s(I63
S'rec_76'
p97
tp98
F14.347434400590927
s(I101
I10
tp99
F1.4336225467465467
s(I100
I6
tp100
F1.4392270133092775
s(S'rec_40'
p101
I54
tp102
F1.4422160621427338
s(I37
S'rec_67'
p103
tp104
F13.999957473701615
s(I27
I5
tp105
F1.3973803296408871
s(I97
S'rec_96'
p106
tp107
F14.534249952681956
s(I46
I45
tp108
F5.5932576296053691
s(I79
I1
tp109
F1.1720807738191077
s(S'rec_88'
p110
I86
tp111
F1.4620185106643828
s(I57
I59
tp112
F14.373588577883671
s(I101
S'rec_100'
p113
tp114
F14.470732664971006
s(I50
S'rec_19'
p115
tp116
F14.115783115998052
s(I32
I35
tp117
F0.553347665293624
s(I91
S'rec_91'
p118
tp119
F14.575349374141981
s(I54
g101
tp120
F14.422160621427338
s(I1
S'rec_5'
p121
tp122
F14.455787420803723
s(I69
I5
tp123
F1.4422160621427338
s(I34
I41
tp124
F4.0651064135007626
s(g115
I50
tp125
F1.4115783115998053
s(I103
I102
tp126
F0.38894997945351967
s(I35
I52
tp127
F4.27732888067617
s(S'rec_37'
p128
I33
tp129
F1.4504359464347392
s(I38
I35
tp130
F1.4197981958918104
s(I95
I22
tp131
F1.4153146226416258
s(I61
g77
tp132
F14.358643333716389
s(I105
I18
tp133
F1.4612712484560186
s(I70
I44
tp134
F1.3981275918492513
s(I62
S'rec_12'
p135
tp136
F14.328752845381825
s(I15
I16
tp137
F1.4276444490796336
s(I22
I85
tp138
F14.373588577883671
s(I62
I6
tp139
F43.109556800525553
s(I61
I73
tp140
F11.738368400087634
s(I48
I5
tp141
F1.4183036714750823
s(S'rec_57'
p142
I15
tp143
F1.442963324351098
s(I30
S'rec_14'
p144
tp145
F14.672493461229315
s(I2
S'rec_4'
p146
tp147
F14.418424310385518
s(S'rec_49'
p148
I83
tp149
F1.4485677909138288
s(I28
I22
tp150
F1.4018639028910718
s(I57
I60
tp151
F14.478205287054646
s(S'rec_22'
p152
I41
tp153
F1.435864333371639
s(S'rec_11'
p154
I35
tp155
F1.4821945902902138
s(I51
I54
tp156
F2.7275070605290046
s(g60
I19
tp157
F1.4440842176636441
s(S'rec_103'
p158
I107
tp159
F1.4541722574765596
s(I46
I52
tp160
F262.66827070654767
s(I78
I2
tp161
F1.4373588577883671
s(I51
I53
tp162
F2.7984969703235949
s(I75
I102
tp163
F217.44358822524751
s(S'rec_65'
p164
I28
tp165
F1.4183036714750823
s(S'rec_41'
p166
I71
tp167
F1.4332489156423645
s(I2
I78
tp168
F14.373588577883671
s(I66
S'rec_79'
p169
tp170
F14.332489156423645
s(I8
I62
tp171
F0.80816407834578585
s(S'rec_47'
p172
I81
tp173
F1.4437105865594622
s(I40
I42
tp174
F2.9703672782473403
s(S'rec_53'
p175
I4
tp176
F1.4190509336834465
s(I52
I74
tp177
F7.087782046333591
s(I67
I18
tp178
F1.4029847962036179
s(I41
I43
tp179
F0.15991411258991972
s(I36
I35
tp180
F0.97592444412352874
s(I26
I74
tp181
F7.1027272905008729
s(I2
I79
tp182
F2.858277946992724
s(I91
I22
tp183
F1.4470732664971007
s(I47
I5
tp184
F1.4018639028910718
s(I86
g110
tp185
F14.620185106643827
s(I10
I9
tp186
F14.739747059982085
s(I43
I45
tp187
F1.5655143265228122
s(S'rec_66'
p188
I29
tp189
F1.4003693784743436
s(I45
I34
tp190
F0.40875242797516859
s(I73
I34
tp191
F26.311102356500342
s(S'rec_89'
p192
I87
tp193
F1.4642602972894752
s(I77
S'rec_84'
p194
tp195
F14.037320584119822
s(I44
I57
tp196
F38.304660800744323
s(I102
I73
tp197
F15.868860256820257
s(I70
g58
tp198
F14.100837871830771
s(I61
I12
tp199
F20.265751090834684
s(I50
I51
tp200
F33.022637880922602
s(I74
I52
tp201
F0.70877820463335905
s(g146
I2
tp202
F1.4418424310385518
s(I22
I55
tp203
F13.887868142446999
s(I1
I0
tp204
F11.586300540685539
s(S'rec_23'
p205
I42
tp206
F1.4149409915374438
s(I3
I5
tp207
F2.8104531656574205
s(g97
I63
tp208
F1.4347434400590928
s(g118
I91
tp209
F1.4575349374141982
s(I88
I18
tp210
F1.3891604453488819
s(I72
S'rec_42'
p211
tp212
F14.254026624545414
s(I17
I18
tp213
F1.4336225467465467
s(I28
g164
tp214
F14.183036714750823
s(I62
I72
tp215
F3.9679623264134283
s(I57
I58
tp216
F0.46741251133175132
s(I76
I77
tp217
F13.89907707557246
s(I54
I50
tp218
F1.1563882674434613
s(I73
I61
tp219
F117.59665373026012
s(I30
I36
tp220
F8.5150528643090428
s(I83
g148
tp221
F14.485677909138287
s(I58
I18
tp222
F1.4694911327480238
s(S'rec_45'
p223
I79
tp224
F1.476590123727483
s(g80
I38
tp225
F1.4325016534340005
s(I88
S'rec_90'
p226
tp227
F14.022375339952539
s(I42
I43
tp228
F0.15019970388118628
s(S'rec_33'
p229
I0
tp230
F1.4403479066218237
s(I61
I62
tp231
F17.888336374924265
s(I43
I34
tp232
F68.529922604655866
s(I81
I1
tp233
F1.1586300540685537
s(I62
I61
tp234
F5.825282545302426
s(I83
I2
tp235
F0.26602534617762347
s(I6
I87
tp236
F14.485677909138287
s(I12
I62
tp237
F0.84515355765980926
s(g103
I37
tp238
F1.3999957473701616
s(I106
S'rec_102'
p239
tp240
F13.719734145565074
s(S'rec_29'
p241
I12
tp242
F1.4511832086431031
s(I36
I30
tp243
F0.85150528643090428
s(I1
I20
tp244
F11.298604590465356
s(I27
S'rec_64'
p245
tp246
F14.145673604332618
s(I57
S'rec_25'
p247
tp248
F14.437105865594621
s(I18
I67
tp249
F14.029847962036181
s(I5
I102
tp250
F138.22034341890122
s(S'rec_80'
p251
I67
tp252
F1.4134464671207156
s(I75
S'rec_26'
p253
tp254
F14.657548217062033
s(I29
I22
tp255
F1.3813141921610588
s(S'rec_61'
p256
I23
tp257
F1.4422160621427338
s(g73
I45
tp258
F1.4444578487678261
s(I62
I102
tp259
F8.0939706098958659
s(I55
S'rec_72'
p260
tp261
F14.041056895161642
s(I46
I40
tp262
F11.203702290003113
s(I53
I51
tp263
F0.27984969703235951
s(S'rec_74'
p264
I59
tp265
F1.4549195196849236
s(I17
S'rec_58'
p266
tp267
F14.478205287054646
s(I2
I82
tp268
F2.824651147616339
s(S'rec_62'
p269
I24
tp270
F1.4549195196849236
s(I40
I43
tp271
F1.5554262867098967
s(I5
I39
tp272
F14.048529517245283
s(I20
I1
tp273
F1.1298604590465355
s(I1
I81
tp274
F11.586300540685539
s(I18
I17
tp275
F14.336225467465466
s(I51
I76
tp276
F27.962551836985025
s(I34
I44
tp277
F63.016622031345463
s(I8
I7
tp278
F14.149409915374438
s(I22
I28
tp279
F14.018639028910718
s(I107
I93
tp280
F1.4407215377260056
s(I18
I43
tp281
F2.6527808396925932
s(I82
I1
tp282
F1.1571355296518255
s(I5
I69
tp283
F14.422160621427338
s(I45
I46
tp284
F0.55932576296053693
s(I84
S'rec_86'
p285
tp286
F14.291389734963619
s(I75
I34
tp287
F89.468209683018259
s(I73
S'rec_20'
p288
tp289
F14.709856571647521
s(I6
S'rec_21'
p290
tp291
F14.5604041299747
s(I39
I5
tp292
F1.4048529517245283
s(S'rec_101'
p293
I105
tp294
F1.4732274437898445
s(I46
S'rec_8'
p295
tp296
F14.235345069336311
s(I3
I4
tp297
F14.022375339952539
s(S'rec_32'
p298
I58
tp299
F1.4287653423921798
s(I2
I51
tp300
F134.8307620417616
s(I26
I52
tp301
F18.288495287503249
s(I40
S'rec_6'
p302
tp303
F14.5604041299747
s(I96
S'rec_95'
p304
tp305
F14.448314798720082
s(I5
I19
tp306
F14.261499246629054
s(I54
I51
tp307
F0.27275070605290042
s(I40
I18
tp308
F11.715576902732529
s(I93
S'rec_50'
p309
tp310
F14.552931507891058
s(g245
I27
tp311
F1.4145673604332618
s(I42
I40
tp312
F0.29703672782473406
s(S'rec_46'
p313
I80
tp314
F1.4470732664971007
s(I18
I34
tp315
F137.04079002299846
s(I67
g251
tp316
F14.134464671207155
s(I72
I62
tp317
F0.39679623264134284
s(I62
I10
tp318
F16.559330537348696
s(g121
I1
tp319
F1.4455787420803723
s(I69
S'rec_82'
p320
tp321
F14.594030929351083
s(I52
I46
tp322
F176.28999025511501
s(I12
g241
tp323
F14.511832086431031
s(I106
I34
tp324
F1.3562809081808611
s(I71
I52
tp325
F0.69495385377862307
s(I52
I26
tp326
F27.935276766379737
s(I10
I101
tp327
F14.336225467465466
s(I50
I54
tp328
F11.563882674434614
s(I56
I22
tp329
F1.3831823476819691
s(I79
g223
tp330
F14.765901237274829
s(I51
I2
tp331
F48.423338364202742
s(S'rec_3'
p332
I18
tp333
F1.4381061199967313
s(S'rec_51'
p334
I103
tp335
F1.3910286008697923
s(I12
I11
tp336
F14.422160621427338
s(S'rec_54'
p337
I7
tp338
F1.4298862357047259
s(I102
I62
tp339
F80.726736369574894
s(I1
I50
tp340
F127.62678072202739
s(S'rec_43'
p341
I74
tp342
F1.4339961778507286
s(I18
I105
tp343
F14.612712484560186
s(S'rec_0'
p344
I22
tp345
F1.3947649119116128
s(S'rec_60'
p346
I21
tp347
F1.3902813386614281
s(I46
I41
tp348
F5.4550141210580092
s(I53
I50
tp349
F1.1492892764640024
s(I102
I16
tp350
F28.324974008041618
s(I58
I57
tp351
F4.6741251133175128
s(I35
g154
tp352
F14.821945902902138
s(I102
I103
tp353
F3.8894997945351966
s(I94
I22
tp354
F1.375336094494146
s(I40
I44
tp355
F8.2161479809633988
s(I21
I22
tp356
F1.3708525212439613
s(I20
I2
tp357
F0.27349796826126455
s(I1
I80
tp358
F11.425639165887254
s(I34
I18
tp359
F87.649747098964198
s(I0
I2
tp360
F0.26901439501107988
s(S'rec_81'
p361
I68
tp362
F1.4029847962036179
s(I52
I71
tp363
F6.9495385377862302
s(I42
I46
tp364
F0.54064420775143418
s(I26
I71
tp365
F7.237234488006413
s(I18
I40
tp366
F7.3709944233035891
s(S'rec_98'
p367
I99
tp368
F1.4108310493914411
s(S'rec_39'
p369
I53
tp370
F1.4444578487678261
s(I16
S'rec_34'
p371
tp372
F14.276444490796337
s(I73
I104
tp373
F10.196392833128291
s(I44
I40
tp374
F0.82161479809633986
s(I40
I45
tp375
F3.0525661211673927
s(I5
I68
tp376
F13.887868142446999
s(I58
g298
tp377
F14.287653423921798
s(I46
I75
tp378
F76.383648414562671
s(I76
S'rec_44'
p379
tp380
F14.310071290172722
s(I61
I10
tp381
F40.494139071251162
s(I44
I70
tp382
F13.981275918492512
s(I74
I26
tp383
F0.71027272905008731
s(I84
I44
tp384
F1.4134464671207156
s(I20
S'rec_35'
p385
tp386
F14.190509336834465
s(g135
I62
tp387
F1.4328752845381825
s(I51
I50
tp388
F8.8528153824896201
s(g226
I88
tp389
F1.402237533995254
s(I65
I22
tp390
F1.4250290313503593
s(I79
I2
tp391
F0.28582779469927239
s(I100
S'rec_99'
p392
tp393
F14.549195196849237
s(I41
I40
tp394
F0.30787202984601364
s(I29
g188
tp395
F14.003693784743437
s(S'rec_56'
p396
I11
tp397
F1.4601503551434725
s(g285
I84
tp398
F1.429138973496362
s(I93
I107
tp399
F14.407215377260057
s(I48
g87
tp400
F14.298862357047261
s(g211
I72
tp401
F1.4254026624545413
s(I5
I47
tp402
F14.018639028910718
s(S'rec_87'
p403
I85
tp404
F1.4526777330598313
s(I85
g403
tp405
F14.526777330598314
s(I15
g142
tp406
F14.429633243510979
s(I31
I35
tp407
F0.55222677198107784
s(I60
I57
tp408
F1.4478205287054646
s(S'rec_31'
p409
I36
tp410
F1.4474468976012826
s(I87
g192
tp411
F14.642602972894752
s(I10
I62
tp412
F1.6559330537348695
s(I9
S'rec_55'
p413
tp414
F14.90414474582219
s(g379
I76
tp415
F1.4310071290172721
s(I43
I41
tp416
F1.5991411258991972
s(I98
I52
tp417
F1.422787244725267
s(I35
I31
tp418
F5.5222677198107784
s(g260
I55
tp419
F1.4041056895161641
s(S'rec_27'
p420
I3
tp421
F1.4287653423921798
s(I42
g205
tp422
F14.149409915374438
s(I22
I95
tp423
F14.153146226416258
s(S'rec_1'
p424
I34
tp425
F1.4396006444134595
s(I0
I1
tp426
F1.1586300540685537
s(I49
I5
tp427
F1.4141937293290796
s(I43
I42
tp428
F1.5019970388118626
s(I0
g229
tp429
F14.403479066218235
s(I52
I22
tp430
F176.03181116212522
s(S'rec_13'
p431
I102
tp432
F1.4250290313503593
s(S'rec_2'
p433
I5
tp434
F1.4526777330598313
s(I36
g409
tp435
F14.474468976012826
s(I65
g65
tp436
F14.429633243510979
s(I41
I34
tp437
F0.40651064135007625
s(I34
I86
tp438
F14.493150531221929
s(g113
I101
tp439
F1.4470732664971007
s(I5
I27
tp440
F13.973803296408873
s(I72
I61
tp441
F1.0099248746040956
s(I22
I94
tp442
F13.753360944941459
s(I7
I8
tp443
F1.4149409915374438
s(S'rec_18'
p444
I10
tp445
F1.4283917112879978
s(I102
g431
tp446
F14.250290313503593
s(I2
I80
tp447
F2.8844321242854676
s(I22
I23
tp448
F14.239081380378131
s(I45
I40
tp449
F0.30525661211673927
s(I61
I72
tp450
F10.099248746040958
s(I18
I64
tp451
F14.668757150187496
s(I68
I5
tp452
F1.3887868142447
s(I23
I22
tp453
F1.4239081380378131
s(I22
I26
tp454
F78.481213433440743
s(I102
I75
tp455
F110.71586331564339
s(S'rec_77'
p456
I64
tp457
F1.4780846481442111
s(I34
I42
tp458
F4.1659868116299181
s(g106
I97
tp459
F1.4534249952681955
s(I33
I35
tp460
F0.56119391848144717
s(I43
I46
tp461
F59.661788346894788
s(g67
I44
tp462
F1.4183036714750823
s(g302
I40
tp463
F1.4560404129974698
s(I34
g424
tp464
F14.396006444134594
s(I62
I12
tp465
F8.4515355765980935
s(I19
I5
tp466
F1.4261499246629055
s(I80
g313
tp467
F14.470732664971006
s(I24
I18
tp468
F1.4437105865594622
s(S'rec_28'
p469
I8
tp470
F1.4470732664971007
s(I47
S'rec_69'
p471
tp472
F14.186773025792643
s(I51
I26
tp473
F135.69982799008906
s(I95
g55
tp474
F14.325016534340003
s(I35
I32
tp475
F5.5334766529362405
s(S'rec_71'
p476
I49
tp477
F1.4313807601214543
s(I8
g469
tp478
F14.470732664971006
s(I26
I25
tp479
F14.567876752058339
s(I22
g344
tp480
F13.947649119116129
s(I23
g256
tp481
F14.422160621427338
s(I102
I5
tp482
F177.60405084852331
s(I10
I66
tp483
F14.153146226416258
s(I22
I52
tp484
F57.951678783053524
s(I4
g175
tp485
F14.190509336834465
s(S'rec_52'
p486
I104
tp487
F1.4216663514127208
s(S'rec_93'
p488
I94
tp489
F1.3831823476819691
s(I92
S'rec_92'
p490
tp491
F14.818209591860317
s(g194
I77
tp492
F1.4037320584119821
s(I34
I75
tp493
F87.520470736917204
s(I92
I22
tp494
F1.4683702394354776
s(I57
I44
tp495
F3.8304660800744319
s(I56
g93
tp496
F14.007430095785256
s(I12
I61
tp497
F2.0265751090834683
s(I8
I61
tp498
F2.0377840422089299
s(g320
I69
tp499
F1.4594030929351083
s(I22
I29
tp500
F13.813141921610589
s(I74
g341
tp501
F14.339961778507286
s(I43
I18
tp502
F12.064921985142751
s(I34
I106
tp503
F13.562809081808611
s(S'rec_30'
p504
I31
tp505
F1.4594030929351083
s(g253
I75
tp506
F1.4657548217062033
s(I6
I62
tp507
F4.3109556800525555
s(I43
I40
tp508
F1.7571870829682066
s(I81
I2
tp509
F0.27237707494871838
s(g144
I30
tp510
F1.4672493461229315
s(I107
g158
tp511
F14.541722574765597
s(I18
I58
tp512
F14.69491132748024
s(I99
g367
tp513
F14.108310493914411
s(I32
S'rec_36'
p514
tp515
F14.130728360165335
s(I68
g361
tp516
F14.029847962036181
s(I75
I46
tp517
F10.216942543858305
s(I22
I92
tp518
F14.683702394354777
s(I87
I6
tp519
F1.4485677909138288
s(I103
I73
tp520
F0.98563885283226216
s(I50
I52
tp521
F114.92818038419188
s(I5
I99
tp522
F14.014902717868898
s(S'rec_75'
p523
I60
tp524
F1.4590294618309263
s(I44
I84
tp525
F14.134464671207155
s(I59
g264
tp526
F14.549195196849237
s(I18
I88
tp527
F13.891604453488819
s(I98
S'rec_97'
p528
tp529
F14.418424310385518
s(I64
I18
tp530
F1.4668757150187495
s(I26
S'rec_10'
p531
tp532
F13.992484851617975
s(I75
I26
tp533
F112.32322432583459
s(I30
I31
tp534
F8.9036292126583803
s(g413
I9
tp535
F1.490414474582219
s(g247
I57
tp536
F1.4437105865594622
s(g309
I93
tp537
F1.4552931507891058
s(I31
I30
tp538
F0.89036292126583805
s(I46
I34
tp539
F147.72365055377179
s(g385
I20
tp540
F1.4190509336834465
s(I22
I97
tp541
F14.354907022674569
s(I2
I81
tp542
F2.7237707494871839
s(I5
I37
tp543
F13.869186587237897
s(I40
I46
tp544
F54.967487153951446
s(I30
I33
tp545
F8.7504404599437375
s(g85
I43
tp546
F1.4343698089549106
s(I7
g337
tp547
F14.298862357047261
s(I102
I104
tp548
F3.8708182393260939
s(I5
I49
tp549
F14.141937293290797
s(I35
I33
tp550
F5.6119391848144717
s(I34
I43
tp551
F11.148031255479987
s(g392
I100
tp552
F1.4549195196849236
s(g490
I92
tp553
F1.4818209591860316
s(I80
I1
tp554
F1.1425639165887254
s(I36
I58
tp555
F3.9978528147479926
s(g471
I47
tp556
F1.4186773025792643
s(I64
g456
tp557
F14.780846481442111
s(I83
I1
tp558
F1.167223569464741
s(I22
I96
tp559
F14.328752845381825
s(I45
I43
tp560
F0.15655143265228122
s(I35
I30
tp561
F7.4651494615574672
s(I34
I30
tp562
F60.517029944367515
s(g51
I78
tp563
F1.4526777330598313
s(I97
I22
tp564
F1.4354907022674568
s(I37
I5
tp565
F1.3869186587237896
s(I61
I8
tp566
F20.377840422089303
s(I11
g396
tp567
F14.601503551434725
s(I2
I20
tp568
F2.7349796826126456
s(I76
I51
tp569
F2.7962551836985026
s(I60
g523
tp570
F14.590294618309263
s(I63
I22
tp571
F1.4183036714750823
s(I52
I50
tp572
F140.58094473512344
s(I2
I83
tp573
F2.6602534617762346
s(I26
I51
tp574
F67.320852351522745
s(I5
I3
tp575
F28.104531656574206
s(I21
g346
tp576
F13.902813386614282
s(I49
g476
tp577
F14.313807601214542
s(I22
I56
tp578
F13.831823476819691
s(I22
I63
tp579
F14.183036714750823
s(I30
I32
tp580
F8.4328540213889909
s(I104
I73
tp581
F1.0196392833128292
s(I93
I22
tp582
F2.8806958132436473
s(I30
I35
tp583
F18.131570223746785
s(I103
g334
tp584
F13.910286008697922
s(I35
I38
tp585
F14.197981958918104
s(g295
I46
tp586
F1.4235345069336311
s(I43
I44
tp587
F8.8438482359892507
s(I32
I30
tp588
F0.84328540213889902
s(I52
S'rec_9'
p589
tp590
F14.321280223298183
s(I42
I34
tp591
F0.41659868116299176
s(I5
g433
tp592
F14.526777330598314
s(I86
I34
tp593
F1.449315053122193
s(I105
g293
tp594
F14.732274437898445
s(I82
I2
tp595
F0.28246511476163388
s(I41
g152
tp596
F14.358643333716389
s(I10
g444
tp597
F14.283917112879978
s(I53
g369
tp598
F14.444578487678262
s(g531
I26
tp599
F1.3992484851617975
s(I22
I93
tp600
F28.806958132436471
s(I39
S'rec_68'
p601
tp602
F14.197981958918104
s(I50
I53
tp603
F11.492892764640024
s(g304
I96
tp604
F1.4448314798720083
s(g239
I106
tp605
F1.3719734145565075
s(I16
I102
tp606
F2.8324974008041619
s(I51
S'rec_16'
p607
tp608
F14.665020839145674
s(g371
I16
tp609
F1.4276444490796336
s(I55
I22
tp610
F1.3887868142447
s(I1
I82
tp611
F11.571355296518256
s(I18
I24
tp612
F14.437105865594621
s(I34
I45
tp613
F4.087524279751686
s(g514
I32
tp614
F1.4130728360165334
s(g83
I25
tp615
F1.4747219682065726
s(I16
I15
tp616
F14.276444490796337
s(I104
I102
tp617
F0.38708182393260937
s(I22
I21
tp618
F13.708525212439612
s(I46
I43
tp619
F11.462255014097096
s(I30
I34
tp620
F6.0517029944367513
s(I41
I46
tp621
F0.54550141210580083
s(I40
I34
tp622
F63.526628488553968
s(g528
I98
tp623
F1.4418424310385518
s(I96
I22
tp624
F1.4328752845381825
s(g589
I52
tp625
F1.4321280223298183
s(I34
I40
tp626
F10.640266584896574
s(I80
I2
tp627
F0.28844321242854676
s(I1
I79
tp628
F11.720807738191079
s(I9
I10
tp629
F1.4739747059982085
s(g288
I73
tp630
F1.4709856571647522
s(g169
I66
tp631
F1.4332489156423645
s(I44
I43
tp632
F0.88438482359892512
s(I18
g332
tp633
F14.381061199967313
s(I104
g486
tp634
F14.216663514127207
s(I81
g172
tp635
F14.437105865594621
s(I59
I57
tp636
F1.4373588577883671
s(I11
I12
tp637
F1.4422160621427338
s(I71
g166
tp638
F14.332489156423645
s(I35
I36
tp639
F9.7592444412352872
s(I58
I36
tp640
F0.3997852814747993
s(I6
I100
tp641
F14.392270133092774
s(I33
g128
tp642
F14.50435946434739
s(g601
I39
tp643
F1.4197981958918104
s(I22
I91
tp644
F14.470732664971006
s(g607
I51
tp645
F1.4665020839145675
s(I26
I22
tp646
F64.630708401411937
s(I94
g488
tp647
F13.831823476819691
s(I2
I0
tp648
F2.6901439501107989
s(I31
g504
tp649
F14.594030929351083
s(g266
I17
tp650
F1.4478205287054646
s(g290
I6
tp651
F1.4560404129974698
s(I4
I3
tp652
F1.402237533995254
s(I5
I48
tp653
F14.183036714750823
s(I26
I75
tp654
F167.11585212302882
s(g91
I82
tp655
F1.4575349374141982
s(I73
I102
tp656
F65.306233437773102
s(I24
g269
tp657
F14.549195196849237
s(I3
g420
tp658
F14.287653423921798
ssS'MEAN_EXTERNAL'
p659
F78.352553562715627
sS'PER_LINK_EXTERNAL'
p660
g11
(tRp661
(I52
S'src_9'
p662
tp663
F15.253489828232411
s(I40
S'src_6'
p664
tp665
F13.626700000623742
s(S'src_4'
p666
I2
tp667
F142.97741463734715
s(S'src_0'
p668
I22
tp669
F136.18106485227554
s(S'src_5'
p670
I1
tp671
F128.89899463176729
s(S'src_1'
p672
I34
tp673
F145.46206148015781
s(I5
S'src_2'
p674
tp675
F13.833318001236419
s(S'src_8'
p676
I46
tp677
F149.53837682678403
s(I43
S'src_7'
p678
tp679
F14.502117677722298
s(I2
g666
tp680
F14.297741463734713
s(g674
I5
tp681
F138.33318001236418
s(g678
I43
tp682
F145.02117677722299
s(S'src_3'
p683
I18
tp684
F149.37771545198575
s(I34
g672
tp685
F14.546206148015781
s(I1
g670
tp686
F12.889899463176729
s(g662
I52
tp687
F152.53489828232412
s(I18
g683
tp688
F14.937771545198574
s(I22
g668
tp689
F13.618106485227555
s(g664
I40
tp690
F136.26700000623742
s(I46
g676
tp691
F14.953837682678403
sssS'CACHE_HIT_RATIO'
p692
g11
(tRp693
S'PER_NODE_SERVER_HIT_RATIO'
p694
g11
(tRp695
g676
F0.10005749999999999
sg662
F0.1020625
sg664
F0.091177499999999995
sg678
F0.097034999999999996
sg666
F0.095667500000000003
sg670
F0.086247500000000005
sg674
F0.092560000000000003
sg683
F0.099949999999999997
sg668
F0.091120000000000007
sg672
F0.09733
ssS'PER_NODE_CACHE_HIT_RATIO'
p696
g11
(tRp697
I0
F8.5000000000000006e-05
sI1
F0.00051500000000000005
sI2
F0.00080250000000000004
sI3
F0.00013750000000000001
sI4
F0.0001125
sI5
F0.00091
sI6
F0.00022000000000000001
sI7
F0.0001
sI8
F0.0001075
sI9
F0.00011
sI10
F0.00030749999999999999
sI11
F0.00012
sI12
F0.000145
sI15
F0.0001025
sI16
F0.00015249999999999999
sI17
F9.5000000000000005e-05
sI18
F0.0035249999999999999
sI19
F0.00012
sI20
F0.000105
sI21
F0.00012999999999999999
sI22
F0.0018825000000000001
sI23
F0.0001225
sI24
F7.4999999999999993e-05
sI25
F0.00012
sI26
F0.0011349999999999999
sI27
F0.000115
sI28
F0.00011
sI29
F0.00012750000000000001
sI30
F0.00040749999999999998
sI31
F0.0001125
sI32
F0.00011
sI33
F9.5000000000000005e-05
sI34
F0.0025850000000000001
sI35
F0.00055000000000000003
sI36
F0.0001325
sI37
F8.7499999999999999e-05
sI38
F8.5000000000000006e-05
sI39
F0.0001
sI40
F0.0050875
sI41
F0.0001075
sI42
F6.9999999999999994e-05
sI43
F0.0072449999999999997
sI44
F0.0003525
sI45
F9.7499999999999998e-05
sI46
F0.0022599999999999999
sI47
F0.0001125
sI48
F7.75e-05
sI49
F0.000115
sI50
F0.000785
sI51
F0.00084749999999999995
sI52
F0.0048650000000000004
sI53
F0.0001025
sI54
F8.7499999999999999e-05
sI55
F0.0001025
sI56
F0.0001175
sI57
F0.0002075
sI58
F0.00018000000000000001
sI59
F0.0001175
sI60
F7.4999999999999993e-05
sI61
F0.00092250000000000003
sI62
F0.00026249999999999998
sI63
F0.00011
sI64
F7.4999999999999993e-05
sI65
F0.00012
sI66
F0.00012
sI67
F6.9999999999999994e-05
sI68
F9.5000000000000005e-05
sI69
F0.000115
sI70
F8.0000000000000007e-05
sI71
F9.7499999999999998e-05
sI72
F0.000125
sI73
F0.0012149999999999999
sI74
F0.0001
sI75
F0.00067500000000000004
sI76
F0.000165
sI77
F9.2499999999999999e-05
sI78
F0.0001025
sI79
F0.000125
sI80
F0.0001075
sI81
F8.5000000000000006e-05
sI82
F0.00012
sI83
F0.0001025
sI84
F0.000105
sI85
F0.0001025
sI86
F8.5000000000000006e-05
sI87
F0.000105
sI88
F8.7499999999999999e-05
sI91
F6.9999999999999994e-05
sI92
F9.0000000000000006e-05
sI93
F0.0001025
sI94
F5.2500000000000002e-05
sI95
F0.000115
sI96
F8.0000000000000007e-05
sI97
F0.00012
sI98
F0.00012750000000000001
sI99
F6.2500000000000001e-05
sI100
F0.000105
sI101
F9.0000000000000006e-05
sI102
F0.00085749999999999997
sI103
F0.00011
sI104
F0.0001
sI105
F8.0000000000000007e-05
sI106
F0.000105
sI107
F9.0000000000000006e-05
ssg43
F0.046792500000000001
sstp698
a(g11
(tRp699
g13
g11
(tRp700
g15
I100000
sg16
g17
sg18
I100000
sg19
F1
sg20
I400000
sg21
F0.80000000000000004
ssg22
g11
(tRp701
g16
g24
ssg25
g11
(tRp702
g16
S'PROB_CACHE'
p703
ssg28
g11
(tRp704
g16
g30
ssg31
g11
(tRp705
g33
F0.01
sg16
g30
ssg34
S'Strategy: PROB_CACHE'
p706
sg36
g11
(tRp707
g16
g38
sg39
I1221
ssg11
(tRp708
g41
g11
(tRp709
g43
F85.358964999999998
ssg44
g11
(tRp710
g46
F15.165461504045226
sg47
g11
(tRp711
(I46
I42
tp712
F5.848925755127464
s(I34
I73
tp713
F205.59030232915782
s(I78
S'rec_85'
p714
tp715
F14.380638724009742
s(I66
I10
tp716
F1.4373144904976907
s(I40
I41
tp717
F2.8476512324771766
s(S'rec_94'
p718
I95
tp719
F1.4264484529000805
s(I1
I83
tp720
F11.671623143640007
s(S'rec_83'
p721
I70
tp722
F1.4065898324630686
s(I19
S'rec_59'
p723
tp724
F14.197040157705292
s(I10
I61
tp725
F3.9750963059671536
s(I34
I46
tp726
F90.375082845034541
s(I33
I30
tp727
F0.85467006069479468
s(S'rec_78'
p728
I65
tp729
F1.4478058371436593
s(I5
I102
tp730
F141.78942584740997
s(I44
S'rec_15'
p731
tp732
F14.331928900296315
s(I44
I34
tp733
F6.3540091579405207
s(I77
I76
tp734
F1.3968478677203835
s(I52
I35
tp735
F44.097378098715645
s(I71
I26
tp736
F0.68381098674616414
s(I45
S'rec_24'
p737
tp738
F14.485552190469427
s(I85
I22
tp739
F1.4534262014182853
s(I52
I98
tp740
F14.238256162385882
s(S'rec_17'
p741
I61
tp742
F1.4140836514959032
s(I62
I8
tp743
F8.45677477855393
s(I38
S'rec_38'
p744
tp745
F14.245749981418717
s(I25
I26
tp746
F1.3882299758326235
s(I25
S'rec_63'
p747
tp748
F13.994707043818755
s(I43
S'rec_7'
p749
tp750
F14.549249652248522
s(S'rec_70'
p751
I48
tp752
F1.4073392143663519
s(I22
I65
tp753
F14.373144904976908
s(I73
I103
tp754
F10.146630970458149
s(I82
S'rec_48'
p755
tp756
F14.665403847257458
s(S'rec_73'
p757
I56
tp758
F1.483401477549624
s(I50
I1
tp759
F94.361419879550951
s(I99
I5
tp760
F1.449679291901868
s(I63
S'rec_76'
p761
tp762
F14.219521614803796
s(I101
I10
tp763
F1.4395626362075411
s(I100
I6
tp764
F1.4361904176427656
s(S'rec_40'
p765
I54
tp766
F1.4616694023544035
s(I37
S'rec_67'
p767
tp768
F14.399373271591829
s(I27
I5
tp769
F1.3833589934612811
s(I97
S'rec_96'
p770
tp771
F14.144583424475449
s(I46
I45
tp772
F6.1711599735393552
s(I79
I1
tp773
F1.1465543120237054
s(S'rec_88'
p774
I86
tp775
F1.4313194352714229
s(I57
I59
tp776
F14.48180528095301
s(I101
S'rec_100'
p777
tp778
F14.526768195150018
s(I50
S'rec_19'
p779
tp780
F14.391879452558994
s(I32
I35
tp781
F0.59163701264229762
s(I91
S'rec_91'
p782
tp783
F14.556743471281356
s(I54
g765
tp784
F14.616694023544033
s(I1
S'rec_5'
p785
tp786
F14.204533976738126
s(I69
I5
tp787
F1.4470564552403757
s(I34
I41
tp788
F4.4550754150202145
s(g779
I50
tp789
F1.4391879452558993
s(I103
I102
tp790
F0.4305199034363521
s(I35
I52
tp791
F4.4097378098715643
s(S'rec_37'
p792
I33
tp793
F1.4474311461920175
s(I38
I35
tp794
F1.4159571062541119
s(I95
I22
tp795
F1.4133342695926197
s(I61
g741
tp796
F14.140836514959032
s(I12
I61
tp797
F2.0244552117202876
s(I70
I44
tp798
F1.3942250310588913
s(I62
S'rec_12'
p799
tp800
F14.148330333991867
s(I15
I16
tp801
F1.4253243800451552
s(I22
I85
tp802
F14.534262014182852
s(I62
I6
tp803
F43.333008557366512
s(I61
I73
tp804
F11.590315207133751
s(I48
I5
tp805
F1.4005947772368008
s(I22
I52
tp806
F54.299838020968416
s(I30
S'rec_14'
p807
tp808
F14.373144904976908
s(I2
S'rec_4'
p809
tp810
F14.313194352714229
s(S'rec_49'
p811
I83
tp812
F1.48040394993649
s(I28
I22
tp813
F1.4245749981418718
s(S'rec_22'
p814
I41
tp815
F1.4785304951782814
s(S'rec_11'
p816
I35
tp817
F1.4957662789538011
s(I51
I54
tp818
F3.0612250749129646
s(g723
I19
tp819
F1.4197040157705292
s(S'rec_103'
p820
I107
tp821
F1.426823143851722
s(I46
I52
tp822
F254.05507816020952
s(I78
I2
tp823
F1.4305700533681394
s(I57
I60
tp824
F14.346916538361985
s(S'rec_65'
p825
I28
tp826
F1.4331928900296316
s(I46
I43
tp827
F11.114832389500391
s(I2
I78
tp828
F14.305700533681394
s(I66
S'rec_79'
p829
tp830
F14.504286738051514
s(I8
I62
tp831
F0.84567747785539304
s(S'rec_47'
p832
I81
tp833
F1.4005947772368008
s(I40
I42
tp834
F2.7802068611816644
s(S'rec_53'
p835
I4
tp836
F1.3979719405753086
s(I52
I74
tp837
F7.4788313947690055
s(I67
I18
tp838
F1.4099620510278441
s(I41
I43
tp839
F0.13488874259102415
s(I36
I35
tp840
F0.99442978565716134
s(I26
I74
tp841
F6.7931469532646327
s(I2
I79
tp842
F3.1361632652413114
s(I91
I22
tp843
F1.4376891814493324
s(I47
I5
tp844
F1.3852324482194898
s(I86
g774
tp845
F14.313194352714229
s(I10
I9
tp846
F14.320688171747063
s(I43
I45
tp847
F1.2514677784833907
s(S'rec_66'
p848
I29
tp849
F1.4770317313717145
s(I45
I34
tp850
F0.4398871772273954
s(I73
I34
tp851
F25.963460112110656
s(S'rec_89'
p852
I87
tp853
F1.4601706385478364
s(I77
S'rec_84'
p854
tp855
F14.043416867532182
s(I44
I57
tp856
F38.773019675886609
s(I102
I73
tp857
F15.728402077065057
s(I70
g721
tp858
F14.065898324630686
s(I61
I12
tp859
F20.244552117202876
s(I50
I51
tp860
F34.455455840118908
s(I74
I52
tp861
F0.74788313947690055
s(g809
I2
tp862
F1.4313194352714229
s(I22
I55
tp863
F14.316941262230646
s(I1
I0
tp864
F11.341895106195281
s(S'rec_23'
p865
I42
tp866
F1.4279472167066474
s(I62
I102
tp867
F8.2499453732476944
s(g761
I63
tp868
F1.4219521614803796
s(g782
I91
tp869
F1.4556743471281357
s(I88
I18
tp870
F1.4560490380797773
s(I72
S'rec_42'
p871
tp872
F14.107114329311276
s(I17
I18
tp873
F1.4313194352714229
s(I28
g825
tp874
F14.331928900296315
s(I62
I72
tp875
F4.1553226537068273
s(I57
I58
tp876
F0.39380019017546219
s(I76
I77
tp877
F13.968478677203834
s(I54
I50
tp878
F1.1480530758302723
s(I30
I36
tp879
F8.9138977395568464
s(I83
g811
tp880
F14.804039499364901
s(I58
I18
tp881
F1.4152077243508283
s(S'rec_45'
p882
I79
tp883
F1.465041620919179
s(g744
I38
tp884
F1.4245749981418718
s(I88
S'rec_90'
p885
tp886
F14.672897666290293
s(I42
I43
tp887
F0.12364801404177214
s(S'rec_33'
p888
I0
tp889
F1.4590465656929112
s(I61
I62
tp890
F16.686486840412972
s(I43
I34
tp891
F61.699984315892657
s(I81
I1
tp892
F1.0884772145192365
s(I62
I61
tp893
F5.8189504789961255
s(I83
I2
tp894
F0.3020009070232374
s(I6
I87
tp895
F14.48180528095301
s(I12
I62
tp896
F0.8516725330816608
s(g767
I37
tp897
F1.4399373271591829
s(I106
S'rec_102'
p898
tp899
F14.043416867532182
s(S'rec_29'
p900
I12
tp901
F1.4406867090624662
s(I36
I30
tp902
F0.89138977395568464
s(I1
I20
tp903
F11.203259454087839
s(I27
S'rec_64'
p904
tp905
F14.017188500917261
s(I57
S'rec_25'
p906
tp907
F14.174558700606788
s(I18
I67
tp908
F14.099620510278442
s(I99
S'rec_98'
p909
tp910
F14.582971837896277
s(S'rec_80'
p911
I67
tp912
F1.4223268524320214
s(I75
S'rec_26'
p913
tp914
F14.837761685012657
s(I29
I22
tp915
F1.4631681661609703
s(S'rec_61'
p916
I23
tp917
F1.4444336185788835
s(g737
I45
tp918
F1.4485552190469426
s(I3
I5
tp919
F2.8135543558777787
s(I55
S'rec_72'
p920
tp921
F14.504286738051514
s(I46
I40
tp922
F11.820000760490133
s(I53
I51
tp923
F0.29937807036174524
s(S'rec_74'
p924
I59
tp925
F1.4571731109347026
s(I17
S'rec_58'
p926
tp927
F14.399373271591829
s(I2
I82
tp928
F3.0200090702323741
s(S'rec_62'
p929
I24
tp930
F1.5047588617932028
s(I40
I43
tp931
F1.6834864457263097
s(I5
I39
tp932
F14.245749981418717
s(I20
I1
tp933
F1.1203259454087839
s(I1
I81
tp934
F10.884772145192365
s(I18
I17
tp935
F14.313194352714229
s(I51
I76
tp936
F28.060605368449441
s(I34
I44
tp937
F63.540091579405207
s(I8
I7
tp938
F14.69163221387238
s(I22
I28
tp939
F14.245749981418717
s(I107
I93
tp940
F1.417081179109037
s(I18
I43
tp941
F2.3496869577453126
s(I82
I1
tp942
F1.1529240582016147
s(I5
I69
tp943
F14.470564552403758
s(I45
I46
tp944
F0.61711599735393552
s(I84
S'rec_86'
p945
tp946
F14.42560163820675
s(I75
I34
tp947
F92.954455356136236
s(I73
S'rec_20'
p948
tp949
F14.324435081263481
s(I6
S'rec_21'
p950
tp951
F14.680391485323128
s(I39
I5
tp952
F1.4245749981418718
s(S'rec_101'
p953
I105
tp954
F1.4968903518087264
s(I46
S'rec_8'
p955
tp956
F14.388132543042577
s(I3
I4
tp957
F13.882299758326235
s(S'rec_32'
p958
I58
tp959
F1.4740342037585805
s(I2
I51
tp960
F130.57117875525645
s(I26
I52
tp961
F18.982592992073517
s(I40
S'rec_6'
p962
tp963
F14.732848218552972
s(I96
S'rec_95'
p964
tp965
F14.373144904976908
s(I5
I19
tp966
F14.095873600762024
s(I54
I51
tp967
F0.30612250749129649
s(I40
I18
tp968
F12.882998990297732
s(I93
S'rec_50'
p969
tp970
F14.155824153024701
s(g904
I27
tp971
F1.4017188500917259
s(I42
I40
tp972
F0.27802068611816644
s(S'rec_46'
p973
I80
tp974
F1.4122101967376945
s(I18
I34
tp975
F120.10006542067656
s(I67
g911
tp976
F14.223268524320213
s(I72
I62
tp977
F0.41553226537068272
s(I62
I10
tp978
F17.224543046970499
s(g785
I1
tp979
F1.4204533976738127
s(I69
S'rec_82'
p980
tp981
F14.582971837896277
s(I52
I46
tp982
F175.18450629438277
s(I12
g900
tp983
F14.406867090624663
s(I106
I34
tp984
F1.3979719405753086
s(I71
I52
tp985
F0.72764982808824696
s(I52
I26
tp986
F27.663807650660846
s(I10
I101
tp987
F14.395626362075411
s(I50
I54
tp988
F11.480530758302722
s(I56
I22
tp989
F1.4766570404200727
s(I79
g882
tp990
F14.650416209191789
s(I51
I2
tp991
F49.027561640417581
s(S'rec_3'
p992
I18
tp993
F1.400220086285159
s(S'rec_51'
p994
I103
tp995
F1.453800892369927
s(I12
I11
tp996
F14.549249652248522
s(S'rec_54'
p997
I7
tp998
F1.4822774046946987
s(I34
I106
tp999
F13.979719405753086
s(I1
I50
tp1000
F136.95928478979638
s(S'rec_43'
p1001
I74
tp1002
F1.4403120181108247
s(I18
I105
tp1003
F14.87523078017683
s(S'rec_0'
p1004
I22
tp1005
F1.444058927627242
s(S'rec_60'
p1006
I21
tp1007
F1.4691632213872381
s(I46
I41
tp1008
F6.0699934165960867
s(I53
I50
tp1009
F1.100467324971772
s(I102
I16
tp1010
F28.008148635219598
s(I58
I57
tp1011
F3.9380019017546219
s(I35
g816
tp1012
F14.957662789538011
s(I102
I103
tp1013
F4.3051990343635209
s(I94
I22
tp1014
F1.444058927627242
s(I40
I44
tp1015
F9.2361319579687375
s(I21
I22
tp1016
F1.4579224928379861
s(I20
I2
tp1017
F0.31548978128233984
s(I1
I80
tp1018
F10.87727832615953
s(I34
I18
tp1019
F88.391094256091563
s(I0
I2
tp1020
F0.31623916318562328
s(S'rec_34'
p1021
I16
tp1022
F1.3931009582039662
s(I52
I71
tp1023
F7.2764982808824694
s(I42
I46
tp1024
F0.58489257551274643
s(I26
I71
tp1025
F6.8381098674616414
s(I18
I40
tp1026
F6.1958895763477093
s(g909
I99
tp1027
F1.4582971837896277
s(S'rec_39'
p1028
I53
tp1029
F1.4107114329311277
s(I16
g1021
tp1030
F13.93100958203966
s(I73
I104
tp1031
F9.6820141904224002
s(I44
I40
tp1032
F0.92361319579687373
s(I40
I45
tp1033
F2.6078490234264669
s(I5
I68
tp1034
F14.395626362075411
s(I58
g958
tp1035
F14.740342037585807
s(I46
I75
tp1036
F79.559253834944258
s(I76
S'rec_44'
p1037
tp1038
F14.298206714648559
s(I61
I10
tp1039
F39.750963059671534
s(I44
I70
tp1040
F13.942250310588912
s(I74
I26
tp1041
F0.67931469532646327
s(I84
I44
tp1042
F1.4316941262230647
s(I20
S'rec_35'
p1043
tp1044
F14.493046009502262
s(g799
I62
tp1045
F1.4148330333991868
s(I51
I50
tp1046
F9.2039085361275479
s(g885
I88
tp1047
F1.4672897666290294
s(I65
I22
tp1048
F1.4373144904976907
s(I79
I2
tp1049
F0.31361632652413113
s(I100
S'rec_99'
p1050
tp1051
F14.406867090624663
s(I41
I40
tp1052
F0.28476512324771763
s(I29
g848
tp1053
F14.770317313717145
s(S'rec_56'
p1054
I11
tp1055
F1.4631681661609703
s(g945
I84
tp1056
F1.4425601638206749
s(I93
I107
tp1057
F14.170811791090371
s(I48
g751
tp1058
F14.07339214366352
s(g871
I72
tp1059
F1.4107114329311277
s(I5
I47
tp1060
F13.852324482194897
s(S'rec_87'
p1061
I85
tp1062
F1.4601706385478364
s(I85
g1061
tp1063
F14.601706385478364
s(I15
S'rec_57'
p1064
tp1065
F14.414360909657498
s(I31
I35
tp1066
F0.5732771560118527
s(I60
I57
tp1067
F1.4346916538361985
s(S'rec_31'
p1068
I36
tp1069
F1.4609200204511199
s(I87
g852
tp1070
F14.601706385478364
s(I10
I62
tp1071
F1.72245430469705
s(I9
S'rec_55'
p1072
tp1073
F14.38438563352616
s(g1037
I76
tp1074
F1.429820671464856
s(I43
I41
tp1075
F1.3488874259102415
s(I98
I52
tp1076
F1.4238256162385883
s(I35
I31
tp1077
F5.7327715601185263
s(g920
I55
tp1078
F1.4504286738051513
s(S'rec_27'
p1079
I3
tp1080
F1.4500539828535097
s(I42
g865
tp1081
F14.279472167066473
s(I22
I95
tp1082
F14.133342695926197
s(I10
I66
tp1083
F14.373144904976908
s(S'rec_1'
p1084
I34
tp1085
F1.4605453294994781
s(I0
I1
tp1086
F1.1341895106195281
s(I49
I5
tp1087
F1.4601706385478364
s(I43
I42
tp1088
F1.2364801404177215
s(I0
g888
tp1089
F14.590465656929112
s(I52
I22
tp1090
F176.94030809377594
s(S'rec_13'
p1091
I102
tp1092
F1.4616694023544035
s(S'rec_2'
p1093
I5
tp1094
F1.3919768853490408
s(I36
g1068
tp1095
F14.609200204511199
s(I65
g728
tp1096
F14.478058371436592
s(I41
I34
tp1097
F0.44550754150202143
s(I34
I86
tp1098
F14.193293248188875
s(g777
I101
tp1099
F1.4526768195150017
s(I5
I27
tp1100
F13.83358993461281
s(I72
I61
tp1101
F0.98843473043089369
s(I22
I94
tp1102
F14.440589276272419
s(I7
I8
tp1103
F1.4691632213872381
s(S'rec_18'
p1104
I10
tp1105
F1.4373144904976907
s(I102
g1091
tp1106
F14.616694023544033
s(I2
I80
tp1107
F3.1811261794383197
s(I22
I23
tp1108
F14.346916538361985
s(I45
I40
tp1109
F0.26078490234264667
s(I61
I72
tp1110
F9.8843473043089372
s(I18
I64
tp1111
F14.260737619484386
s(I68
I5
tp1112
F1.4395626362075411
s(I23
I22
tp1113
F1.4346916538361985
s(I22
I26
tp1114
F71.940288024261235
s(I102
I75
tp1115
F113.07535945929733
s(S'rec_77'
p1116
I64
tp1117
F1.4301953624164978
s(I34
I42
tp1118
F4.3239335819456075
s(g770
I97
tp1119
F1.414458342447545
s(I33
I35
tp1120
F0.58339381170617943
s(I43
I46
tp1121
F53.730682465424621
s(g731
I44
tp1122
F1.4331928900296316
s(g962
I40
tp1123
F1.4732848218552972
s(I34
g1084
tp1124
F14.605453294994781
s(I62
I12
tp1125
F8.5167253308166089
s(I19
I5
tp1126
F1.4095873600762023
s(I80
g973
tp1127
F14.122101967376945
s(I24
I18
tp1128
F1.48902184182425
s(S'rec_28'
p1129
I8
tp1130
F1.4552996561764939
s(I47
S'rec_69'
p1131
tp1132
F13.94599722010533
s(I51
I26
tp1133
F134.03070031176458
s(I95
g718
tp1134
F14.264484529000804
s(I35
I32
tp1135
F5.9163701264229758
s(S'rec_71'
p1136
I49
tp1137
F1.4759076585167892
s(I8
g1129
tp1138
F14.552996561764939
s(I26
I25
tp1139
F13.882299758326235
s(I22
g1004
tp1140
F14.440589276272419
s(I23
g916
tp1141
F14.444336185788837
s(I102
I5
tp1142
F175.78813341747761
s(I51
I53
tp1143
F2.9937807036174529
s(g1064
I15
tp1144
F1.4414360909657498
s(I4
g835
tp1145
F13.979719405753086
s(S'rec_52'
p1146
I104
tp1147
F1.3777386291866549
s(S'rec_93'
p1148
I94
tp1149
F1.4526768195150017
s(I92
S'rec_92'
p1150
tp1151
F14.451830004821671
s(g854
I77
tp1152
F1.4043416867532181
s(I34
I75
tp1153
F81.400859862263374
s(I92
I22
tp1154
F1.4313194352714229
s(I57
I44
tp1155
F3.8773019675886609
s(I56
g757
tp1156
F14.834014775496239
s(I105
I18
tp1157
F1.4875230780176829
s(I8
I61
tp1158
F2.0634230706910279
s(g980
I69
tp1159
F1.4582971837896277
s(I22
I29
tp1160
F14.631681661609703
s(I74
g1001
tp1161
F14.403120181108246
s(I43
I18
tp1162
F10.884772145192365
s(I102
I62
tp1163
F82.308361347139652
s(S'rec_30'
p1164
I31
tp1165
F1.4519274376117184
s(g913
I75
tp1166
F1.4837761685012656
s(I6
I62
tp1167
F4.3333008557366508
s(I43
I40
tp1168
F1.4406867090624662
s(I81
I2
tp1169
F0.30275028892652089
s(g807
I30
tp1170
F1.4373144904976907
s(I107
g820
tp1171
F14.268231438517221
s(I18
I58
tp1172
F14.152077243508284
s(I73
I61
tp1173
F116.09424445667479
s(I32
S'rec_36'
p1174
tp1175
F14.230762343353048
s(I68
S'rec_81'
p1176
tp1177
F14.508033647567931
s(I75
I46
tp1178
F10.917370257985196
s(I22
I92
tp1179
F14.313194352714229
s(I87
I6
tp1180
F1.4481805280953008
s(I103
I73
tp1181
F1.014663097045815
s(I50
I52
tp1182
F123.09871710666536
s(I5
I99
tp1183
F14.496792919018679
s(S'rec_75'
p1184
I60
tp1185
F1.4384385633526158
s(I44
I84
tp1186
F14.316941262230646
s(I59
g924
tp1187
F14.571731109347025
s(I18
I88
tp1188
F14.560490380797773
s(I98
S'rec_97'
p1189
tp1190
F14.350663447878402
s(I64
I18
tp1191
F1.4260737619484387
s(I26
S'rec_10'
p1192
tp1193
F14.620440933060451
s(I75
I26
tp1194
F112.7624925146765
s(I30
I31
tp1195
F8.6553609829240497
s(g1072
I9
tp1196
F1.4384385633526158
s(g906
I57
tp1197
F1.4174558700606787
s(g969
I93
tp1198
F1.4155824153024701
s(I31
I30
tp1199
F0.86553609829240497
s(I46
I34
tp1200
F154.8826264615787
s(g1043
I20
tp1201
F1.4493046009502262
s(I22
I97
tp1202
F14.050910686565016
s(I2
I81
tp1203
F3.0275028892652087
s(I5
I37
tp1204
F14.328181990779898
s(I40
I46
tp1205
F58.350621899167194
s(I30
I33
tp1206
F8.5467006069479474
s(g749
I43
tp1207
F1.4549249652248522
s(I7
g997
tp1208
F14.822774046946988
s(I102
I104
tp1209
F4.0016993635337164
s(I5
I49
tp1210
F14.601706385478364
s(I35
I33
tp1211
F5.8339381170617948
s(I34
I43
tp1212
F10.625486006656287
s(g1050
I100
tp1213
F1.4406867090624662
s(g1150
I92
tp1214
F1.4451830004821671
s(I80
I1
tp1215
F1.0877278326159532
s(I36
I58
tp1216
F4.4213532293724587
s(g1131
I47
tp1217
F1.3945997220105331
s(I64
g1116
tp1218
F14.301953624164977
s(I83
I1
tp1219
F1.1671623143640006
s(I22
I96
tp1220
F14.294459805132142
s(I45
I43
tp1221
F0.12514677784833908
s(I35
I30
tp1222
F7.2986050470293318
s(I34
I30
tp1223
F59.939311534128151
s(g714
I78
tp1224
F1.4380638724009742
s(I97
I22
tp1225
F1.4050910686565015
s(I37
I5
tp1226
F1.4328181990779898
s(I61
I8
tp1227
F20.634230706910277
s(I11
g1054
tp1228
F14.631681661609703
s(I2
I20
tp1229
F3.154897812823398
s(I76
I51
tp1230
F2.8060605368449441
s(I60
g1184
tp1231
F14.38438563352616
s(I63
I22
tp1232
F1.4163317972057536
s(I52
I50
tp1233
F137.86603689276936
s(I2
I83
tp1234
F3.0200090702323741
s(I26
I51
tp1235
F66.990620553073938
s(I5
I3
tp1236
F28.135543558777787
s(I21
g1006
tp1237
F14.69163221387238
s(I49
g1136
tp1238
F14.759076585167893
s(I22
I56
tp1239
F14.766570404200728
s(I22
I63
tp1240
F14.163317972057536
s(I30
I32
tp1241
F8.2694293027330641
s(I104
I73
tp1242
F0.96820141904224
s(I93
I22
tp1243
F2.8139290468294207
s(I30
I35
tp1244
F17.752482597833705
s(I103
g994
tp1245
F14.53800892369927
s(I35
I38
tp1246
F14.159571062541119
s(g955
I46
tp1247
F1.4388132543042575
s(I43
I44
tp1248
F8.1307936506256233
s(I32
I30
tp1249
F0.82694293027330634
s(I52
S'rec_9'
p1250
tp1251
F14.594212566445529
s(I42
I34
tp1252
F0.43239335819456076
s(I5
g1093
tp1253
F13.919768853490408
s(I86
I34
tp1254
F1.4193293248188874
s(I105
g953
tp1255
F14.968903518087263
s(I82
I2
tp1256
F0.3020009070232374
s(I75
I102
tp1257
F217.56130354315957
s(I41
g814
tp1258
F14.785304951782814
s(I10
g1104
tp1259
F14.373144904976908
s(I53
g1028
tp1260
F14.107114329311276
s(g1192
I26
tp1261
F1.462044093306045
s(I22
I93
tp1262
F28.139290468294206
s(I39
S'rec_68'
p1263
tp1264
F14.373144904976908
s(I50
I53
tp1265
F11.004673249717721
s(g964
I96
tp1266
F1.4373144904976907
s(g898
I106
tp1267
F1.4043416867532181
s(I16
I102
tp1268
F2.8008148635219596
s(I51
S'rec_16'
p1269
tp1270
F14.36939799546049
s(g1176
I68
tp1271
F1.4508033647567931
s(I55
I22
tp1272
F1.4316941262230647
s(I1
I82
tp1273
F11.529240582016147
s(I18
I24
tp1274
F14.890218418242499
s(I34
I45
tp1275
F4.3988717722739539
s(g1174
I32
tp1276
F1.4230762343353047
s(g747
I25
tp1277
F1.3994707043818755
s(I16
I15
tp1278
F14.253243800451552
s(I104
I102
tp1279
F0.40016993635337167
s(I22
I21
tp1280
F14.57922492837986
s(S'rec_41'
p1281
I71
tp1282
F1.4215774705287378
s(I30
I34
tp1283
F5.9939311534128148
s(I41
I46
tp1284
F0.60699934165960867
s(I40
I34
tp1285
F67.535046505809376
s(g1189
I98
tp1286
F1.4350663447878402
s(I96
I22
tp1287
F1.4294459805132143
s(g1250
I52
tp1288
F1.459421256644553
s(I34
I40
tp1289
F11.199512544571421
s(I80
I2
tp1290
F0.31811261794383194
s(I1
I79
tp1291
F11.465543120237053
s(I9
I10
tp1292
F1.4320688171747065
s(g948
I73
tp1293
F1.4324435081263482
s(g829
I66
tp1294
F1.4504286738051513
s(I44
I43
tp1295
F0.81307936506256229
s(I18
g992
tp1296
F14.002200862851589
s(I104
g1146
tp1297
F13.77738629186655
s(I81
g832
tp1298
F14.005947772368007
s(I59
I57
tp1299
F1.4481805280953008
s(I11
I12
tp1300
F1.4549249652248522
s(I71
g1281
tp1301
F14.215774705287378
s(I35
I36
tp1302
F9.9442978565716142
s(I58
I36
tp1303
F0.44213532293724583
s(I6
I100
tp1304
F14.361904176427656
s(I33
g792
tp1305
F14.474311461920175
s(g1263
I39
tp1306
F1.4373144904976907
s(I22
I91
tp1307
F14.376891814493325
s(g1269
I51
tp1308
F1.4369397995460489
s(I26
I22
tp1309
F68.443672063540575
s(I94
g1148
tp1310
F14.526768195150018
s(I2
I0
tp1311
F3.1623916318562331
s(I31
g1164
tp1312
F14.519274376117183
s(g926
I17
tp1313
F1.4399373271591829
s(g950
I6
tp1314
F1.4680391485323128
s(I4
I3
tp1315
F1.3882299758326235
s(I5
I48
tp1316
F14.005947772368007
s(I26
I75
tp1317
F162.95234548708672
s(g755
I82
tp1318
F1.4665403847257459
s(I73
I102
tp1319
F61.465802471116575
s(I24
g929
tp1320
F15.047588617932027
s(I3
g1079
tp1321
F14.500539828535096
ssg659
F75.843837093012411
sg660
g11
(tRp1322
(I52
S'src_9'
p1323
tp1324
F14.839635139770865
s(S'src_5'
p1325
I1
tp1326
F139.46371911056971
s(S'src_4'
p1327
I2
tp1328
F134.43911344905408
s(I40
S'src_6'
p1329
tp1330
F14.270854275178714
s(S'src_1'
p1331
I34
tp1332
F135.58941467059418
s(I5
S'src_2'
p1333
tp1334
F14.2895888227608
s(S'src_0'
p1335
I22
tp1336
F124.07141481712729
s(I43
S'src_7'
p1337
tp1338
F13.392203993578848
s(I2
g1327
tp1339
F13.443911344905407
s(g1333
I5
tp1340
F142.895888227608
s(g1337
I43
tp1341
F133.92203993578849
s(S'src_3'
p1342
I18
tp1343
F131.26548108864858
s(I34
g1331
tp1344
F13.558941467059419
s(I1
g1325
tp1345
F13.946371911056971
s(S'src_8'
p1346
I46
tp1347
F146.22689078770301
s(g1323
I52
tp1348
F148.39635139770866
s(I18
g1342
tp1349
F13.126548108864858
s(I22
g1335
tp1350
F12.407141481712729
s(g1329
I40
tp1351
F142.70854275178712
s(I46
g1346
tp1352
F14.622689078770302
sssg692
g11
(tRp1353
g694
g11
(tRp1354
g1346
F0.097564999999999999
sg1323
F0.099012500000000003
sg1329
F0.095217499999999997
sg1337
F0.089355000000000004
sg1327
F0.089700000000000002
sg1325
F0.093052499999999996
sg1333
F0.095342499999999997
sg1342
F0.087582499999999994
sg1335
F0.082782499999999995
sg1331
F0.090467500000000006
ssg696
g11
(tRp1355
I0
F5.7500000000000002e-05
sI1
F0.00069749999999999999
sI2
F0.0043274999999999997
sI3
F0.000165
sI4
F6.4999999999999994e-05
sI5
F0.0024750000000000002
sI6
F0.00012750000000000001
sI7
F8.7499999999999999e-05
sI8
F0.0001025
sI9
F4.2500000000000003e-05
sI10
F0.00032499999999999999
sI11
F5.5000000000000002e-05
sI12
F0.00012999999999999999
sI15
F0.0001075
sI16
F0.0001175
sI17
F5.7500000000000002e-05
sI18
F0.0014725000000000001
sI19
F6.7500000000000001e-05
sI20
F9.0000000000000006e-05
sI21
F7.4999999999999993e-05
sI22
F0.0011299999999999999
sI23
F6.4999999999999994e-05
sI24
F0.000105
sI25
F7.4999999999999993e-05
sI26
F0.0065925000000000003
sI27
F0.0001225
sI28
F5.7500000000000002e-05
sI29
F9.2499999999999999e-05
sI30
F0.00029
sI31
F8.7499999999999999e-05
sI32
F3.0000000000000001e-05
sI33
F6.2500000000000001e-05
sI34
F0.0028974999999999999
sI35
F0.00055500000000000005
sI36
F0.000115
sI37
F4.7500000000000003e-05
sI38
F5.7500000000000002e-05
sI39
F8.5000000000000006e-05
sI40
F0.0076674999999999998
sI41
F4.2500000000000003e-05
sI42
F6.0000000000000002e-05
sI43
F0.0039424999999999998
sI44
F0.00030499999999999999
sI45
F3.7499999999999997e-05
sI46
F0.015197499999999999
sI47
F6.2500000000000001e-05
sI48
F4.5000000000000003e-05
sI49
F0.000105
sI50
F0.00079750000000000003
sI51
F0.0028774999999999998
sI52
F0.009325
sI53
F7.25e-05
sI54
F5.0000000000000002e-05
sI55
F0.000125
sI56
F4.5000000000000003e-05
sI57
F0.000195
sI58
F6.9999999999999994e-05
sI59
F6.0000000000000002e-05
sI60
F2.5000000000000001e-05
sI61
F0.00040999999999999999
sI62
F0.00098250000000000008
sI63
F3.7499999999999997e-05
sI64
F2.7500000000000001e-05
sI65
F6.9999999999999994e-05
sI66
F8.7499999999999999e-05
sI67
F8.25e-05
sI68
F7.4999999999999993e-05
sI69
F7.4999999999999993e-05
sI70
F8.25e-05
sI71
F6.7500000000000001e-05
sI72
F4.5000000000000003e-05
sI73
F0.0010024999999999999
sI74
F8.7499999999999999e-05
sI75
F0.0078300000000000002
sI76
F0.00013750000000000001
sI77
F5.0000000000000002e-05
sI78
F5.0000000000000002e-05
sI79
F3.2499999999999997e-05
sI80
F4.2500000000000003e-05
sI81
F6.2500000000000001e-05
sI82
F7.75e-05
sI83
F7.4999999999999993e-05
sI84
F7.25e-05
sI85
F4.5000000000000003e-05
sI86
F8.0000000000000007e-05
sI87
F8.0000000000000007e-05
sI88
F7.4999999999999993e-05
sI91
F0.00012
sI92
F9.2499999999999999e-05
sI93
F0.000125
sI94
F5.7500000000000002e-05
sI95
F8.7499999999999999e-05
sI96
F5.2500000000000002e-05
sI97
F6.2500000000000001e-05
sI98
F7.4999999999999993e-05
sI99
F5.7500000000000002e-05
sI100
F3.0000000000000001e-05
sI101
F8.7499999999999999e-05
sI102
F0.0027225000000000001
sI103
F5.7500000000000002e-05
sI104
F6.2500000000000001e-05
sI105
F6.2500000000000001e-05
sI106
F4.2500000000000003e-05
sI107
F6.4999999999999994e-05
ssg43
F0.079922499999999994
sstp1356
atRp1357
sb.