ccopy_reg
_reconstructor
p1
(cicarus.results.readwrite
ResultSet
p2
c__builtin__
object
p3
NtRp4
(dp5
S'attr'
p6
(dp7
sS'_results'
p8
ccollections
deque
p9
((lp10
(cicarus.util
Tree
p11
(tRp12
S'workload'
p13
g11
(tRp14
S'time_interval'
p15
I60
sS'n_contents'
p16
I5000
sS'name'
p17
S'STATIONARY'
p18
sS'n_warmup'
p19
I250
sS'rate'
p20
F100
sS'n_measured'
p21
I750
sS'alpha'
p22
F1
sS'n_segments'
p23
I5000
ssS'cache_policy'
p24
g11
(tRp25
g17
S'LRU'
p26
ssS'strategy'
p27
g11
(tRp28
g17
S'C_LFR_UM'
p29
ssS'content_placement'
p30
g11
(tRp31
g16
I5000
sg17
S'UNIFORM'
p32
sg23
I5000
ssS'cache_placement'
p33
g11
(tRp34
S'network_cache'
p35
F0.001
sS'uCache_budget'
p36
F805
sg17
S'UNIFORM_WITH_UCACHE'
p37
sS'nCache_budget'
p38
F0
ssS'desc'
p39
S'strategy: C_LFR_UM, time interval: 60, network cache: 0.001'
p40
sS'topology'
p41
g11
(tRp42
S'asn'
p43
I3257
sg17
S'ROCKET_FUEL_WITH_UCACHE'
p44
ssg11
(tRp45
S'LATENCY'
p46
g11
(tRp47
S'MEAN'
p48
F87.406288000000004
ssS'CACHING_EFFICIENCY'
p49
g11
(tRp50
g48
F22.666666666666668
ssS'SEGMENT_PERFORMANCE_DIFFERENCE'
p51
g11
(tRp52
S'CV'
p53
cnumpy.core.multiarray
scalar
p54
(cnumpy
dtype
p55
(S'f8'
I0
I1
tRp56
(I3
S'<'
NNNI-1
I-1
I0
tbS'\x00\x00\x00\x00\x00\x00\x00\x00'
tRp57
ssS'OVERHEAD_DISTRIBUTION'
p58
g11
(tRp59
g53
g54
(g56
S'x\xfet\r\xdbu\xde?'
tRp60
ssS'CACHE_EVICTION'
p61
g11
(tRp62
g48
I0
ssS'CACHE_HIT_RATIO'
p63
g11
(tRp64
g48
F0.00099733333333333336
sstp65
a(g11
(tRp66
S'workload'
p67
g11
(tRp68
S'time_interval'
p69
I60
sS'n_contents'
p70
I5000
sS'name'
p71
S'STATIONARY'
p72
sS'n_warmup'
p73
I250
sS'rate'
p74
F100
sS'n_measured'
p75
I750
sS'alpha'
p76
F1
sS'n_segments'
p77
I5000
ssS'cache_policy'
p78
g11
(tRp79
g71
S'LRU'
p80
ssS'strategy'
p81
g11
(tRp82
g71
S'C_LFR_UM'
p83
ssS'content_placement'
p84
g11
(tRp85
g70
I5000
sg71
S'UNIFORM'
p86
sg77
I5000
ssS'cache_placement'
p87
g11
(tRp88
S'network_cache'
p89
F0.10000000000000001
sS'uCache_budget'
p90
F80500
sg71
S'UNIFORM_WITH_UCACHE'
p91
sS'nCache_budget'
p92
F0
ssS'desc'
p93
S'strategy: C_LFR_UM, time interval: 60, network cache: 0.1'
p94
sS'topology'
p95
g11
(tRp96
S'asn'
p97
I3257
sg71
S'ROCKET_FUEL_WITH_UCACHE'
p98
ssg11
(tRp99
S'LATENCY'
p100
g11
(tRp101
S'MEAN'
p102
F80.484533333333331
ssS'CACHING_EFFICIENCY'
p103
g11
(tRp104
g102
F19.736842105263158
ssS'SEGMENT_PERFORMANCE_DIFFERENCE'
p105
g11
(tRp106
S'CV'
p107
g54
(g56
S'\x00\x00\x00\x00\x00\x00\x00\x00'
tRp108
ssS'OVERHEAD_DISTRIBUTION'
p109
g11
(tRp110
g107
g54
(g56
S'\x8b\xf5\x16R\xb1q\xe0?'
tRp111
ssS'CACHE_EVICTION'
p112
g11
(tRp113
g102
I0
ssS'CACHE_HIT_RATIO'
p114
g11
(tRp115
g102
F0.10000000000000001
sstp116
a(g11
(tRp117
S'workload'
p118
g11
(tRp119
S'time_interval'
p120
I60
sS'n_contents'
p121
I5000
sS'name'
p122
S'STATIONARY'
p123
sS'n_warmup'
p124
I250
sS'rate'
p125
F100
sS'n_measured'
p126
I750
sS'alpha'
p127
F1
sS'n_segments'
p128
I5000
ssS'cache_policy'
p129
g11
(tRp130
g122
S'LRU'
p131
ssS'strategy'
p132
g11
(tRp133
g122
S'C_LFR_UM'
p134
ssS'content_placement'
p135
g11
(tRp136
g121
I5000
sg122
S'UNIFORM'
p137
sg128
I5000
ssS'cache_placement'
p138
g11
(tRp139
S'network_cache'
p140
F0.20000000000000001
sS'uCache_budget'
p141
F161000
sg122
S'UNIFORM_WITH_UCACHE'
p142
sS'nCache_budget'
p143
F0
ssS'desc'
p144
S'strategy: C_LFR_UM, time interval: 60, network cache: 0.2'
p145
sS'topology'
p146
g11
(tRp147
S'asn'
p148
I3257
sg122
S'ROCKET_FUEL_WITH_UCACHE'
p149
ssg11
(tRp150
S'LATENCY'
p151
g11
(tRp152
S'MEAN'
p153
F72.16106666666667
ssS'CACHING_EFFICIENCY'
p154
g11
(tRp155
g153
F22.636363636363637
ssS'SEGMENT_PERFORMANCE_DIFFERENCE'
p156
g11
(tRp157
S'CV'
p158
g54
(g56
S'\x00\x00\x00\x00\x00\x00\x00\x00'
tRp159
ssS'OVERHEAD_DISTRIBUTION'
p160
g11
(tRp161
g158
g54
(g56
S'\xde\xb9\xaf\x04\xb5\x11\xe0?'
tRp162
ssS'CACHE_EVICTION'
p163
g11
(tRp164
g153
I0
ssS'CACHE_HIT_RATIO'
p165
g11
(tRp166
g153
F0.19919999999999999
sstp167
a(g11
(tRp168
S'workload'
p169
g11
(tRp170
S'time_interval'
p171
I60
sS'n_contents'
p172
I5000
sS'name'
p173
S'STATIONARY'
p174
sS'n_warmup'
p175
I250
sS'rate'
p176
F100
sS'n_measured'
p177
I750
sS'alpha'
p178
F1
sS'n_segments'
p179
I5000
ssS'cache_policy'
p180
g11
(tRp181
g173
S'LRU'
p182
ssS'strategy'
p183
g11
(tRp184
g173
S'C_LFR_UM'
p185
ssS'content_placement'
p186
g11
(tRp187
g172
I5000
sg173
S'UNIFORM'
p188
sg179
I5000
ssS'cache_placement'
p189
g11
(tRp190
S'network_cache'
p191
F0.29999999999999999
sS'uCache_budget'
p192
F241500
sg173
S'UNIFORM_WITH_UCACHE'
p193
sS'nCache_budget'
p194
F0
ssS'desc'
p195
S'strategy: C_LFR_UM, time interval: 60, network cache: 0.3'
p196
sS'topology'
p197
g11
(tRp198
S'asn'
p199
I3257
sg173
S'ROCKET_FUEL_WITH_UCACHE'
p200
ssg11
(tRp201
S'LATENCY'
p202
g11
(tRp203
S'MEAN'
p204
F61.930666666666667
ssS'CACHING_EFFICIENCY'
p205
g11
(tRp206
g204
F28.807692307692307
ssS'SEGMENT_PERFORMANCE_DIFFERENCE'
p207
g11
(tRp208
S'CV'
p209
g54
(g56
S'\x00\x00\x00\x00\x00\x00\x00\x00'
tRp210
ssS'OVERHEAD_DISTRIBUTION'
p211
g11
(tRp212
g209
g54
(g56
S'2\xb6]c\xe1\xcd\xdc?'
tRp213
ssS'CACHE_EVICTION'
p214
g11
(tRp215
g204
I0
ssS'CACHE_HIT_RATIO'
p216
g11
(tRp217
g204
F0.29959999999999998
sstp218
a(g11
(tRp219
S'workload'
p220
g11
(tRp221
S'time_interval'
p222
I60
sS'n_contents'
p223
I5000
sS'name'
p224
S'STATIONARY'
p225
sS'n_warmup'
p226
I250
sS'rate'
p227
F100
sS'n_measured'
p228
I750
sS'alpha'
p229
F1
sS'n_segments'
p230
I5000
ssS'cache_policy'
p231
g11
(tRp232
g224
S'LRU'
p233
ssS'strategy'
p234
g11
(tRp235
g224
S'C_LFR_UM'
p236
ssS'content_placement'
p237
g11
(tRp238
g223
I5000
sg224
S'UNIFORM'
p239
sg230
I5000
ssS'cache_placement'
p240
g11
(tRp241
S'network_cache'
p242
F1
sS'uCache_budget'
p243
F805000
sg224
S'UNIFORM_WITH_UCACHE'
p244
sS'nCache_budget'
p245
F0
ssS'desc'
p246
S'strategy: C_LFR_UM, time interval: 60, network cache: 1.0'
p247
sS'topology'
p248
g11
(tRp249
S'asn'
p250
I3257
sg224
S'ROCKET_FUEL_WITH_UCACHE'
p251
ssg11
(tRp252
S'LATENCY'
p253
g11
(tRp254
S'MEAN'
p255
F0.62666666666666671
ssS'CACHING_EFFICIENCY'
p256
g11
(tRp257
g255
F21.37142857142857
ssS'SEGMENT_PERFORMANCE_DIFFERENCE'
p258
g11
(tRp259
S'CV'
p260
g54
(g56
S'\x00\x00\x00\x00\x00\x00\x00\x00'
tRp261
ssS'OVERHEAD_DISTRIBUTION'
p262
g11
(tRp263
g260
g54
(g56
S'$\xd6l\xcb\x8bI\xdd?'
tRp264
ssS'CACHE_EVICTION'
p265
g11
(tRp266
g255
I0
ssS'CACHE_HIT_RATIO'
p267
g11
(tRp268
g255
F0.99733333333333329
sstp269
a(g11
(tRp270
S'workload'
p271
g11
(tRp272
S'time_interval'
p273
I60
sS'n_contents'
p274
I5000
sS'name'
p275
S'STATIONARY'
p276
sS'n_warmup'
p277
I250
sS'rate'
p278
F100
sS'n_measured'
p279
I750
sS'alpha'
p280
F1
sS'n_segments'
p281
I5000
ssS'cache_policy'
p282
g11
(tRp283
g275
S'LRU'
p284
ssS'strategy'
p285
g11
(tRp286
g275
S'C_LFR_UM'
p287
ssS'content_placement'
p288
g11
(tRp289
g274
I5000
sg275
S'UNIFORM'
p290
sg281
I5000
ssS'cache_placement'
p291
g11
(tRp292
S'network_cache'
p293
F0.69999999999999996
sS'uCache_budget'
p294
F563500
sg275
S'UNIFORM_WITH_UCACHE'
p295
sS'nCache_budget'
p296
F0
ssS'desc'
p297
S'strategy: C_LFR_UM, time interval: 60, network cache: 0.7'
p298
sS'topology'
p299
g11
(tRp300
S'asn'
p301
I3257
sg275
S'ROCKET_FUEL_WITH_UCACHE'
p302
ssg11
(tRp303
S'LATENCY'
p304
g11
(tRp305
S'MEAN'
p306
F28.689866666666667
ssS'CACHING_EFFICIENCY'
p307
g11
(tRp308
g306
F20.216216216216218
ssS'SEGMENT_PERFORMANCE_DIFFERENCE'
p309
g11
(tRp310
S'CV'
p311
g54
(g56
S'\x00\x00\x00\x00\x00\x00\x00\x00'
tRp312
ssS'OVERHEAD_DISTRIBUTION'
p313
g11
(tRp314
g311
g54
(g56
S'hXN\xa5\xb0\xab\xde?'
tRp315
ssS'CACHE_EVICTION'
p316
g11
(tRp317
g306
I0
ssS'CACHE_HIT_RATIO'
p318
g11
(tRp319
g306
F0.69813333333333338
sstp320
a(g11
(tRp321
S'workload'
p322
g11
(tRp323
S'time_interval'
p324
I60
sS'n_contents'
p325
I5000
sS'name'
p326
S'STATIONARY'
p327
sS'n_warmup'
p328
I250
sS'rate'
p329
F100
sS'n_measured'
p330
I750
sS'alpha'
p331
F1
sS'n_segments'
p332
I5000
ssS'cache_policy'
p333
g11
(tRp334
g326
S'LRU'
p335
ssS'strategy'
p336
g11
(tRp337
g326
S'C_LFR_UM'
p338
ssS'content_placement'
p339
g11
(tRp340
g325
I5000
sg326
S'UNIFORM'
p341
sg332
I5000
ssS'cache_placement'
p342
g11
(tRp343
S'network_cache'
p344
F0.80000000000000004
sS'uCache_budget'
p345
F644000
sg326
S'UNIFORM_WITH_UCACHE'
p346
sS'nCache_budget'
p347
F0
ssS'desc'
p348
S'strategy: C_LFR_UM, time interval: 60, network cache: 0.8'
p349
sS'topology'
p350
g11
(tRp351
S'asn'
p352
I3257
sg326
S'ROCKET_FUEL_WITH_UCACHE'
p353
ssg11
(tRp354
S'LATENCY'
p355
g11
(tRp356
S'MEAN'
p357
F18.805333333333333
ssS'CACHING_EFFICIENCY'
p358
g11
(tRp359
g357
F26.75
ssS'SEGMENT_PERFORMANCE_DIFFERENCE'
p360
g11
(tRp361
S'CV'
p362
g54
(g56
S'\x00\x00\x00\x00\x00\x00\x00\x00'
tRp363
ssS'OVERHEAD_DISTRIBUTION'
p364
g11
(tRp365
g362
g54
(g56
S'\xb1\x8d\xc2\x94>r\xdb?'
tRp366
ssS'CACHE_EVICTION'
p367
g11
(tRp368
g357
I0
ssS'CACHE_HIT_RATIO'
p369
g11
(tRp370
g357
F0.79893333333333338
sstp371
a(g11
(tRp372
S'workload'
p373
g11
(tRp374
S'time_interval'
p375
I60
sS'n_contents'
p376
I5000
sS'name'
p377
S'STATIONARY'
p378
sS'n_warmup'
p379
I250
sS'rate'
p380
F100
sS'n_measured'
p381
I750
sS'alpha'
p382
F1
sS'n_segments'
p383
I5000
ssS'cache_policy'
p384
g11
(tRp385
g377
S'LRU'
p386
ssS'strategy'
p387
g11
(tRp388
g377
S'C_LFR_UM'
p389
ssS'content_placement'
p390
g11
(tRp391
g376
I5000
sg377
S'UNIFORM'
p392
sg383
I5000
ssS'cache_placement'
p393
g11
(tRp394
S'network_cache'
p395
F0.90000000000000002
sS'uCache_budget'
p396
F724500
sg377
S'UNIFORM_WITH_UCACHE'
p397
sS'nCache_budget'
p398
F0
ssS'desc'
p399
S'strategy: C_LFR_UM, time interval: 60, network cache: 0.9'
p400
sS'topology'
p401
g11
(tRp402
S'asn'
p403
I3257
sg377
S'ROCKET_FUEL_WITH_UCACHE'
p404
ssg11
(tRp405
S'LATENCY'
p406
g11
(tRp407
S'MEAN'
p408
F8.978133333333334
ssS'CACHING_EFFICIENCY'
p409
g11
(tRp410
g408
F21.428571428571427
ssS'SEGMENT_PERFORMANCE_DIFFERENCE'
p411
g11
(tRp412
S'CV'
p413
g54
(g56
S'\x00\x00\x00\x00\x00\x00\x00\x00'
tRp414
ssS'OVERHEAD_DISTRIBUTION'
p415
g11
(tRp416
g413
g54
(g56
S't\xfambP\xb4\xde?'
tRp417
ssS'CACHE_EVICTION'
p418
g11
(tRp419
g408
I0
ssS'CACHE_HIT_RATIO'
p420
g11
(tRp421
g408
F0.90000000000000002
sstp422
a(g11
(tRp423
S'workload'
p424
g11
(tRp425
S'time_interval'
p426
I60
sS'n_contents'
p427
I5000
sS'name'
p428
S'STATIONARY'
p429
sS'n_warmup'
p430
I250
sS'rate'
p431
F100
sS'n_measured'
p432
I750
sS'alpha'
p433
F1
sS'n_segments'
p434
I5000
ssS'cache_policy'
p435
g11
(tRp436
g428
S'LRU'
p437
ssS'strategy'
p438
g11
(tRp439
g428
S'C_LFR_UM'
p440
ssS'content_placement'
p441
g11
(tRp442
g427
I5000
sg428
S'UNIFORM'
p443
sg434
I5000
ssS'cache_placement'
p444
g11
(tRp445
S'network_cache'
p446
F0.40000000000000002
sS'uCache_budget'
p447
F322000
sg428
S'UNIFORM_WITH_UCACHE'
p448
sS'nCache_budget'
p449
F0
ssS'desc'
p450
S'strategy: C_LFR_UM, time interval: 60, network cache: 0.4'
p451
sS'topology'
p452
g11
(tRp453
S'asn'
p454
I3257
sg428
S'ROCKET_FUEL_WITH_UCACHE'
p455
ssg11
(tRp456
S'LATENCY'
p457
g11
(tRp458
S'MEAN'
p459
F53.668799999999997
ssS'CACHING_EFFICIENCY'
p460
g11
(tRp461
g459
F26.678571428571427
ssS'SEGMENT_PERFORMANCE_DIFFERENCE'
p462
g11
(tRp463
S'CV'
p464
g54
(g56
S'\x00\x00\x00\x00\x00\x00\x00\x00'
tRp465
ssS'OVERHEAD_DISTRIBUTION'
p466
g11
(tRp467
g464
g54
(g56
S'\x07e\xe2\x94\xc4\xc6\xdc?'
tRp468
ssS'CACHE_EVICTION'
p469
g11
(tRp470
g459
I0
ssS'CACHE_HIT_RATIO'
p471
g11
(tRp472
g459
F0.39839999999999998
sstp473
a(g11
(tRp474
S'workload'
p475
g11
(tRp476
S'time_interval'
p477
I60
sS'n_contents'
p478
I5000
sS'name'
p479
S'STATIONARY'
p480
sS'n_warmup'
p481
I250
sS'rate'
p482
F100
sS'n_measured'
p483
I750
sS'alpha'
p484
F1
sS'n_segments'
p485
I5000
ssS'cache_policy'
p486
g11
(tRp487
g479
S'LRU'
p488
ssS'strategy'
p489
g11
(tRp490
g479
S'C_LFR_UM'
p491
ssS'content_placement'
p492
g11
(tRp493
g478
I5000
sg479
S'UNIFORM'
p494
sg485
I5000
ssS'cache_placement'
p495
g11
(tRp496
S'network_cache'
p497
F0.59999999999999998
sS'uCache_budget'
p498
F483000
sg479
S'UNIFORM_WITH_UCACHE'
p499
sS'nCache_budget'
p500
F0
ssS'desc'
p501
S'strategy: C_LFR_UM, time interval: 60, network cache: 0.6'
p502
sS'topology'
p503
g11
(tRp504
S'asn'
p505
I3257
sg479
S'ROCKET_FUEL_WITH_UCACHE'
p506
ssg11
(tRp507
S'LATENCY'
p508
g11
(tRp509
S'MEAN'
p510
F36.681066666666666
ssS'CACHING_EFFICIENCY'
p511
g11
(tRp512
g510
F18.675000000000001
ssS'SEGMENT_PERFORMANCE_DIFFERENCE'
p513
g11
(tRp514
S'CV'
p515
g54
(g56
S'\x00\x00\x00\x00\x00\x00\x00\x00'
tRp516
ssS'OVERHEAD_DISTRIBUTION'
p517
g11
(tRp518
g515
g54
(g56
S'\\Ex\x0c\xf3\x12\xe0?'
tRp519
ssS'CACHE_EVICTION'
p520
g11
(tRp521
g510
I0
ssS'CACHE_HIT_RATIO'
p522
g11
(tRp523
g510
F0.59760000000000002
sstp524
a(g11
(tRp525
S'workload'
p526
g11
(tRp527
S'time_interval'
p528
I60
sS'n_contents'
p529
I5000
sS'name'
p530
S'STATIONARY'
p531
sS'n_warmup'
p532
I250
sS'rate'
p533
F100
sS'n_measured'
p534
I750
sS'alpha'
p535
F1
sS'n_segments'
p536
I5000
ssS'cache_policy'
p537
g11
(tRp538
g530
S'LRU'
p539
ssS'strategy'
p540
g11
(tRp541
g530
S'C_LFR_UM'
p542
ssS'content_placement'
p543
g11
(tRp544
g529
I5000
sg530
S'UNIFORM'
p545
sg536
I5000
ssS'cache_placement'
p546
g11
(tRp547
S'network_cache'
p548
F0.5
sS'uCache_budget'
p549
F402500
sg530
S'UNIFORM_WITH_UCACHE'
p550
sS'nCache_budget'
p551
F0
ssS'desc'
p552
S'strategy: C_LFR_UM, time interval: 60, network cache: 0.5'
p553
sS'topology'
p554
g11
(tRp555
S'asn'
p556
I3257
sg530
S'ROCKET_FUEL_WITH_UCACHE'
p557
ssg11
(tRp558
S'LATENCY'
p559
g11
(tRp560
S'MEAN'
p561
F43.281333333333336
ssS'CACHING_EFFICIENCY'
p562
g11
(tRp563
g561
F19.736842105263158
ssS'SEGMENT_PERFORMANCE_DIFFERENCE'
p564
g11
(tRp565
S'CV'
p566
g54
(g56
S'\x00\x00\x00\x00\x00\x00\x00\x00'
tRp567
ssS'OVERHEAD_DISTRIBUTION'
p568
g11
(tRp569
g566
g54
(g56
S'\xa8\xc5(D\x0cl\xdd?'
tRp570
ssS'CACHE_EVICTION'
p571
g11
(tRp572
g561
I0
ssS'CACHE_HIT_RATIO'
p573
g11
(tRp574
g561
F0.5
sstp575
a(g11
(tRp576
S'workload'
p577
g11
(tRp578
S'time_interval'
p579
I60
sS'n_contents'
p580
I5000
sS'name'
p581
S'STATIONARY'
p582
sS'n_warmup'
p583
I250
sS'rate'
p584
F100
sS'n_measured'
p585
I750
sS'alpha'
p586
F1
sS'n_segments'
p587
I5000
ssS'cache_policy'
p588
g11
(tRp589
g581
S'LRU'
p590
ssS'strategy'
p591
g11
(tRp592
g581
S'C_LCF_UM'
p593
ssS'content_placement'
p594
g11
(tRp595
g580
I5000
sg581
S'UNIFORM'
p596
sg587
I5000
ssS'cache_placement'
p597
g11
(tRp598
S'network_cache'
p599
F0.001
sS'uCache_budget'
p600
F805
sg581
S'UNIFORM_WITH_UCACHE'
p601
sS'nCache_budget'
p602
F0
ssS'desc'
p603
S'strategy: C_LCF_UM, time interval: 60, network cache: 0.001'
p604
sS'topology'
p605
g11
(tRp606
S'asn'
p607
I3257
sg581
S'ROCKET_FUEL_WITH_UCACHE'
p608
ssg11
(tRp609
S'LATENCY'
p610
g11
(tRp611
S'MEAN'
p612
F88.613501333333332
ssS'CACHING_EFFICIENCY'
p613
g11
(tRp614
g612
F21.911764705882351
ssS'SEGMENT_PERFORMANCE_DIFFERENCE'
p615
g11
(tRp616
S'CV'
p617
g54
(g56
S'\x00\x00\x00\x00\x00\x00\x00\x00'
tRp618
ssS'OVERHEAD_DISTRIBUTION'
p619
g11
(tRp620
g617
g54
(g56
S'\xc7\xd1|\xfd\xd8\xaa\xde?'
tRp621
ssS'CACHE_EVICTION'
p622
g11
(tRp623
g612
I0
ssS'CACHE_HIT_RATIO'
p624
g11
(tRp625
g612
F0.00099333333333333326
sstp626
a(g11
(tRp627
S'workload'
p628
g11
(tRp629
S'time_interval'
p630
I60
sS'n_contents'
p631
I5000
sS'name'
p632
S'STATIONARY'
p633
sS'n_warmup'
p634
I250
sS'rate'
p635
F100
sS'n_measured'
p636
I750
sS'alpha'
p637
F1
sS'n_segments'
p638
I5000
ssS'cache_policy'
p639
g11
(tRp640
g632
S'LRU'
p641
ssS'strategy'
p642
g11
(tRp643
g632
S'C_LCF_UM'
p644
ssS'content_placement'
p645
g11
(tRp646
g631
I5000
sg632
S'UNIFORM'
p647
sg638
I5000
ssS'cache_placement'
p648
g11
(tRp649
S'network_cache'
p650
F0.10000000000000001
sS'uCache_budget'
p651
F80500
sg632
S'UNIFORM_WITH_UCACHE'
p652
sS'nCache_budget'
p653
F0
ssS'desc'
p654
S'strategy: C_LCF_UM, time interval: 60, network cache: 0.1'
p655
sS'topology'
p656
g11
(tRp657
S'asn'
p658
I3257
sg632
S'ROCKET_FUEL_WITH_UCACHE'
p659
ssg11
(tRp660
S'LATENCY'
p661
g11
(tRp662
S'MEAN'
p663
F78.80746666666667
ssS'CACHING_EFFICIENCY'
p664
g11
(tRp665
g663
F27.666666666666668
ssS'SEGMENT_PERFORMANCE_DIFFERENCE'
p666
g11
(tRp667
S'CV'
p668
g54
(g56
S'\x00\x00\x00\x00\x00\x00\x00\x00'
tRp669
ssS'OVERHEAD_DISTRIBUTION'
p670
g11
(tRp671
g668
g54
(g56
S'\xa3\x15\xdboIM\xdf?'
tRp672
ssS'CACHE_EVICTION'
p673
g11
(tRp674
g663
I0
ssS'CACHE_HIT_RATIO'
p675
g11
(tRp676
g663
F0.099599999999999994
sstp677
a(g11
(tRp678
S'workload'
p679
g11
(tRp680
S'time_interval'
p681
I60
sS'n_contents'
p682
I5000
sS'name'
p683
S'STATIONARY'
p684
sS'n_warmup'
p685
I250
sS'rate'
p686
F100
sS'n_measured'
p687
I750
sS'alpha'
p688
F1
sS'n_segments'
p689
I5000
ssS'cache_policy'
p690
g11
(tRp691
g683
S'LRU'
p692
ssS'strategy'
p693
g11
(tRp694
g683
S'C_LCF_UM'
p695
ssS'content_placement'
p696
g11
(tRp697
g682
I5000
sg683
S'UNIFORM'
p698
sg689
I5000
ssS'cache_placement'
p699
g11
(tRp700
S'network_cache'
p701
F0.20000000000000001
sS'uCache_budget'
p702
F161000
sg683
S'UNIFORM_WITH_UCACHE'
p703
sS'nCache_budget'
p704
F0
ssS'desc'
p705
S'strategy: C_LCF_UM, time interval: 60, network cache: 0.2'
p706
sS'topology'
p707
g11
(tRp708
S'asn'
p709
I3257
sg683
S'ROCKET_FUEL_WITH_UCACHE'
p710
ssg11
(tRp711
S'LATENCY'
p712
g11
(tRp713
S'MEAN'
p714
F70.692800000000005
ssS'CACHING_EFFICIENCY'
p715
g11
(tRp716
g714
F24.129032258064516
ssS'SEGMENT_PERFORMANCE_DIFFERENCE'
p717
g11
(tRp718
S'CV'
p719
g54
(g56
S'\x00\x00\x00\x00\x00\x00\x00\x00'
tRp720
ssS'OVERHEAD_DISTRIBUTION'
p721
g11
(tRp722
g719
g54
(g56
S'\xe7!7\xbfO;\xdb?'
tRp723
ssS'CACHE_EVICTION'
p724
g11
(tRp725
g714
I0
ssS'CACHE_HIT_RATIO'
p726
g11
(tRp727
g714
F0.19946666666666665
sstp728
a(g11
(tRp729
S'workload'
p730
g11
(tRp731
S'time_interval'
p732
I60
sS'n_contents'
p733
I5000
sS'name'
p734
S'STATIONARY'
p735
sS'n_warmup'
p736
I250
sS'rate'
p737
F100
sS'n_measured'
p738
I750
sS'alpha'
p739
F1
sS'n_segments'
p740
I5000
ssS'cache_policy'
p741
g11
(tRp742
g734
S'LRU'
p743
ssS'strategy'
p744
g11
(tRp745
g734
S'C_LCF_UM'
p746
ssS'content_placement'
p747
g11
(tRp748
g733
I5000
sg734
S'UNIFORM'
p749
sg740
I5000
ssS'cache_placement'
p750
g11
(tRp751
S'network_cache'
p752
F1
sS'uCache_budget'
p753
F805000
sg734
S'UNIFORM_WITH_UCACHE'
p754
sS'nCache_budget'
p755
F0
ssS'desc'
p756
S'strategy: C_LCF_UM, time interval: 60, network cache: 1.0'
p757
sS'topology'
p758
g11
(tRp759
S'asn'
p760
I3257
sg734
S'ROCKET_FUEL_WITH_UCACHE'
p761
ssg11
(tRp762
S'LATENCY'
p763
g11
(tRp764
S'MEAN'
p765
F0.73333333333333328
ssS'CACHING_EFFICIENCY'
p766
g11
(tRp767
g765
F21.970588235294116
ssS'SEGMENT_PERFORMANCE_DIFFERENCE'
p768
g11
(tRp769
S'CV'
p770
g54
(g56
S'\x00\x00\x00\x00\x00\x00\x00\x00'
tRp771
ssS'OVERHEAD_DISTRIBUTION'
p772
g11
(tRp773
g770
g54
(g56
S'\x06\x8b\xcc\x05\x89\xdc\xdf?'
tRp774
ssS'CACHE_EVICTION'
p775
g11
(tRp776
g765
I0
ssS'CACHE_HIT_RATIO'
p777
g11
(tRp778
g765
F0.996
sstp779
a(g11
(tRp780
S'workload'
p781
g11
(tRp782
S'time_interval'
p783
I60
sS'n_contents'
p784
I5000
sS'name'
p785
S'STATIONARY'
p786
sS'n_warmup'
p787
I250
sS'rate'
p788
F100
sS'n_measured'
p789
I750
sS'alpha'
p790
F1
sS'n_segments'
p791
I5000
ssS'cache_policy'
p792
g11
(tRp793
g785
S'LRU'
p794
ssS'strategy'
p795
g11
(tRp796
g785
S'C_LCF_UM'
p797
ssS'content_placement'
p798
g11
(tRp799
g784
I5000
sg785
S'UNIFORM'
p800
sg791
I5000
ssS'cache_placement'
p801
g11
(tRp802
S'network_cache'
p803
F0.80000000000000004
sS'uCache_budget'
p804
F644000
sg785
S'UNIFORM_WITH_UCACHE'
p805
sS'nCache_budget'
p806
F0
ssS'desc'
p807
S'strategy: C_LCF_UM, time interval: 60, network cache: 0.8'
p808
sS'topology'
p809
g11
(tRp810
S'asn'
p811
I3257
sg785
S'ROCKET_FUEL_WITH_UCACHE'
p812
ssg11
(tRp813
S'LATENCY'
p814
g11
(tRp815
S'MEAN'
p816
F18.993600000000001
ssS'CACHING_EFFICIENCY'
p817
g11
(tRp818
g816
F22.636363636363637
ssS'SEGMENT_PERFORMANCE_DIFFERENCE'
p819
g11
(tRp820
S'CV'
p821
g54
(g56
S'\x00\x00\x00\x00\x00\x00\x00\x00'
tRp822
ssS'OVERHEAD_DISTRIBUTION'
p823
g11
(tRp824
g821
g54
(g56
S'\xd4H|`\xc2\xd7\xdc?'
tRp825
ssS'CACHE_EVICTION'
p826
g11
(tRp827
g816
I0
ssS'CACHE_HIT_RATIO'
p828
g11
(tRp829
g816
F0.79679999999999995
sstp830
a(g11
(tRp831
S'workload'
p832
g11
(tRp833
S'time_interval'
p834
I60
sS'n_contents'
p835
I5000
sS'name'
p836
S'STATIONARY'
p837
sS'n_warmup'
p838
I250
sS'rate'
p839
F100
sS'n_measured'
p840
I750
sS'alpha'
p841
F1
sS'n_segments'
p842
I5000
ssS'cache_policy'
p843
g11
(tRp844
g836
S'LRU'
p845
ssS'strategy'
p846
g11
(tRp847
g836
S'C_LCF_UM'
p848
ssS'content_placement'
p849
g11
(tRp850
g835
I5000
sg836
S'UNIFORM'
p851
sg842
I5000
ssS'cache_placement'
p852
g11
(tRp853
S'network_cache'
p854
F0.29999999999999999
sS'uCache_budget'
p855
F241500
sg836
S'UNIFORM_WITH_UCACHE'
p856
sS'nCache_budget'
p857
F0
ssS'desc'
p858
S'strategy: C_LCF_UM, time interval: 60, network cache: 0.3'
p859
sS'topology'
p860
g11
(tRp861
S'asn'
p862
I3257
sg836
S'ROCKET_FUEL_WITH_UCACHE'
p863
ssg11
(tRp864
S'LATENCY'
p865
g11
(tRp866
S'MEAN'
p867
F60.308533333333337
ssS'CACHING_EFFICIENCY'
p868
g11
(tRp869
g867
F23.4375
ssS'SEGMENT_PERFORMANCE_DIFFERENCE'
p870
g11
(tRp871
S'CV'
p872
g54
(g56
S'\x00\x00\x00\x00\x00\x00\x00\x00'
tRp873
ssS'OVERHEAD_DISTRIBUTION'
p874
g11
(tRp875
g872
g54
(g56
S'\x16T\x86<\x15u\xdc?'
tRp876
ssS'CACHE_EVICTION'
p877
g11
(tRp878
g867
I0
ssS'CACHE_HIT_RATIO'
p879
g11
(tRp880
g867
F0.29999999999999999
sstp881
a(g11
(tRp882
S'workload'
p883
g11
(tRp884
S'time_interval'
p885
I60
sS'n_contents'
p886
I5000
sS'name'
p887
S'STATIONARY'
p888
sS'n_warmup'
p889
I250
sS'rate'
p890
F100
sS'n_measured'
p891
I750
sS'alpha'
p892
F1
sS'n_segments'
p893
I5000
ssS'cache_policy'
p894
g11
(tRp895
g887
S'LRU'
p896
ssS'strategy'
p897
g11
(tRp898
g887
S'C_LCF_UM'
p899
ssS'content_placement'
p900
g11
(tRp901
g886
I5000
sg887
S'UNIFORM'
p902
sg893
I5000
ssS'cache_placement'
p903
g11
(tRp904
S'network_cache'
p905
F0.90000000000000002
sS'uCache_budget'
p906
F724500
sg887
S'UNIFORM_WITH_UCACHE'
p907
sS'nCache_budget'
p908
F0
ssS'desc'
p909
S'strategy: C_LCF_UM, time interval: 60, network cache: 0.9'
p910
sS'topology'
p911
g11
(tRp912
S'asn'
p913
I3257
sg887
S'ROCKET_FUEL_WITH_UCACHE'
p914
ssg11
(tRp915
S'LATENCY'
p916
g11
(tRp917
S'MEAN'
p918
F9.7634666666666661
ssS'CACHING_EFFICIENCY'
p919
g11
(tRp920
g918
F24.161290322580644
ssS'SEGMENT_PERFORMANCE_DIFFERENCE'
p921
g11
(tRp922
S'CV'
p923
g54
(g56
S'\x00\x00\x00\x00\x00\x00\x00\x00'
tRp924
ssS'OVERHEAD_DISTRIBUTION'
p925
g11
(tRp926
g923
g54
(g56
S'\xce\x9aeR+\x07\xdc?'
tRp927
ssS'CACHE_EVICTION'
p928
g11
(tRp929
g918
I0
ssS'CACHE_HIT_RATIO'
p930
g11
(tRp931
g918
F0.89880000000000004
sstp932
a(g11
(tRp933
S'workload'
p934
g11
(tRp935
S'time_interval'
p936
I60
sS'n_contents'
p937
I5000
sS'name'
p938
S'STATIONARY'
p939
sS'n_warmup'
p940
I250
sS'rate'
p941
F100
sS'n_measured'
p942
I750
sS'alpha'
p943
F1
sS'n_segments'
p944
I5000
ssS'cache_policy'
p945
g11
(tRp946
g938
S'LRU'
p947
ssS'strategy'
p948
g11
(tRp949
g938
S'C_LCF_UM'
p950
ssS'content_placement'
p951
g11
(tRp952
g937
I5000
sg938
S'UNIFORM'
p953
sg944
I5000
ssS'cache_placement'
p954
g11
(tRp955
S'network_cache'
p956
F0.69999999999999996
sS'uCache_budget'
p957
F563500
sg938
S'UNIFORM_WITH_UCACHE'
p958
sS'nCache_budget'
p959
F0
ssS'desc'
p960
S'strategy: C_LCF_UM, time interval: 60, network cache: 0.7'
p961
sS'topology'
p962
g11
(tRp963
S'asn'
p964
I3257
sg938
S'ROCKET_FUEL_WITH_UCACHE'
p965
ssg11
(tRp966
S'LATENCY'
p967
g11
(tRp968
S'MEAN'
p969
F26.583200000000001
ssS'CACHING_EFFICIENCY'
p970
g11
(tRp971
g969
F20.833333333333332
ssS'SEGMENT_PERFORMANCE_DIFFERENCE'
p972
g11
(tRp973
S'CV'
p974
g54
(g56
S'\x00\x00\x00\x00\x00\x00\x00\x00'
tRp975
ssS'OVERHEAD_DISTRIBUTION'
p976
g11
(tRp977
g974
g54
(g56
S'\xc7\xe5:+\x0c\xc5\xdd?'
tRp978
ssS'CACHE_EVICTION'
p979
g11
(tRp980
g969
I0
ssS'CACHE_HIT_RATIO'
p981
g11
(tRp982
g969
F0.69999999999999996
sstp983
a(g11
(tRp984
S'workload'
p985
g11
(tRp986
S'time_interval'
p987
I60
sS'n_contents'
p988
I5000
sS'name'
p989
S'STATIONARY'
p990
sS'n_warmup'
p991
I250
sS'rate'
p992
F100
sS'n_measured'
p993
I750
sS'alpha'
p994
F1
sS'n_segments'
p995
I5000
ssS'cache_policy'
p996
g11
(tRp997
g989
S'LRU'
p998
ssS'strategy'
p999
g11
(tRp1000
g989
S'C_LCF_UM'
p1001
ssS'content_placement'
p1002
g11
(tRp1003
g988
I5000
sg989
S'UNIFORM'
p1004
sg995
I5000
ssS'cache_placement'
p1005
g11
(tRp1006
S'network_cache'
p1007
F0.40000000000000002
sS'uCache_budget'
p1008
F322000
sg989
S'UNIFORM_WITH_UCACHE'
p1009
sS'nCache_budget'
p1010
F0
ssS'desc'
p1011
S'strategy: C_LCF_UM, time interval: 60, network cache: 0.4'
p1012
sS'topology'
p1013
g11
(tRp1014
S'asn'
p1015
I3257
sg989
S'ROCKET_FUEL_WITH_UCACHE'
p1016
ssg11
(tRp1017
S'LATENCY'
p1018
g11
(tRp1019
S'MEAN'
p1020
F54.438400000000001
ssS'CACHING_EFFICIENCY'
p1021
g11
(tRp1022
g1020
F22.696969696969695
ssS'SEGMENT_PERFORMANCE_DIFFERENCE'
p1023
g11
(tRp1024
S'CV'
p1025
g54
(g56
S'\x00\x00\x00\x00\x00\x00\x00\x00'
tRp1026
ssS'OVERHEAD_DISTRIBUTION'
p1027
g11
(tRp1028
g1025
g54
(g56
S'\xa7\xad\x10D\xf6\xfe\xdb?'
tRp1029
ssS'CACHE_EVICTION'
p1030
g11
(tRp1031
g1020
I0
ssS'CACHE_HIT_RATIO'
p1032
g11
(tRp1033
g1020
F0.39946666666666669
sstp1034
a(g11
(tRp1035
S'workload'
p1036
g11
(tRp1037
S'time_interval'
p1038
I60
sS'n_contents'
p1039
I5000
sS'name'
p1040
S'STATIONARY'
p1041
sS'n_warmup'
p1042
I250
sS'rate'
p1043
F100
sS'n_measured'
p1044
I750
sS'alpha'
p1045
F1
sS'n_segments'
p1046
I5000
ssS'cache_policy'
p1047
g11
(tRp1048
g1040
S'LRU'
p1049
ssS'strategy'
p1050
g11
(tRp1051
g1040
S'C_LCF_UM'
p1052
ssS'content_placement'
p1053
g11
(tRp1054
g1039
I5000
sg1040
S'UNIFORM'
p1055
sg1046
I5000
ssS'cache_placement'
p1056
g11
(tRp1057
S'network_cache'
p1058
F0.59999999999999998
sS'uCache_budget'
p1059
F483000
sg1040
S'UNIFORM_WITH_UCACHE'
p1060
sS'nCache_budget'
p1061
F0
ssS'desc'
p1062
S'strategy: C_LCF_UM, time interval: 60, network cache: 0.6'
p1063
sS'topology'
p1064
g11
(tRp1065
S'asn'
p1066
I3257
sg1040
S'ROCKET_FUEL_WITH_UCACHE'
p1067
ssg11
(tRp1068
S'LATENCY'
p1069
g11
(tRp1070
S'MEAN'
p1071
F36.698133333333331
ssS'CACHING_EFFICIENCY'
p1072
g11
(tRp1073
g1071
F23.40625
ssS'SEGMENT_PERFORMANCE_DIFFERENCE'
p1074
g11
(tRp1075
S'CV'
p1076
g54
(g56
S'\x00\x00\x00\x00\x00\x00\x00\x00'
tRp1077
ssS'OVERHEAD_DISTRIBUTION'
p1078
g11
(tRp1079
g1076
g54
(g56
S'\x18-\x10\xc1\x80\x9a\xdc?'
tRp1080
ssS'CACHE_EVICTION'
p1081
g11
(tRp1082
g1071
I0
ssS'CACHE_HIT_RATIO'
p1083
g11
(tRp1084
g1071
F0.59919999999999995
sstp1085
a(g11
(tRp1086
S'workload'
p1087
g11
(tRp1088
S'time_interval'
p1089
I60
sS'n_contents'
p1090
I5000
sS'name'
p1091
S'STATIONARY'
p1092
sS'n_warmup'
p1093
I250
sS'rate'
p1094
F100
sS'n_measured'
p1095
I750
sS'alpha'
p1096
F1
sS'n_segments'
p1097
I5000
ssS'cache_policy'
p1098
g11
(tRp1099
g1091
S'LRU'
p1100
ssS'strategy'
p1101
g11
(tRp1102
g1091
S'C_LCF_UM'
p1103
ssS'content_placement'
p1104
g11
(tRp1105
g1090
I5000
sg1091
S'UNIFORM'
p1106
sg1097
I5000
ssS'cache_placement'
p1107
g11
(tRp1108
S'network_cache'
p1109
F0.5
sS'uCache_budget'
p1110
F402500
sg1091
S'UNIFORM_WITH_UCACHE'
p1111
sS'nCache_budget'
p1112
F0
ssS'desc'
p1113
S'strategy: C_LCF_UM, time interval: 60, network cache: 0.5'
p1114
sS'topology'
p1115
g11
(tRp1116
S'asn'
p1117
I3257
sg1091
S'ROCKET_FUEL_WITH_UCACHE'
p1118
ssg11
(tRp1119
S'LATENCY'
p1120
g11
(tRp1121
S'MEAN'
p1122
F43.865333333333332
ssS'CACHING_EFFICIENCY'
p1123
g11
(tRp1124
g1122
F25
ssS'SEGMENT_PERFORMANCE_DIFFERENCE'
p1125
g11
(tRp1126
S'CV'
p1127
g54
(g56
S'\x00\x00\x00\x00\x00\x00\x00\x00'
tRp1128
ssS'OVERHEAD_DISTRIBUTION'
p1129
g11
(tRp1130
g1127
g54
(g56
S'\xfa\xaa\xde\xf7\x13\xb9\xdd?'
tRp1131
ssS'CACHE_EVICTION'
p1132
g11
(tRp1133
g1122
I0
ssS'CACHE_HIT_RATIO'
p1134
g11
(tRp1135
g1122
F0.5
sstp1136
atRp1137
sb.