ccopy_reg
_reconstructor
p1
(cicarus.results.readwrite
ResultSet
p2
c__builtin__
object
p3
NtRp4
(dp5
S'attr'
p6
(dp7
sS'_results'
p8
ccollections
deque
p9
((lp10
(cicarus.util
Tree
p11
(tRp12
S'workload'
p13
g11
(tRp14
S'n_contents'
p15
I300000
sS'name'
p16
S'STATIONARY'
p17
sS'n_warmup'
p18
I300000
sS'rate'
p19
F1
sS'n_measured'
p20
I600000
sS'alpha'
p21
F1
ssS'cache_policy'
p22
g11
(tRp23
g16
S'LRU'
p24
ssS'strategy'
p25
g11
(tRp26
g16
S'LCE'
p27
ssS'content_placement'
p28
g11
(tRp29
g16
S'UNIFORM'
p30
ssS'cache_placement'
p31
g11
(tRp32
S'network_cache'
p33
I1
sS'uCache_budget'
p34
I0
sg16
S'UNIFORM_with_uCache'
p35
sS'nCache_budget'
p36
F300000
ssS'desc'
p37
S'strategy: LCE, network cache: 1'
p38
sS'topology'
p39
g11
(tRp40
S'h'
I3
sS'k'
I2
sg16
S'TREE_with_uCache'
p41
ssg11
(tRp42
S'LATENCY'
p43
g11
(tRp44
S'MEAN'
p45
F2.7764733333333331
ssS'LINK_LOAD'
p46
g11
(tRp47
S'MEAN_INTERNAL'
p48
F81.731288470283829
sS'PER_LINK_INTERNAL'
p49
g11
(tRp50
(I7
I3
tp51
F18.697974126417368
s(I1
I3
tp52
F79.821249666988976
s(I12
I5
tp53
F18.635531819587317
s(I6
I2
tp54
F7.9374162750085828
s(I9
I4
tp55
F18.695726203371485
s(I3
I7
tp56
F186.97974126417367
s(I2
I5
tp57
F79.18683582959568
s(I6
I14
tp58
F187.73154663840748
s(I4
I9
tp59
F186.95726203371484
s(I11
I5
tp60
F18.697224818735407
s(I5
I12
tp61
F186.35531819587317
s(I4
I1
tp62
F7.9583968901034794
s(I4
I10
tp63
F188.84301969998236
s(I2
I6
tp64
F79.37416275008583
s(I10
I4
tp65
F18.884301969998234
s(I5
I11
tp66
F186.97224818735407
s(I1
I4
tp67
F79.583968901034794
s(I14
I6
tp68
F18.773154663840746
s(I13
I6
tp69
F18.67474558827659
s(I1
I0
tp70
F13.242015124834955
s(I0
I1
tp71
F132.42015124834955
s(I8
I3
tp72
F18.80287720189185
s(I3
I1
tp73
F7.9821249666988985
s(I3
I8
tp74
F188.02877201891852
s(I2
I0
tp75
F13.143106510816157
s(I6
I13
tp76
F186.74745588276588
s(I5
I2
tp77
F7.9186835829595674
s(I0
I2
tp78
F131.43106510816156
ssS'MEAN_EXTERNAL'
p79
I0
sS'PER_LINK_EXTERNAL'
p80
g11
(tRp81
ssS'CACHE_HIT_RATIO'
p82
g11
(tRp83
S'PER_NODE_SERVER_HIT_RATIO'
p84
g11
(tRp85
I0
F0.17606333333333332
ssS'PER_NODE_CACHE_HIT_RATIO'
p86
g11
(tRp87
I1
F0.018006666666666667
sI2
F0.018103333333333332
sI3
F0.19697333333333333
sI4
F0.19766
sI5
F0.19627500000000001
sI6
F0.19691833333333333
ssg45
F0.82393666666666665
ssS'PATH_STRETCH'
p88
g11
(tRp89
S'MEAN_REQUEST'
p90
F0.34705916666666664
sS'MEAN_CONTENT'
p91
F0.34705916666666664
sg45
F0.34705916666666664
sstp92
a(g11
(tRp93
S'workload'
p94
g11
(tRp95
S'n_contents'
p96
I300000
sS'name'
p97
S'STATIONARY'
p98
sS'n_warmup'
p99
I300000
sS'rate'
p100
F1
sS'n_measured'
p101
I600000
sS'alpha'
p102
F1
ssS'cache_policy'
p103
g11
(tRp104
g97
S'LRU'
p105
ssS'strategy'
p106
g11
(tRp107
g97
S'LCE'
p108
ssS'content_placement'
p109
g11
(tRp110
g97
S'UNIFORM'
p111
ssS'cache_placement'
p112
g11
(tRp113
S'network_cache'
p114
F0.5
sS'uCache_budget'
p115
F0
sg97
S'UNIFORM_with_uCache'
p116
sS'nCache_budget'
p117
F150000
ssS'desc'
p118
S'strategy: LCE, network cache: 0.5'
p119
sS'topology'
p120
g11
(tRp121
S'h'
I3
sS'k'
I2
sg97
S'TREE_with_uCache'
p122
ssg11
(tRp123
S'LATENCY'
p124
g11
(tRp125
S'MEAN'
p126
F2.9877099999999999
ssS'LINK_LOAD'
p127
g11
(tRp128
S'MEAN_INTERNAL'
p129
F88.139703229407388
sS'PER_LINK_INTERNAL'
p130
g11
(tRp131
(I7
I3
tp132
F18.626777237097251
s(I1
I3
tp133
F96.949853651448066
s(I12
I5
tp134
F18.77946599762442
s(I6
I2
tp135
F9.7435453971813164
s(I9
I4
tp136
F18.801993847538267
s(I3
I7
tp137
F186.26777237097252
s(I2
I5
tp138
F97.485515860510588
s(I6
I14
tp139
F188.23270150234674
s(I4
I9
tp140
F188.01993847538267
s(I11
I5
tp141
F18.626026308766789
s(I5
I12
tp142
F187.79465997624422
s(I4
I1
tp143
F9.8016171880703382
s(I4
I10
tp144
F188.57312234548931
s(I2
I6
tp145
F97.43545397181316
s(I10
I4
tp146
F18.857312234548928
s(I5
I11
tp147
F186.26026308766791
s(I1
I4
tp148
F98.016171880703382
s(I14
I6
tp149
F18.823270150234677
s(I13
I6
tp150
F18.802244156981754
s(I1
I0
tp151
F17.58048376332091
s(I0
I1
tp152
F175.8048376332091
s(I8
I3
tp153
F18.868576159505853
s(I3
I1
tp154
F9.6949853651448059
s(I3
I8
tp155
F188.68576159505852
s(I2
I0
tp156
F17.600758828243372
s(I6
I13
tp157
F188.02244156981754
s(I5
I2
tp158
F9.7485515860510592
s(I0
I2
tp159
F176.00758828243372
ssS'MEAN_EXTERNAL'
p160
I0
sS'PER_LINK_EXTERNAL'
p161
g11
(tRp162
ssS'CACHE_HIT_RATIO'
p163
g11
(tRp164
S'PER_NODE_SERVER_HIT_RATIO'
p165
g11
(tRp166
I0
F0.23425166666666666
ssS'PER_NODE_CACHE_HIT_RATIO'
p167
g11
(tRp168
I1
F0.012758333333333333
sI2
F0.012593333333333333
sI3
F0.18510666666666667
sI4
F0.18548833333333334
sI5
F0.18415166666666666
sI6
F0.18565000000000001
ssg126
F0.76574833333333336
ssS'PATH_STRETCH'
p169
g11
(tRp170
S'MEAN_REQUEST'
p171
F0.37346374999999998
sS'MEAN_CONTENT'
p172
F0.37346374999999998
sg126
F0.37346374999999998
sstp173
a(g11
(tRp174
S'workload'
p175
g11
(tRp176
S'n_contents'
p177
I300000
sS'name'
p178
S'STATIONARY'
p179
sS'n_warmup'
p180
I300000
sS'rate'
p181
F1
sS'n_measured'
p182
I600000
sS'alpha'
p183
F1
ssS'cache_policy'
p184
g11
(tRp185
g178
S'LRU'
p186
ssS'strategy'
p187
g11
(tRp188
g178
S'LCE'
p189
ssS'content_placement'
p190
g11
(tRp191
g178
S'UNIFORM'
p192
ssS'cache_placement'
p193
g11
(tRp194
S'network_cache'
p195
F0.10000000000000001
sS'uCache_budget'
p196
F0
sg178
S'UNIFORM_with_uCache'
p197
sS'nCache_budget'
p198
F30000
ssS'desc'
p199
S'strategy: LCE, network cache: 0.1'
p200
sS'topology'
p201
g11
(tRp202
S'h'
I3
sS'k'
I2
sg178
S'TREE_with_uCache'
p203
ssg11
(tRp204
S'LATENCY'
p205
g11
(tRp206
S'MEAN'
p207
F3.58507
ssS'LINK_LOAD'
p208
g11
(tRp209
S'MEAN_INTERNAL'
p210
F105.62672535787773
sS'PER_LINK_INTERNAL'
p211
g11
(tRp212
(I7
I3
tp213
F18.765896966832788
s(I1
I3
tp214
F153.86300591666438
s(I12
I5
tp215
F18.744147955468083
s(I6
I2
tp216
F15.233057557567985
s(I9
I4
tp217
F18.704399762284307
s(I3
I7
tp218
F187.65896966832787
s(I2
I5
tp219
F153.3755280757313
s(I6
I14
tp220
F187.06399671375314
s(I4
I9
tp221
F187.04399762284308
s(I11
I5
tp222
F18.844893375927587
s(I5
I12
tp223
F187.44147955468083
s(I4
I1
tp224
F15.209308637112271
s(I4
I10
tp225
F186.92900285011012
s(I2
I6
tp226
F152.33057557567986
s(I10
I4
tp227
F18.692900285011014
s(I5
I11
tp228
F188.44893375927586
s(I1
I4
tp229
F152.09308637112272
s(I14
I6
tp230
F18.706399671375316
s(I13
I6
tp231
F18.797395535016157
s(I1
I0
tp232
F28.868937717330081
s(I0
I1
tp233
F288.68937717330084
s(I8
I3
tp234
F18.737148273649556
s(I3
I1
tp235
F15.386300591666437
s(I3
I8
tp236
F187.37148273649555
s(I2
I0
tp237
F28.839689046874096
s(I6
I13
tp238
F187.97395535016156
s(I5
I2
tp239
F15.337552807573129
s(I0
I2
tp240
F288.39689046874099
ssS'MEAN_EXTERNAL'
p241
I0
sS'PER_LINK_EXTERNAL'
p242
g11
(tRp243
ssS'CACHE_HIT_RATIO'
p244
g11
(tRp245
S'PER_NODE_SERVER_HIT_RATIO'
p246
g11
(tRp247
I0
F0.38474166666666665
ssS'PER_NODE_CACHE_HIT_RATIO'
p248
g11
(tRp249
I1
F0.011511666666666667
sI2
F0.01154
sI3
F0.14745166666666668
sI4
F0.14792666666666668
sI5
F0.14835000000000001
sI6
F0.14847833333333332
ssg207
F0.61525833333333335
ssS'PATH_STRETCH'
p250
g11
(tRp251
S'MEAN_REQUEST'
p252
F0.44813375
sS'MEAN_CONTENT'
p253
F0.44813375
sg207
F0.44813375
sstp254
a(g11
(tRp255
S'workload'
p256
g11
(tRp257
S'n_contents'
p258
I300000
sS'name'
p259
S'STATIONARY'
p260
sS'n_warmup'
p261
I300000
sS'rate'
p262
F1
sS'n_measured'
p263
I600000
sS'alpha'
p264
F1
ssS'cache_policy'
p265
g11
(tRp266
g259
S'LRU'
p267
ssS'strategy'
p268
g11
(tRp269
g259
S'LCE'
p270
ssS'content_placement'
p271
g11
(tRp272
g259
S'UNIFORM'
p273
ssS'cache_placement'
p274
g11
(tRp275
S'network_cache'
p276
F0.050000000000000003
sS'uCache_budget'
p277
F0
sg259
S'UNIFORM_with_uCache'
p278
sS'nCache_budget'
p279
F15000
ssS'desc'
p280
S'strategy: LCE, network cache: 0.05'
p281
sS'topology'
p282
g11
(tRp283
S'h'
I3
sS'k'
I2
sg259
S'TREE_with_uCache'
p284
ssg11
(tRp285
S'LATENCY'
p286
g11
(tRp287
S'MEAN'
p288
F3.8291533333333332
ssS'LINK_LOAD'
p289
g11
(tRp290
S'MEAN_INTERNAL'
p291
F112.85893923389196
sS'PER_LINK_INTERNAL'
p292
g11
(tRp293
(I7
I3
tp294
F18.865212736452619
s(I1
I3
tp295
F175.89809619203677
s(I12
I5
tp296
F18.709663571956767
s(I6
I2
tp297
F17.623320210911789
s(I9
I4
tp298
F18.709163413871572
s(I3
I7
tp299
F188.65212736452619
s(I2
I5
tp300
F175.46045786749059
s(I6
I14
tp301
F187.07412860573388
s(I4
I9
tp302
F187.09163413871573
s(I11
I5
tp303
F18.722417603129259
s(I5
I12
tp304
F187.09663571956767
s(I4
I1
tp305
F17.534542150789559
s(I4
I10
tp306
F188.18698034529422
s(I2
I6
tp307
F176.23320210911788
s(I10
I4
tp308
F18.818698034529422
s(I5
I11
tp309
F187.22417603129259
s(I1
I4
tp310
F175.34542150789557
s(I14
I6
tp311
F18.707412860573388
s(I13
I6
tp312
F18.826450484849957
s(I1
I0
tp313
F33.470328982251175
s(I0
I1
tp314
F334.70328982251181
s(I8
I3
tp315
F18.688406853335952
s(I3
I1
tp316
F17.589809619203677
s(I3
I8
tp317
F186.88406853335951
s(I2
I0
tp318
F33.465827559484417
s(I6
I13
tp319
F188.26450484849954
s(I5
I2
tp320
F17.546045786749058
s(I0
I2
tp321
F334.65827559484416
ssS'MEAN_EXTERNAL'
p322
I0
sS'PER_LINK_EXTERNAL'
p323
g11
(tRp324
ssS'CACHE_HIT_RATIO'
p325
g11
(tRp326
S'PER_NODE_SERVER_HIT_RATIO'
p327
g11
(tRp328
I0
F0.4461
ssS'PER_NODE_CACHE_HIT_RATIO'
p329
g11
(tRp330
I1
F0.011023333333333333
sI2
F0.011353333333333333
sI3
F0.13305
sI4
F0.13324666666666668
sI5
F0.13253166666666666
sI6
F0.13269500000000001
ssg288
F0.55389999999999995
ssS'PATH_STRETCH'
p331
g11
(tRp332
S'MEAN_REQUEST'
p333
F0.47864416666666665
sS'MEAN_CONTENT'
p334
F0.47864416666666665
sg288
F0.47864416666666665
sstp335
a(g11
(tRp336
S'workload'
p337
g11
(tRp338
S'n_contents'
p339
I300000
sS'name'
p340
S'STATIONARY'
p341
sS'n_warmup'
p342
I300000
sS'rate'
p343
F1
sS'n_measured'
p344
I600000
sS'alpha'
p345
F1
ssS'cache_policy'
p346
g11
(tRp347
g340
S'LRU'
p348
ssS'strategy'
p349
g11
(tRp350
g340
S'LCE'
p351
ssS'content_placement'
p352
g11
(tRp353
g340
S'UNIFORM'
p354
ssS'cache_placement'
p355
g11
(tRp356
S'network_cache'
p357
F0.01
sS'uCache_budget'
p358
F0
sg340
S'UNIFORM_with_uCache'
p359
sS'nCache_budget'
p360
F3000
ssS'desc'
p361
S'strategy: LCE, network cache: 0.01'
p362
sS'topology'
p363
g11
(tRp364
S'h'
I3
sS'k'
I2
sg340
S'TREE_with_uCache'
p365
ssg11
(tRp366
S'LATENCY'
p367
g11
(tRp368
S'MEAN'
p369
F4.3880333333333335
ssS'LINK_LOAD'
p370
g11
(tRp371
S'MEAN_INTERNAL'
p372
F129.15091521833614
sS'PER_LINK_INTERNAL'
p373
g11
(tRp374
(I7
I3
tp375
F18.724546388238917
s(I1
I3
tp376
F227.63937922265305
s(I12
I5
tp377
F18.711810130542759
s(I6
I2
tp378
F22.845350079303486
s(I9
I4
tp379
F18.711810130542759
s(I3
I7
tp380
F187.24546388238917
s(I2
I5
tp381
F227.53948700542827
s(I6
I14
tp382
F186.18161176894543
s(I4
I9
tp383
F187.11810130542759
s(I11
I5
tp384
F18.788227676719703
s(I5
I12
tp385
F187.11810130542759
s(I4
I1
tp386
F22.71099504713618
s(I4
I10
tp387
F186.96576567415983
s(I2
I6
tp388
F228.45350079303486
s(I10
I4
tp389
F18.696576567415985
s(I5
I11
tp390
F187.88227676719703
s(I1
I4
tp391
F227.1099504713618
s(I14
I6
tp392
F18.618161176894542
s(I13
I6
tp393
F18.810453695052214
s(I1
I0
tp394
F43.850435786783763
s(I0
I1
tp395
F438.5043578678376
s(I8
I3
tp396
F18.776740071738857
s(I3
I1
tp397
F22.763937922265303
s(I3
I8
tp398
F187.76740071738857
s(I2
I0
tp399
F43.984790818951069
s(I6
I13
tp400
F188.10453695052215
s(I5
I2
tp401
F22.753948700542828
s(I0
I2
tp402
F439.84790818951069
ssS'MEAN_EXTERNAL'
p403
I0
sS'PER_LINK_EXTERNAL'
p404
g11
(tRp405
ssS'CACHE_HIT_RATIO'
p406
g11
(tRp407
S'PER_NODE_SERVER_HIT_RATIO'
p408
g11
(tRp409
I0
F0.58620000000000005
ssS'PER_NODE_CACHE_HIT_RATIO'
p410
g11
(tRp411
I1
F0.010841666666666666
sI2
F0.010775
sI3
F0.098354999999999998
sI4
F0.098088333333333333
sI5
F0.098413333333333339
sI6
F0.097326666666666672
ssg369
F0.4138
ssS'PATH_STRETCH'
p412
g11
(tRp413
S'MEAN_REQUEST'
p414
F0.54850416666666668
sS'MEAN_CONTENT'
p415
F0.54850416666666668
sg369
F0.54850416666666668
sstp416
a(g11
(tRp417
S'workload'
p418
g11
(tRp419
S'n_contents'
p420
I300000
sS'name'
p421
S'STATIONARY'
p422
sS'n_warmup'
p423
I300000
sS'rate'
p424
F1
sS'n_measured'
p425
I600000
sS'alpha'
p426
F1
ssS'cache_policy'
p427
g11
(tRp428
g421
S'LRU'
p429
ssS'strategy'
p430
g11
(tRp431
g421
S'LCE'
p432
ssS'content_placement'
p433
g11
(tRp434
g421
S'UNIFORM'
p435
ssS'cache_placement'
p436
g11
(tRp437
S'network_cache'
p438
F0.0050000000000000001
sS'uCache_budget'
p439
F0
sg421
S'UNIFORM_with_uCache'
p440
sS'nCache_budget'
p441
F1500
ssS'desc'
p442
S'strategy: LCE, network cache: 0.005'
p443
sS'topology'
p444
g11
(tRp445
S'h'
I3
sS'k'
I2
sg421
S'TREE_with_uCache'
p446
ssg11
(tRp447
S'LATENCY'
p448
g11
(tRp449
S'MEAN'
p450
F4.626196666666667
ssS'LINK_LOAD'
p451
g11
(tRp452
S'MEAN_INTERNAL'
p453
F136.24516395525313
sS'PER_LINK_INTERNAL'
p454
g11
(tRp455
(I7
I3
tp456
F18.813631131427975
s(I1
I3
tp457
F250.48524812580058
s(I12
I5
tp458
F18.815380330088068
s(I6
I2
tp459
F25.00204610532607
s(I9
I4
tp460
F18.734917191723635
s(I3
I7
tp461
F188.13631131427974
s(I2
I5
tp462
F249.38325296993989
s(I6
I14
tp463
F187.95389488258397
s(I4
I9
tp464
F187.34917191723636
s(I11
I5
tp465
F18.6012284369877
s(I5
I12
tp466
F188.1538033008807
s(I4
I1
tp467
F25.047525270488574
s(I4
I10
tp468
F187.43163413978377
s(I2
I6
tp469
F250.0204610532607
s(I10
I4
tp470
F18.743163413978376
s(I5
I11
tp471
F186.01228436987699
s(I1
I4
tp472
F250.47525270488575
s(I14
I6
tp473
F18.795389488258397
s(I13
I6
tp474
F18.756407346690533
s(I1
I0
tp475
F48.495033538034711
s(I0
I1
tp476
F484.9503353803471
s(I8
I3
tp477
F18.671196383391553
s(I3
I1
tp478
F25.048524812580059
s(I3
I8
tp479
F186.71196383391555
s(I2
I0
tp480
F48.343103140129195
s(I6
I13
tp481
F187.56407346690534
s(I5
I2
tp482
F24.938325296993987
s(I0
I2
tp483
F483.43103140129199
ssS'MEAN_EXTERNAL'
p484
I0
sS'PER_LINK_EXTERNAL'
p485
g11
(tRp486
ssS'CACHE_HIT_RATIO'
p487
g11
(tRp488
S'PER_NODE_SERVER_HIT_RATIO'
p489
g11
(tRp490
I0
F0.64588333333333336
ssS'PER_NODE_CACHE_HIT_RATIO'
p491
g11
(tRp492
I1
F0.010678333333333333
sI2
F0.010653333333333334
sI3
F0.082946666666666669
sI4
F0.082908333333333334
sI5
F0.083226666666666671
sI6
F0.083703333333333338
ssg450
F0.35411666666666669
ssS'PATH_STRETCH'
p493
g11
(tRp494
S'MEAN_REQUEST'
p495
F0.57827458333333337
sS'MEAN_CONTENT'
p496
F0.57827458333333337
sg450
F0.57827458333333337
sstp497
a(g11
(tRp498
S'workload'
p499
g11
(tRp500
S'n_contents'
p501
I300000
sS'name'
p502
S'STATIONARY'
p503
sS'n_warmup'
p504
I300000
sS'rate'
p505
F1
sS'n_measured'
p506
I600000
sS'alpha'
p507
F1
ssS'cache_policy'
p508
g11
(tRp509
g502
S'LRU'
p510
ssS'strategy'
p511
g11
(tRp512
g502
S'LCE'
p513
ssS'content_placement'
p514
g11
(tRp515
g502
S'UNIFORM'
p516
ssS'cache_placement'
p517
g11
(tRp518
S'network_cache'
p519
F0.001
sS'uCache_budget'
p520
F300
sg502
S'UNIFORM_with_uCache'
p521
sS'nCache_budget'
p522
F300
ssS'desc'
p523
S'strategy: LCE, network cache: 0.001'
p524
sS'topology'
p525
g11
(tRp526
S'h'
I3
sS'k'
I2
sg502
S'TREE_with_uCache'
p527
ssg11
(tRp528
S'LATENCY'
p529
g11
(tRp530
S'MEAN'
p531
F5.1616733333333329
ssS'LINK_LOAD'
p532
g11
(tRp533
S'MEAN_INTERNAL'
p534
F152.11265233402409
sS'PER_LINK_INTERNAL'
p535
g11
(tRp536
(I7
I3
tp537
F18.802415856066631
s(I1
I3
tp538
F302.10988464302386
s(I12
I5
tp539
F18.689145278073145
s(I6
I2
tp540
F30.015452941143653
s(I9
I4
tp541
F18.730902864220852
s(I3
I7
tp542
F188.02415856066631
s(I2
I5
tp543
F299.62693356250441
s(I6
I14
tp544
F187.44905408078768
s(I4
I9
tp545
F187.30902864220852
s(I11
I5
tp546
F18.768159632699945
s(I5
I12
tp547
F186.89145278073144
s(I4
I1
tp548
F29.949941039522699
s(I4
I10
tp549
F186.2863428497287
s(I2
I6
tp550
F300.15452941143656
s(I10
I4
tp551
F18.628634284972872
s(I5
I11
tp552
F187.68159632699945
s(I1
I4
tp553
F299.49941039522696
s(I14
I6
tp554
F18.744905408078768
s(I13
I6
tp555
F18.791163811895093
s(I1
I0
tp556
F58.600145954519697
s(I0
I1
tp557
F586.00145954519701
s(I8
I3
tp558
F18.871928484504132
s(I3
I1
tp559
F30.210988464302385
s(I3
I8
tp560
F188.71928484504133
s(I2
I0
tp561
F58.429364928538348
s(I6
I13
tp562
F187.91163811895092
s(I5
I2
tp563
F29.962693356250441
s(I0
I2
tp564
F584.29364928538348
ssS'MEAN_EXTERNAL'
p565
I0
sS'PER_LINK_EXTERNAL'
p566
g11
(tRp567
ssS'CACHE_HIT_RATIO'
p568
g11
(tRp569
S'PER_NODE_SERVER_HIT_RATIO'
p570
g11
(tRp571
I0
F0.78005500000000005
ssS'PER_NODE_CACHE_HIT_RATIO'
p572
g11
(tRp573
I1
F0.010403333333333334
sI2
F0.010323333333333334
sI3
F0.049746666666666668
sI4
F0.049388333333333333
sI5
F0.049954999999999999
sI6
F0.05012833333333333
ssg531
F0.219945
ssS'PATH_STRETCH'
p574
g11
(tRp575
S'MEAN_REQUEST'
p576
F0.64520916666666661
sS'MEAN_CONTENT'
p577
F0.64520916666666661
sg531
F0.64520916666666661
sstp578
a(g11
(tRp579
S'workload'
p580
g11
(tRp581
S'n_contents'
p582
I300000
sS'name'
p583
S'STATIONARY'
p584
sS'n_warmup'
p585
I300000
sS'rate'
p586
F1
sS'n_measured'
p587
I600000
sS'alpha'
p588
F1
ssS'cache_policy'
p589
g11
(tRp590
g583
S'LRU'
p591
ssS'strategy'
p592
g11
(tRp593
g583
S'LCE'
p594
ssS'content_placement'
p595
g11
(tRp596
g583
S'UNIFORM'
p597
ssS'cache_placement'
p598
g11
(tRp599
S'network_cache'
p600
F0.001
sS'uCache_budget'
p601
F0
sg583
S'UNIFORM_with_uCache'
p602
sS'nCache_budget'
p603
F300
ssS'desc'
p604
S'strategy: LCE, network cache: 0.001'
p605
sS'topology'
p606
g11
(tRp607
S'h'
I3
sS'k'
I2
sg583
S'TREE_with_uCache'
p608
ssg11
(tRp609
S'LATENCY'
p610
g11
(tRp611
S'MEAN'
p612
F5.1633199999999997
ssS'LINK_LOAD'
p613
g11
(tRp614
S'MEAN_INTERNAL'
p615
F152.13782413741529
sS'PER_LINK_INTERNAL'
p616
g11
(tRp617
(I7
I3
tp618
F18.84428117790873
s(I1
I3
tp619
F301.38599539344284
s(I12
I5
tp620
F18.816780402723722
s(I6
I2
tp621
F29.916093267392856
s(I9
I4
tp622
F18.700277118758144
s(I3
I7
tp623
F188.44281177908732
s(I2
I5
tp624
F300.45846924856664
s(I6
I14
tp625
F187.89529634585853
s(I4
I9
tp626
F187.00277118758146
s(I11
I5
tp627
F18.727277879848881
s(I5
I12
tp628
F188.16780402723722
s(I4
I1
tp629
F30.097348376566771
s(I4
I10
tp630
F187.93779754387171
s(I2
I6
tp631
F299.16093267392858
s(I10
I4
tp632
F18.79377975438717
s(I5
I11
tp633
F187.27277879848879
s(I1
I4
tp634
F300.97348376566771
s(I14
I6
tp635
F18.78952963458585
s(I13
I6
tp636
F18.597024208290797
s(I1
I0
tp637
F58.666653681035662
s(I0
I1
tp638
F586.66653681035655
s(I8
I3
tp639
F18.735278105357246
s(I3
I1
tp640
F30.138599539344284
s(I3
I8
tp641
F187.35278105357244
s(I2
I0
tp642
F58.391145915091307
s(I6
I13
tp643
F185.97024208290799
s(I5
I2
tp644
F30.045846924856665
s(I0
I2
tp645
F583.91145915091306
ssS'MEAN_EXTERNAL'
p646
I0
sS'PER_LINK_EXTERNAL'
p647
g11
(tRp648
ssS'CACHE_HIT_RATIO'
p649
g11
(tRp650
S'PER_NODE_SERVER_HIT_RATIO'
p651
g11
(tRp652
I0
F0.7803633333333333
ssS'PER_NODE_CACHE_HIT_RATIO'
p653
g11
(tRp654
I1
F0.010461666666666666
sI2
F0.010471666666666667
sI3
F0.049605000000000003
sI4
F0.04931
sI5
F0.049986666666666665
sI6
F0.049801666666666668
ssg612
F0.21963666666666667
ssS'PATH_STRETCH'
p655
g11
(tRp656
S'MEAN_REQUEST'
p657
F0.64541499999999996
sS'MEAN_CONTENT'
p658
F0.64541499999999996
sg612
F0.64541499999999996
sstp659
a(g11
(tRp660
S'workload'
p661
g11
(tRp662
S'n_contents'
p663
I300000
sS'name'
p664
S'STATIONARY'
p665
sS'n_warmup'
p666
I300000
sS'rate'
p667
F1
sS'n_measured'
p668
I600000
sS'alpha'
p669
F1
ssS'cache_policy'
p670
g11
(tRp671
g664
S'LRU'
p672
ssS'strategy'
p673
g11
(tRp674
g664
S'LCE'
p675
ssS'content_placement'
p676
g11
(tRp677
g664
S'UNIFORM'
p678
ssS'cache_placement'
p679
g11
(tRp680
S'network_cache'
p681
F0.10000000000000001
sS'uCache_budget'
p682
F30000
sg664
S'UNIFORM_with_uCache'
p683
sS'nCache_budget'
p684
F30000
ssS'desc'
p685
S'strategy: LCE, network cache: 0.1'
p686
sS'topology'
p687
g11
(tRp688
S'h'
I3
sS'k'
I2
sg664
S'TREE_with_uCache'
p689
ssg11
(tRp690
S'LATENCY'
p691
g11
(tRp692
S'MEAN'
p693
F3.5861100000000001
ssS'LINK_LOAD'
p694
g11
(tRp695
S'MEAN_INTERNAL'
p696
F105.51955332862158
sS'PER_LINK_INTERNAL'
p697
g11
(tRp698
(I7
I3
tp699
F18.818066199744131
s(I1
I3
tp700
F153.59241019559249
s(I12
I5
tp701
F18.708963658691669
s(I6
I2
tp702
F15.232162773802495
s(I9
I4
tp703
F18.796595219125113
s(I3
I7
tp704
F188.18066199744132
s(I2
I5
tp705
F152.93579764875503
s(I6
I14
tp706
F186.6227675897357
s(I4
I9
tp707
F187.96595219125112
s(I11
I5
tp708
F18.742168779881549
s(I5
I12
tp709
F187.0896365869167
s(I4
I1
tp710
F15.24239893898133
s(I4
I10
tp711
F186.42054091181237
s(I2
I6
tp712
F152.32162773802494
s(I10
I4
tp713
F18.642054091181237
s(I5
I11
tp714
F187.4216877988155
s(I1
I4
tp715
F152.4239893898133
s(I14
I6
tp716
F18.662276758973569
s(I13
I6
tp717
F18.700475131470199
s(I1
I0
tp718
F28.872726693578816
s(I0
I1
tp719
F288.72726693578812
s(I8
I3
tp720
F18.726939363395967
s(I3
I1
tp721
F15.359241019559251
s(I3
I8
tp722
F187.26939363395965
s(I2
I0
tp723
F28.797578261412244
s(I6
I13
tp724
F187.00475131470196
s(I5
I2
tp725
F15.293579764875505
s(I0
I2
tp726
F287.97578261412247
ssS'MEAN_EXTERNAL'
p727
I0
sS'PER_LINK_EXTERNAL'
p728
g11
(tRp729
ssS'CACHE_HIT_RATIO'
p730
g11
(tRp731
S'PER_NODE_SERVER_HIT_RATIO'
p732
g11
(tRp733
I0
F0.38498833333333332
ssS'PER_NODE_CACHE_HIT_RATIO'
p734
g11
(tRp735
I1
F0.011541666666666667
sI2
F0.011536666666666667
sI3
F0.14810499999999999
sI4
F0.148175
sI5
F0.14791666666666667
sI6
F0.14773666666666666
ssg693
F0.61501166666666662
ssS'PATH_STRETCH'
p736
g11
(tRp737
S'MEAN_REQUEST'
p738
F0.44826375000000002
sS'MEAN_CONTENT'
p739
F0.44826375000000002
sg693
F0.44826375000000002
sstp740
a(g11
(tRp741
S'workload'
p742
g11
(tRp743
S'n_contents'
p744
I300000
sS'name'
p745
S'STATIONARY'
p746
sS'n_warmup'
p747
I300000
sS'rate'
p748
F1
sS'n_measured'
p749
I600000
sS'alpha'
p750
F1
ssS'cache_policy'
p751
g11
(tRp752
g745
S'LRU'
p753
ssS'strategy'
p754
g11
(tRp755
g745
S'LCE'
p756
ssS'content_placement'
p757
g11
(tRp758
g745
S'UNIFORM'
p759
ssS'cache_placement'
p760
g11
(tRp761
S'network_cache'
p762
F0.5
sS'uCache_budget'
p763
F150000
sg745
S'UNIFORM_with_uCache'
p764
sS'nCache_budget'
p765
F150000
ssS'desc'
p766
S'strategy: LCE, network cache: 0.5'
p767
sS'topology'
p768
g11
(tRp769
S'h'
I3
sS'k'
I2
sg745
S'TREE_with_uCache'
p770
ssg11
(tRp771
S'LATENCY'
p772
g11
(tRp773
S'MEAN'
p774
F2.9818966666666666
ssS'LINK_LOAD'
p775
g11
(tRp776
S'MEAN_INTERNAL'
p777
F87.931335128051359
sS'PER_LINK_INTERNAL'
p778
g11
(tRp779
(I7
I3
tp780
F18.824638264990543
s(I1
I3
tp781
F97.139406940732997
s(I12
I5
tp782
F18.952492780101597
s(I6
I2
tp783
F9.6941745361598493
s(I9
I4
tp784
F18.744072406153443
s(I3
I7
tp785
F188.24638264990546
s(I2
I5
tp786
F97.267011251313505
s(I6
I14
tp787
F186.10463186839743
s(I4
I9
tp788
F187.44072406153444
s(I11
I5
tp789
F18.760085496108644
s(I5
I12
tp790
F189.52492780101596
s(I4
I1
tp791
F9.5918408831648989
s(I4
I10
tp792
F186.81020864454842
s(I2
I6
tp793
F96.941745361598507
s(I10
I4
tp794
F18.681020864454844
s(I5
I11
tp795
F187.60085496108644
s(I1
I4
tp796
F95.918408831648989
s(I14
I6
tp797
F18.610463186839741
s(I13
I6
tp798
F18.786607176346944
s(I1
I0
tp799
F17.452766823984881
s(I0
I1
tp800
F174.52766823984879
s(I8
I3
tp801
F18.763338155005794
s(I3
I1
tp802
F9.7139406940733011
s(I3
I8
tp803
F187.63338155005795
s(I2
I0
tp804
F17.523074297069432
s(I6
I13
tp805
F187.86607176346945
s(I5
I2
tp806
F9.7267011251313509
s(I0
I2
tp807
F175.23074297069431
ssS'MEAN_EXTERNAL'
p808
I0
sS'PER_LINK_EXTERNAL'
p809
g11
(tRp810
ssS'CACHE_HIT_RATIO'
p811
g11
(tRp812
S'PER_NODE_SERVER_HIT_RATIO'
p813
g11
(tRp814
I0
F0.23298166666666667
ssS'PER_NODE_CACHE_HIT_RATIO'
p815
g11
(tRp816
I1
F0.012343333333333333
sI2
F0.012641666666666667
sI3
F0.18567500000000001
sI4
F0.18540333333333334
sI5
F0.18642
sI6
F0.184535
ssg774
F0.76701833333333336
ssS'PATH_STRETCH'
p817
g11
(tRp818
S'MEAN_REQUEST'
p819
F0.37273708333333333
sS'MEAN_CONTENT'
p820
F0.37273708333333333
sg774
F0.37273708333333333
sstp821
a(g11
(tRp822
S'workload'
p823
g11
(tRp824
S'n_contents'
p825
I300000
sS'name'
p826
S'STATIONARY'
p827
sS'n_warmup'
p828
I300000
sS'rate'
p829
F1
sS'n_measured'
p830
I600000
sS'alpha'
p831
F1
ssS'cache_policy'
p832
g11
(tRp833
g826
S'LRU'
p834
ssS'strategy'
p835
g11
(tRp836
g826
S'LCE'
p837
ssS'content_placement'
p838
g11
(tRp839
g826
S'UNIFORM'
p840
ssS'cache_placement'
p841
g11
(tRp842
S'network_cache'
p843
F0.050000000000000003
sS'uCache_budget'
p844
F15000
sg826
S'UNIFORM_with_uCache'
p845
sS'nCache_budget'
p846
F15000
ssS'desc'
p847
S'strategy: LCE, network cache: 0.05'
p848
sS'topology'
p849
g11
(tRp850
S'h'
I3
sS'k'
I2
sg826
S'TREE_with_uCache'
p851
ssg11
(tRp852
S'LATENCY'
p853
g11
(tRp854
S'MEAN'
p855
F3.8280666666666665
ssS'LINK_LOAD'
p856
g11
(tRp857
S'MEAN_INTERNAL'
p858
F112.5608532020478
sS'PER_LINK_INTERNAL'
p859
g11
(tRp860
(I7
I3
tp861
F18.69248901057712
s(I1
I3
tp862
F175.77521198446411
s(I12
I5
tp863
F18.653568675224157
s(I6
I2
tp864
F17.585754346309539
s(I9
I4
tp865
F18.63785084748546
s(I3
I7
tp866
F186.9248901057712
s(I2
I5
tp867
F174.49034193915796
s(I6
I14
tp868
F186.21135062430022
s(I4
I9
tp869
F186.37850847485461
s(I11
I5
tp870
F18.772325595916531
s(I5
I12
tp871
F186.53568675224159
s(I4
I1
tp872
F17.473234658846806
s(I4
I10
tp873
F185.8096728043113
s(I2
I6
tp874
F175.85754346309537
s(I10
I4
tp875
F18.580967280431132
s(I5
I11
tp876
F187.7232559591653
s(I1
I4
tp877
F174.73234658846806
s(I14
I6
tp878
F18.621135062430021
s(I13
I6
tp879
F18.820227547120179
s(I1
I0
tp880
F33.385414584978946
s(I0
I1
tp881
F333.8541458497894
s(I8
I3
tp882
F18.915033492210728
s(I3
I1
tp883
F17.577521198446412
s(I3
I8
tp884
F189.15033492210728
s(I2
I0
tp885
F33.353978929501551
s(I6
I13
tp886
F188.20227547120177
s(I5
I2
tp887
F17.449034193915796
s(I0
I2
tp888
F333.53978929501551
ssS'MEAN_EXTERNAL'
p889
I0
sS'PER_LINK_EXTERNAL'
p890
g11
(tRp891
ssS'CACHE_HIT_RATIO'
p892
g11
(tRp893
S'PER_NODE_SERVER_HIT_RATIO'
p894
g11
(tRp895
I0
F0.44584000000000001
ssS'PER_NODE_CACHE_HIT_RATIO'
p896
g11
(tRp897
I1
F0.011124999999999999
sI2
F0.011228333333333333
sI3
F0.13380666666666666
sI4
F0.13190666666666667
sI5
F0.13345166666666666
sI6
F0.13264166666666666
ssg855
F0.55415999999999999
ssS'PATH_STRETCH'
p898
g11
(tRp899
S'MEAN_REQUEST'
p900
F0.47850833333333331
sS'MEAN_CONTENT'
p901
F0.47850833333333331
sg855
F0.47850833333333331
sstp902
a(g11
(tRp903
S'workload'
p904
g11
(tRp905
S'n_contents'
p906
I300000
sS'name'
p907
S'STATIONARY'
p908
sS'n_warmup'
p909
I300000
sS'rate'
p910
F1
sS'n_measured'
p911
I600000
sS'alpha'
p912
F1
ssS'cache_policy'
p913
g11
(tRp914
g907
S'LRU'
p915
ssS'strategy'
p916
g11
(tRp917
g907
S'LCE'
p918
ssS'content_placement'
p919
g11
(tRp920
g907
S'UNIFORM'
p921
ssS'cache_placement'
p922
g11
(tRp923
S'network_cache'
p924
F0.01
sS'uCache_budget'
p925
F3000
sg907
S'UNIFORM_with_uCache'
p926
sS'nCache_budget'
p927
F3000
ssS'desc'
p928
S'strategy: LCE, network cache: 0.01'
p929
sS'topology'
p930
g11
(tRp931
S'h'
I3
sS'k'
I2
sg907
S'TREE_with_uCache'
p932
ssg11
(tRp933
S'LATENCY'
p934
g11
(tRp935
S'MEAN'
p936
F4.39086
ssS'LINK_LOAD'
p937
g11
(tRp938
S'MEAN_INTERNAL'
p939
F129.40347076448634
sS'PER_LINK_INTERNAL'
p940
g11
(tRp941
(I7
I3
tp942
F18.73283090175476
s(I1
I3
tp943
F228.28777856539486
s(I12
I5
tp944
F18.791844545303551
s(I6
I2
tp945
F22.950806068623429
s(I9
I4
tp946
F18.614053441222236
s(I3
I7
tp947
F187.32830901754761
s(I2
I5
tp948
F228.19275659696885
s(I6
I14
tp949
F188.2285171394783
s(I4
I9
tp950
F186.14053441222237
s(I11
I5
tp951
F18.773090209429995
s(I5
I12
tp952
F187.9184454530355
s(I4
I1
tp953
F22.710750569441906
s(I4
I10
tp954
F187.36831826741118
s(I2
I6
tp955
F229.50806068623427
s(I10
I4
tp956
F18.73683182674112
s(I5
I11
tp957
F187.73090209429995
s(I1
I4
tp958
F227.10750569441905
s(I14
I6
tp959
F18.822851713947831
s(I13
I6
tp960
F18.743083272032305
s(I1
I0
tp961
F43.921154268999295
s(I0
I1
tp962
F439.21154268999294
s(I8
I3
tp963
F18.820101078019711
s(I3
I1
tp964
F22.828777856539485
s(I3
I8
tp965
F188.20101078019709
s(I2
I0
tp966
F44.125201443303588
s(I6
I13
tp967
F187.43083272032305
s(I5
I2
tp968
F22.819275659696885
s(I0
I2
tp969
F441.25201443303587
ssS'MEAN_EXTERNAL'
p970
I0
sS'PER_LINK_EXTERNAL'
p971
g11
(tRp972
ssS'CACHE_HIT_RATIO'
p973
g11
(tRp974
S'PER_NODE_SERVER_HIT_RATIO'
p975
g11
(tRp976
I0
F0.58684000000000003
ssS'PER_NODE_CACHE_HIT_RATIO'
p977
g11
(tRp978
I1
F0.010786666666666667
sI2
F0.010963333333333334
sI3
F0.098138333333333327
sI4
F0.097578333333333336
sI5
F0.09828166666666667
sI6
F0.09741166666666666
ssg936
F0.41316000000000003
ssS'PATH_STRETCH'
p979
g11
(tRp980
S'MEAN_REQUEST'
p981
F0.5488575
sS'MEAN_CONTENT'
p982
F0.5488575
sg936
F0.5488575
sstp983
a(g11
(tRp984
S'workload'
p985
g11
(tRp986
S'n_contents'
p987
I300000
sS'name'
p988
S'STATIONARY'
p989
sS'n_warmup'
p990
I300000
sS'rate'
p991
F1
sS'n_measured'
p992
I600000
sS'alpha'
p993
F1
ssS'cache_policy'
p994
g11
(tRp995
g988
S'LRU'
p996
ssS'strategy'
p997
g11
(tRp998
g988
S'LCE'
p999
ssS'content_placement'
p1000
g11
(tRp1001
g988
S'UNIFORM'
p1002
ssS'cache_placement'
p1003
g11
(tRp1004
S'network_cache'
p1005
I1
sS'uCache_budget'
p1006
F300000
sg988
S'UNIFORM_with_uCache'
p1007
sS'nCache_budget'
p1008
F300000
ssS'desc'
p1009
S'strategy: LCE, network cache: 1'
p1010
sS'topology'
p1011
g11
(tRp1012
S'h'
I3
sS'k'
I2
sg988
S'TREE_with_uCache'
p1013
ssg11
(tRp1014
S'LATENCY'
p1015
g11
(tRp1016
S'MEAN'
p1017
F2.7756666666666665
ssS'LINK_LOAD'
p1018
g11
(tRp1019
S'MEAN_INTERNAL'
p1020
F81.571978312787351
sS'PER_LINK_INTERNAL'
p1021
g11
(tRp1022
(I7
I3
tp1023
F18.667200927175866
s(I1
I3
tp1024
F79.095350566377931
s(I12
I5
tp1025
F18.792127694621502
s(I6
I2
tp1026
F7.8983140895019579
s(I9
I4
tp1027
F18.734526729990879
s(I3
I7
tp1028
F186.67200927175867
s(I2
I5
tp1029
F79.18511830346462
s(I6
I14
tp1030
F187.30287697961785
s(I4
I9
tp1031
F187.34526729990878
s(I11
I5
tp1032
F18.683907700467
s(I5
I12
tp1033
F187.92127694621502
s(I4
I1
tp1034
F7.9636450537150445
s(I4
I10
tp1035
F186.79419313612667
s(I2
I6
tp1036
F78.983140895019574
s(I10
I4
tp1037
F18.679419313612666
s(I5
I11
tp1038
F186.83907700467
s(I1
I4
tp1039
F79.636450537150452
s(I14
I6
tp1040
F18.730287697961785
s(I13
I6
tp1041
F18.628550929263543
s(I1
I0
tp1042
F13.205083480276407
s(I0
I1
tp1043
F132.05083480276406
s(I8
I3
tp1044
F18.696874151379522
s(I3
I1
tp1045
F7.9095350566377931
s(I3
I8
tp1046
F186.96874151379521
s(I2
I0
tp1047
F13.129778323053689
s(I6
I13
tp1048
F186.28550929263545
s(I5
I2
tp1049
F7.9185118303464623
s(I0
I2
tp1050
F131.29778323053688
ssS'MEAN_EXTERNAL'
p1051
I0
sS'PER_LINK_EXTERNAL'
p1052
g11
(tRp1053
ssS'CACHE_HIT_RATIO'
p1054
g11
(tRp1055
S'PER_NODE_SERVER_HIT_RATIO'
p1056
g11
(tRp1057
I0
F0.17602000000000001
ssS'PER_NODE_CACHE_HIT_RATIO'
p1058
g11
(tRp1059
I1
F0.017833333333333333
sI2
F0.01796
sI3
F0.19687166666666667
sI4
F0.19684333333333334
sI5
F0.19756000000000001
sI6
F0.19691166666666668
ssg1017
F0.82398000000000005
ssS'PATH_STRETCH'
p1060
g11
(tRp1061
S'MEAN_REQUEST'
p1062
F0.34695833333333331
sS'MEAN_CONTENT'
p1063
F0.34695833333333331
sg1017
F0.34695833333333331
sstp1064
a(g11
(tRp1065
S'workload'
p1066
g11
(tRp1067
S'n_contents'
p1068
I300000
sS'name'
p1069
S'STATIONARY'
p1070
sS'n_warmup'
p1071
I300000
sS'rate'
p1072
F1
sS'n_measured'
p1073
I600000
sS'alpha'
p1074
F1
ssS'cache_policy'
p1075
g11
(tRp1076
g1069
S'LRU'
p1077
ssS'strategy'
p1078
g11
(tRp1079
g1069
S'LCE'
p1080
ssS'content_placement'
p1081
g11
(tRp1082
g1069
S'UNIFORM'
p1083
ssS'cache_placement'
p1084
g11
(tRp1085
S'network_cache'
p1086
F0.0050000000000000001
sS'uCache_budget'
p1087
F1500
sg1069
S'UNIFORM_with_uCache'
p1088
sS'nCache_budget'
p1089
F1500
ssS'desc'
p1090
S'strategy: LCE, network cache: 0.005'
p1091
sS'topology'
p1092
g11
(tRp1093
S'h'
I3
sS'k'
I2
sg1069
S'TREE_with_uCache'
p1094
ssg11
(tRp1095
S'LATENCY'
p1096
g11
(tRp1097
S'MEAN'
p1098
F4.6222133333333337
ssS'LINK_LOAD'
p1099
g11
(tRp1100
S'MEAN_INTERNAL'
p1101
F136.14659268775841
sS'PER_LINK_INTERNAL'
p1102
g11
(tRp1103
(I7
I3
tp1104
F18.682014251120211
s(I1
I3
tp1105
F249.99989961045281
s(I12
I5
tp1106
F18.670268014634193
s(I6
I2
tp1107
F24.964501331661999
s(I9
I4
tp1108
F18.728749277139038
s(I3
I7
tp1109
F186.82014251120211
s(I2
I5
tp1110
F249.67250450839578
s(I6
I14
tp1111
F187.33747675643727
s(I4
I9
tp1112
F187.28749277139039
s(I11
I5
tp1113
F18.788480139270053
s(I5
I12
tp1114
F186.70268014634195
s(I4
I1
tp1115
F24.988243724559265
s(I4
I10
tp1116
F187.58989588092399
s(I2
I6
tp1117
F249.64501331661998
s(I10
I4
tp1118
F18.758989588092398
s(I5
I11
tp1119
F187.88480139270055
s(I1
I4
tp1120
F249.88243724559266
s(I14
I6
tp1121
F18.733747675643727
s(I13
I6
tp1122
F18.806724293812163
s(I1
I0
tp1123
F48.382748085898903
s(I0
I1
tp1124
F483.82748085898902
s(I8
I3
tp1125
F18.782981900914898
s(I3
I1
tp1126
F24.99998996104528
s(I3
I8
tp1127
F187.82981900914899
s(I2
I0
tp1128
F48.300274510571562
s(I6
I13
tp1129
F188.06724293812164
s(I5
I2
tp1130
F24.967250450839579
s(I0
I2
tp1131
F483.00274510571558
ssS'MEAN_EXTERNAL'
p1132
I0
sS'PER_LINK_EXTERNAL'
p1133
g11
(tRp1134
ssS'CACHE_HIT_RATIO'
p1135
g11
(tRp1136
S'PER_NODE_SERVER_HIT_RATIO'
p1137
g11
(tRp1138
I0
F0.64476
ssS'PER_NODE_CACHE_HIT_RATIO'
p1139
g11
(tRp1140
I1
F0.010706666666666666
sI2
F0.010880000000000001
sI3
F0.083126666666666668
sI4
F0.083356666666666662
sI5
F0.083303333333333326
sI6
F0.083866666666666673
ssg1098
F0.35524
ssS'PATH_STRETCH'
p1141
g11
(tRp1142
S'MEAN_REQUEST'
p1143
F0.57777666666666672
sS'MEAN_CONTENT'
p1144
F0.57777666666666672
sg1098
F0.57777666666666672
sstp1145
a(g11
(tRp1146
S'workload'
p1147
g11
(tRp1148
S'n_contents'
p1149
I300000
sS'name'
p1150
S'STATIONARY'
p1151
sS'n_warmup'
p1152
I300000
sS'rate'
p1153
F1
sS'n_measured'
p1154
I600000
sS'alpha'
p1155
F1
ssS'cache_policy'
p1156
g11
(tRp1157
g1150
S'LRU'
p1158
ssS'strategy'
p1159
g11
(tRp1160
g1150
S'LCE'
p1161
ssS'content_placement'
p1162
g11
(tRp1163
g1150
S'UNIFORM'
p1164
ssS'cache_placement'
p1165
g11
(tRp1166
S'network_cache'
p1167
F0.001
sS'uCache_budget'
p1168
F300
sg1150
S'UNIFORM_with_uCache'
p1169
sS'nCache_budget'
p1170
F0
ssS'desc'
p1171
S'strategy: LCE, network cache: 0.001'
p1172
sS'topology'
p1173
g11
(tRp1174
S'h'
I3
sS'k'
I2
sg1150
S'TREE_with_uCache'
p1175
ssg11
(tRp1176
S'LATENCY'
p1177
g11
(tRp1178
S'MEAN'
p1179
F5.9533766666666663
ssS'LINK_LOAD'
p1180
g11
(tRp1181
S'MEAN_INTERNAL'
p1182
F175.37499560657378
sS'PER_LINK_INTERNAL'
p1183
g11
(tRp1184
(I7
I3
tp1185
F18.855022521223123
s(I1
I3
tp1186
F371.37165891660896
s(I12
I5
tp1187
F18.83252726661113
s(I6
I2
tp1188
F37.215899282802859
s(I9
I4
tp1189
F18.661813278833474
s(I3
I7
tp1190
F188.55022521223123
s(I2
I5
tp1191
F371.77907297235947
s(I6
I14
tp1192
F188.31777424790732
s(I4
I9
tp1193
F186.61813278833475
s(I11
I5
tp1194
F18.702554684408522
s(I5
I12
tp1195
F188.32527266611132
s(I4
I1
tp1196
F37.021440304045882
s(I4
I10
tp1197
F187.22300519012381
s(I2
I6
tp1198
F372.1589928280286
s(I10
I4
tp1199
F18.722300519012379
s(I5
I11
tp1200
F187.02554684408523
s(I1
I4
tp1201
F370.21440304045882
s(I14
I6
tp1202
F18.831777424790733
s(I13
I6
tp1203
F18.726049728114379
s(I1
I0
tp1204
F73.823926796535062
s(I0
I1
tp1205
F738.23926796535056
s(I8
I3
tp1206
F18.636318656939885
s(I3
I1
tp1207
F37.137165891660899
s(I3
I8
tp1208
F186.36318656939886
s(I2
I0
tp1209
F74.064376073609893
s(I6
I13
tp1210
F187.26049728114378
s(I5
I2
tp1211
F37.177907297235947
s(I0
I2
tp1212
F740.6437607360989
ssS'MEAN_EXTERNAL'
p1213
I0
sS'PER_LINK_EXTERNAL'
p1214
g11
(tRp1215
ssS'CACHE_HIT_RATIO'
p1216
g11
(tRp1217
S'PER_NODE_SERVER_HIT_RATIO'
p1218
g11
(tRp1219
I0
F0.98612999999999995
ssS'PER_NODE_CACHE_HIT_RATIO'
p1220
g11
(tRp1221
I1
F0.0022316666666666665
sI2
F0.0021966666666666666
sI3
F0.0023616666666666669
sI4
F0.0024183333333333335
sI5
F0.0023816666666666665
sI6
F0.0022799999999999999
ssg1179
F0.01387
ssS'PATH_STRETCH'
p1222
g11
(tRp1223
S'MEAN_REQUEST'
p1224
F0.74417208333333329
sS'MEAN_CONTENT'
p1225
F0.74417208333333329
sg1179
F0.74417208333333329
sstp1226
a(g11
(tRp1227
S'workload'
p1228
g11
(tRp1229
S'n_contents'
p1230
I300000
sS'name'
p1231
S'STATIONARY'
p1232
sS'n_warmup'
p1233
I300000
sS'rate'
p1234
F1
sS'n_measured'
p1235
I600000
sS'alpha'
p1236
F1
ssS'cache_policy'
p1237
g11
(tRp1238
g1231
S'LRU'
p1239
ssS'strategy'
p1240
g11
(tRp1241
g1231
S'LCE'
p1242
ssS'content_placement'
p1243
g11
(tRp1244
g1231
S'UNIFORM'
p1245
ssS'cache_placement'
p1246
g11
(tRp1247
S'network_cache'
p1248
F0.0050000000000000001
sS'uCache_budget'
p1249
F1500
sg1231
S'UNIFORM_with_uCache'
p1250
sS'nCache_budget'
p1251
F0
ssS'desc'
p1252
S'strategy: LCE, network cache: 0.005'
p1253
sS'topology'
p1254
g11
(tRp1255
S'h'
I3
sS'k'
I2
sg1231
S'TREE_with_uCache'
p1256
ssg11
(tRp1257
S'LATENCY'
p1258
g11
(tRp1259
S'MEAN'
p1260
F5.9541500000000003
ssS'LINK_LOAD'
p1261
g11
(tRp1262
S'MEAN_INTERNAL'
p1263
F175.64421275513305
sS'PER_LINK_INTERNAL'
p1264
g11
(tRp1265
(I7
I3
tp1266
F18.813182604381296
s(I1
I3
tp1267
F372.52419320347474
s(I12
I5
tp1268
F18.746853514401373
s(I6
I2
tp1269
F37.197353660741499
s(I9
I4
tp1270
F18.754612766436761
s(I3
I7
tp1271
F188.13182604381296
s(I2
I5
tp1272
F370.9072651986811
s(I6
I14
tp1273
F187.95161115782977
s(I4
I9
tp1274
F187.54612766436759
s(I11
I5
tp1275
F18.693289645511925
s(I5
I12
tp1276
F187.46853514401371
s(I4
I1
tp1277
F37.234147533296401
s(I4
I10
tp1278
F188.31954988337878
s(I2
I6
tp1279
F371.97353660741499
s(I10
I4
tp1280
F18.831954988337881
s(I5
I11
tp1281
F186.93289645511925
s(I1
I4
tp1282
F372.34147533296402
s(I14
I6
tp1283
F18.795161115782978
s(I13
I6
tp1284
F18.745852320590355
s(I1
I0
tp1285
F74.172692593889821
s(I0
I1
tp1286
F741.72692593889815
s(I8
I3
tp1287
F18.798164697216031
s(I3
I1
tp1288
F37.252419320347471
s(I3
I8
tp1289
F187.98164697216032
s(I2
I0
tp1290
F73.967948459536686
s(I6
I13
tp1291
F187.45852320590356
s(I5
I2
tp1292
F37.090726519868113
s(I0
I2
tp1293
F739.67948459536694
ssS'MEAN_EXTERNAL'
p1294
I0
sS'PER_LINK_EXTERNAL'
p1295
g11
(tRp1296
ssS'CACHE_HIT_RATIO'
p1297
g11
(tRp1298
S'PER_NODE_SERVER_HIT_RATIO'
p1299
g11
(tRp1300
I0
F0.98642666666666667
ssS'PER_NODE_CACHE_HIT_RATIO'
p1301
g11
(tRp1302
I1
F0.0020899999999999998
sI2
F0.0021316666666666667
sI3
F0.0023900000000000002
sI4
F0.0023466666666666666
sI5
F0.0023266666666666666
sI6
F0.0022883333333333332
ssg1260
F0.013573333333333333
ssS'PATH_STRETCH'
p1303
g11
(tRp1304
S'MEAN_REQUEST'
p1305
F0.74426875000000003
sS'MEAN_CONTENT'
p1306
F0.74426875000000003
sg1260
F0.74426875000000003
sstp1307
a(g11
(tRp1308
S'workload'
p1309
g11
(tRp1310
S'n_contents'
p1311
I300000
sS'name'
p1312
S'STATIONARY'
p1313
sS'n_warmup'
p1314
I300000
sS'rate'
p1315
F1
sS'n_measured'
p1316
I600000
sS'alpha'
p1317
F1
ssS'cache_policy'
p1318
g11
(tRp1319
g1312
S'LRU'
p1320
ssS'strategy'
p1321
g11
(tRp1322
g1312
S'LCE'
p1323
ssS'content_placement'
p1324
g11
(tRp1325
g1312
S'UNIFORM'
p1326
ssS'cache_placement'
p1327
g11
(tRp1328
S'network_cache'
p1329
F0.10000000000000001
sS'uCache_budget'
p1330
F30000
sg1312
S'UNIFORM_with_uCache'
p1331
sS'nCache_budget'
p1332
F0
ssS'desc'
p1333
S'strategy: LCE, network cache: 0.1'
p1334
sS'topology'
p1335
g11
(tRp1336
S'h'
I3
sS'k'
I2
sg1312
S'TREE_with_uCache'
p1337
ssg11
(tRp1338
S'LATENCY'
p1339
g11
(tRp1340
S'MEAN'
p1341
F5.9531499999999999
ssS'LINK_LOAD'
p1342
g11
(tRp1343
S'MEAN_INTERNAL'
p1344
F175.31942521132569
sS'PER_LINK_INTERNAL'
p1345
g11
(tRp1346
(I7
I3
tp1347
F18.735321747302798
s(I1
I3
tp1348
F372.36508195221472
s(I12
I5
tp1349
F18.718829826535078
s(I6
I2
tp1350
F37.174788431136221
s(I9
I4
tp1351
F18.729824440380224
s(I3
I7
tp1352
F187.35321747302797
s(I2
I5
tp1353
F371.02573808380612
s(I6
I14
tp1354
F187.8004983544555
s(I4
I9
tp1355
F187.29824440380224
s(I11
I5
tp1356
F18.754312443944414
s(I5
I12
tp1357
F187.1882982653508
s(I4
I1
tp1358
F36.991628159579598
s(I4
I10
tp1359
F186.08883688083625
s(I2
I6
tp1360
F371.74788431136227
s(I10
I4
tp1361
F18.608883688083623
s(I5
I11
tp1362
F187.54312443944414
s(I1
I4
tp1363
F369.91628159579597
s(I14
I6
tp1364
F18.780049835445549
s(I13
I6
tp1365
F18.752063545657904
s(I1
I0
tp1366
F73.885054427315055
s(I0
I1
tp1367
F738.85054427315049
s(I8
I3
tp1368
F18.84726690645337
s(I3
I1
tp1369
F37.236508195221475
s(I3
I8
tp1370
F188.4726690645337
s(I2
I0
tp1371
F73.950522355211149
s(I6
I13
tp1372
F187.52063545657907
s(I5
I2
tp1373
F37.102573808380612
s(I0
I2
tp1374
F739.50522355211149
ssS'MEAN_EXTERNAL'
p1375
I0
sS'PER_LINK_EXTERNAL'
p1376
g11
(tRp1377
ssS'CACHE_HIT_RATIO'
p1378
g11
(tRp1379
S'PER_NODE_SERVER_HIT_RATIO'
p1380
g11
(tRp1381
I0
F0.98605333333333334
ssS'PER_NODE_CACHE_HIT_RATIO'
p1382
g11
(tRp1383
I1
F0.0022883333333333332
sI2
F0.0021800000000000001
sI3
F0.0023083333333333332
sI4
F0.0023149999999999998
sI5
F0.0024716666666666667
sI6
F0.0023833333333333332
ssg1341
F0.013946666666666666
ssS'PATH_STRETCH'
p1384
g11
(tRp1385
S'MEAN_REQUEST'
p1386
F0.74414374999999999
sS'MEAN_CONTENT'
p1387
F0.74414374999999999
sg1341
F0.74414374999999999
sstp1388
a(g11
(tRp1389
S'workload'
p1390
g11
(tRp1391
S'n_contents'
p1392
I300000
sS'name'
p1393
S'STATIONARY'
p1394
sS'n_warmup'
p1395
I300000
sS'rate'
p1396
F1
sS'n_measured'
p1397
I600000
sS'alpha'
p1398
F1
ssS'cache_policy'
p1399
g11
(tRp1400
g1393
S'LRU'
p1401
ssS'strategy'
p1402
g11
(tRp1403
g1393
S'LCE'
p1404
ssS'content_placement'
p1405
g11
(tRp1406
g1393
S'UNIFORM'
p1407
ssS'cache_placement'
p1408
g11
(tRp1409
S'network_cache'
p1410
F0.01
sS'uCache_budget'
p1411
F3000
sg1393
S'UNIFORM_with_uCache'
p1412
sS'nCache_budget'
p1413
F0
ssS'desc'
p1414
S'strategy: LCE, network cache: 0.01'
p1415
sS'topology'
p1416
g11
(tRp1417
S'h'
I3
sS'k'
I2
sg1393
S'TREE_with_uCache'
p1418
ssg11
(tRp1419
S'LATENCY'
p1420
g11
(tRp1421
S'MEAN'
p1422
F5.9530399999999997
ssS'LINK_LOAD'
p1423
g11
(tRp1424
S'MEAN_INTERNAL'
p1425
F175.32391717829211
sS'PER_LINK_INTERNAL'
p1426
g11
(tRp1427
(I7
I3
tp1428
F18.796371130092872
s(I1
I3
tp1429
F371.4244299036792
s(I12
I5
tp1430
F18.745643742871444
s(I6
I2
tp1431
F37.162683967535088
s(I9
I4
tp1432
F18.743894522622426
s(I3
I7
tp1433
F187.96371130092874
s(I2
I5
tp1434
F370.71224737372313
s(I6
I14
tp1435
F186.74175601268834
s(I4
I9
tp1436
F187.43894522622426
s(I11
I5
tp1437
F18.686670031618942
s(I5
I12
tp1438
F187.45643742871442
s(I4
I1
tp1439
F37.112456357527662
s(I4
I10
tp1440
F187.37147530233369
s(I2
I6
tp1441
F371.62683967535088
s(I10
I4
tp1442
F18.737147530233369
s(I5
I11
tp1443
F186.86670031618939
s(I1
I4
tp1444
F371.12456357527662
s(I14
I6
tp1445
F18.674175601268836
s(I13
I6
tp1446
F18.841850856567259
s(I1
I0
tp1447
F73.942288700535926
s(I0
I1
tp1448
F739.42288700535926
s(I8
I3
tp1449
F18.707410786000118
s(I3
I1
tp1450
F37.142442990367918
s(I3
I8
tp1451
F187.07410786000116
s(I2
I0
tp1452
F73.914800953765692
s(I6
I13
tp1453
F188.4185085656726
s(I5
I2
tp1454
F37.071224737372312
s(I0
I2
tp1455
F739.14800953765689
ssS'MEAN_EXTERNAL'
p1456
I0
sS'PER_LINK_EXTERNAL'
p1457
g11
(tRp1458
ssS'CACHE_HIT_RATIO'
p1459
g11
(tRp1460
S'PER_NODE_SERVER_HIT_RATIO'
p1461
g11
(tRp1462
I0
F0.98615333333333333
ssS'PER_NODE_CACHE_HIT_RATIO'
p1463
g11
(tRp1464
I1
F0.002085
sI2
F0.0021283333333333332
sI3
F0.0024099999999999998
sI4
F0.0024583333333333332
sI5
F0.0024083333333333335
sI6
F0.0023566666666666666
ssg1422
F0.013846666666666667
ssS'PATH_STRETCH'
p1465
g11
(tRp1466
S'MEAN_REQUEST'
p1467
F0.74412999999999996
sS'MEAN_CONTENT'
p1468
F0.74412999999999996
sg1422
F0.74412999999999996
sstp1469
a(g11
(tRp1470
S'workload'
p1471
g11
(tRp1472
S'n_contents'
p1473
I300000
sS'name'
p1474
S'STATIONARY'
p1475
sS'n_warmup'
p1476
I300000
sS'rate'
p1477
F1
sS'n_measured'
p1478
I600000
sS'alpha'
p1479
F1
ssS'cache_policy'
p1480
g11
(tRp1481
g1474
S'LRU'
p1482
ssS'strategy'
p1483
g11
(tRp1484
g1474
S'LCE'
p1485
ssS'content_placement'
p1486
g11
(tRp1487
g1474
S'UNIFORM'
p1488
ssS'cache_placement'
p1489
g11
(tRp1490
S'network_cache'
p1491
F0.050000000000000003
sS'uCache_budget'
p1492
F15000
sg1474
S'UNIFORM_with_uCache'
p1493
sS'nCache_budget'
p1494
F0
ssS'desc'
p1495
S'strategy: LCE, network cache: 0.05'
p1496
sS'topology'
p1497
g11
(tRp1498
S'h'
I3
sS'k'
I2
sg1474
S'TREE_with_uCache'
p1499
ssg11
(tRp1500
S'LATENCY'
p1501
g11
(tRp1502
S'MEAN'
p1503
F5.9538900000000003
ssS'LINK_LOAD'
p1504
g11
(tRp1505
S'MEAN_INTERNAL'
p1506
F175.5861017792968
sS'PER_LINK_INTERNAL'
p1507
g11
(tRp1508
(I7
I3
tp1509
F18.854321782245577
s(I1
I3
tp1510
F372.52980981504396
s(I12
I5
tp1511
F18.774499506587819
s(I6
I2
tp1512
F37.22245334003027
s(I9
I4
tp1513
F18.776751545712958
s(I3
I7
tp1514
F188.54321782245577
s(I2
I5
tp1515
F371.68404401026896
s(I6
I14
tp1516
F188.72838548385621
s(I4
I9
tp1517
F187.7675154571296
s(I11
I5
tp1518
F18.73121031007123
s(I5
I12
tp1519
F187.74499506587819
s(I4
I1
tp1520
F37.08307714084102
s(I4
I10
tp1521
F186.49636448427253
s(I2
I6
tp1522
F372.22453340030268
s(I10
I4
tp1523
F18.649636448427252
s(I5
I11
tp1524
F187.31210310071231
s(I1
I4
tp1525
F370.83077140841021
s(I14
I6
tp1526
F18.872838548385619
s(I13
I6
tp1527
F18.717698075320389
s(I1
I0
tp1528
F74.008261316352744
s(I0
I1
tp1529
F740.08261316352741
s(I8
I3
tp1530
F18.758985459281295
s(I3
I1
tp1531
F37.252980981504393
s(I3
I8
tp1532
F187.58985459281297
s(I2
I0
tp1533
F74.075322036968032
s(I6
I13
tp1534
F187.17698075320388
s(I5
I2
tp1535
F37.168404401026898
s(I0
I2
tp1536
F740.75322036968043
ssS'MEAN_EXTERNAL'
p1537
I0
sS'PER_LINK_EXTERNAL'
p1538
g11
(tRp1539
ssS'CACHE_HIT_RATIO'
p1540
g11
(tRp1541
S'PER_NODE_SERVER_HIT_RATIO'
p1542
g11
(tRp1543
I0
F0.98633000000000004
ssS'PER_NODE_CACHE_HIT_RATIO'
p1544
g11
(tRp1545
I1
F0.0021833333333333331
sI2
F0.0021016666666666666
sI3
F0.0023999999999999998
sI4
F0.0022866666666666669
sI5
F0.0022466666666666668
sI6
F0.0024516666666666667
ssg1503
F0.01367
ssS'PATH_STRETCH'
p1546
g11
(tRp1547
S'MEAN_REQUEST'
p1548
F0.74423625000000004
sS'MEAN_CONTENT'
p1549
F0.74423625000000004
sg1503
F0.74423625000000004
sstp1550
a(g11
(tRp1551
S'workload'
p1552
g11
(tRp1553
S'n_contents'
p1554
I300000
sS'name'
p1555
S'STATIONARY'
p1556
sS'n_warmup'
p1557
I300000
sS'rate'
p1558
F1
sS'n_measured'
p1559
I600000
sS'alpha'
p1560
F1
ssS'cache_policy'
p1561
g11
(tRp1562
g1555
S'LRU'
p1563
ssS'strategy'
p1564
g11
(tRp1565
g1555
S'LCE'
p1566
ssS'content_placement'
p1567
g11
(tRp1568
g1555
S'UNIFORM'
p1569
ssS'cache_placement'
p1570
g11
(tRp1571
S'network_cache'
p1572
F0.5
sS'uCache_budget'
p1573
F150000
sg1555
S'UNIFORM_with_uCache'
p1574
sS'nCache_budget'
p1575
F0
ssS'desc'
p1576
S'strategy: LCE, network cache: 0.5'
p1577
sS'topology'
p1578
g11
(tRp1579
S'h'
I3
sS'k'
I2
sg1555
S'TREE_with_uCache'
p1580
ssg11
(tRp1581
S'LATENCY'
p1582
g11
(tRp1583
S'MEAN'
p1584
F5.9526833333333338
ssS'LINK_LOAD'
p1585
g11
(tRp1586
S'MEAN_INTERNAL'
p1587
F175.15833229764877
sS'PER_LINK_INTERNAL'
p1588
g11
(tRp1589
(I7
I3
tp1590
F18.572769627418783
s(I1
I3
tp1591
F369.78511658645294
s(I12
I5
tp1592
F18.686368366234156
s(I6
I2
tp1593
F37.158272300287202
s(I9
I4
tp1594
F18.754028274407705
s(I3
I7
tp1595
F185.72769627418782
s(I2
I5
tp1596
F370.638979634252
s(I6
I14
tp1597
F187.92976413430119
s(I4
I9
tp1598
F187.54028274407705
s(I11
I5
tp1599
F18.751781266387184
s(I5
I12
tp1600
F186.86368366234154
s(I4
I1
tp1601
F37.15402795180399
s(I4
I10
tp1602
F187.55775947312557
s(I2
I6
tp1603
F371.582723002872
s(I10
I4
tp1604
F18.755775947312557
s(I5
I11
tp1605
F187.51781266387181
s(I1
I4
tp1606
F371.54027951803988
s(I14
I6
tp1607
F18.792976413430118
s(I13
I6
tp1608
F18.718325813637161
s(I1
I0
tp1609
F73.8052254421263
s(I0
I1
tp1610
F738.052254421263
s(I8
I3
tp1611
F18.768508992762193
s(I3
I1
tp1612
F36.978511658645289
s(I3
I8
tp1613
F187.68508992762193
s(I2
I0
tp1614
F73.897103103409947
s(I6
I13
tp1615
F187.18325813637159
s(I5
I2
tp1616
F37.063897963425198
s(I0
I2
tp1617
F738.9710310340995
ssS'MEAN_EXTERNAL'
p1618
I0
sS'PER_LINK_EXTERNAL'
p1619
g11
(tRp1620
ssS'CACHE_HIT_RATIO'
p1621
g11
(tRp1622
S'PER_NODE_SERVER_HIT_RATIO'
p1623
g11
(tRp1624
I0
F0.98599333333333339
ssS'PER_NODE_CACHE_HIT_RATIO'
p1625
g11
(tRp1626
I1
F0.0021849999999999999
sI2
F0.0021700000000000001
sI3
F0.0024216666666666666
sI4
F0.0023749999999999999
sI5
F0.0024983333333333333
sI6
F0.0023566666666666666
ssg1584
F0.014006666666666667
ssS'PATH_STRETCH'
p1627
g11
(tRp1628
S'MEAN_REQUEST'
p1629
F0.74408541666666672
sS'MEAN_CONTENT'
p1630
F0.74408541666666672
sg1584
F0.74408541666666672
sstp1631
a(g11
(tRp1632
S'workload'
p1633
g11
(tRp1634
S'n_contents'
p1635
I300000
sS'name'
p1636
S'STATIONARY'
p1637
sS'n_warmup'
p1638
I300000
sS'rate'
p1639
F1
sS'n_measured'
p1640
I600000
sS'alpha'
p1641
F1
ssS'cache_policy'
p1642
g11
(tRp1643
g1636
S'LRU'
p1644
ssS'strategy'
p1645
g11
(tRp1646
g1636
S'LCE'
p1647
ssS'content_placement'
p1648
g11
(tRp1649
g1636
S'UNIFORM'
p1650
ssS'cache_placement'
p1651
g11
(tRp1652
S'network_cache'
p1653
I1
sS'uCache_budget'
p1654
F300000
sg1636
S'UNIFORM_with_uCache'
p1655
sS'nCache_budget'
p1656
I0
ssS'desc'
p1657
S'strategy: LCE, network cache: 1'
p1658
sS'topology'
p1659
g11
(tRp1660
S'h'
I3
sS'k'
I2
sg1636
S'TREE_with_uCache'
p1661
ssg11
(tRp1662
S'LATENCY'
p1663
g11
(tRp1664
S'MEAN'
p1665
F5.9535233333333331
ssS'LINK_LOAD'
p1666
g11
(tRp1667
S'MEAN_INTERNAL'
p1668
F175.57382714040651
sS'PER_LINK_INTERNAL'
p1669
g11
(tRp1670
(I7
I3
tp1671
F18.885442922526149
s(I1
I3
tp1672
F372.76192034497217
s(I12
I5
tp1673
F18.645978088585224
s(I6
I2
tp1674
F37.323484462516902
s(I9
I4
tp1675
F18.753824842429047
s(I3
I7
tp1676
F188.8544292252615
s(I2
I5
tp1677
F370.30721812871252
s(I6
I14
tp1678
F188.94451004053707
s(I4
I9
tp1679
F187.53824842429046
s(I11
I5
tp1680
F18.751072373073402
s(I5
I12
tp1681
F186.45978088585224
s(I4
I1
tp1682
F37.094529057024793
s(I4
I10
tp1683
F186.85763781998605
s(I2
I6
tp1684
F373.23484462516899
s(I10
I4
tp1685
F18.685763781998606
s(I5
I11
tp1686
F187.51072373073404
s(I1
I4
tp1687
F370.94529057024789
s(I14
I6
tp1688
F18.894451004053707
s(I13
I6
tp1689
F18.779097515603585
s(I1
I0
tp1690
F74.045179034095526
s(I0
I1
tp1691
F740.4517903409552
s(I8
I3
tp1692
F18.739061597703326
s(I3
I1
tp1693
F37.276192034497221
s(I3
I8
tp1694
F187.39061597703326
s(I2
I0
tp1695
F74.010397830419677
s(I6
I13
tp1696
F187.79097515603584
s(I5
I2
tp1697
F37.030721812871249
s(I0
I2
tp1698
F740.10397830419674
ssS'MEAN_EXTERNAL'
p1699
I0
sS'PER_LINK_EXTERNAL'
p1700
g11
(tRp1701
ssS'CACHE_HIT_RATIO'
p1702
g11
(tRp1703
S'PER_NODE_SERVER_HIT_RATIO'
p1704
g11
(tRp1705
I0
F0.98615166666666665
ssS'PER_NODE_CACHE_HIT_RATIO'
p1706
g11
(tRp1707
I1
F0.0021683333333333333
sI2
F0.0022899999999999999
sI3
F0.00232
sI4
F0.0022983333333333332
sI5
F0.0024399999999999999
sI6
F0.0023316666666666668
ssg1665
F0.013848333333333334
ssS'PATH_STRETCH'
p1708
g11
(tRp1709
S'MEAN_REQUEST'
p1710
F0.74419041666666663
sS'MEAN_CONTENT'
p1711
F0.74419041666666663
sg1665
F0.74419041666666663
sstp1712
atRp1713
sb.