ccopy_reg
_reconstructor
p1
(cicarus.results.readwrite
ResultSet
p2
c__builtin__
object
p3
NtRp4
(dp5
S'attr'
p6
(dp7
sS'_results'
p8
ccollections
deque
p9
((lp10
(cicarus.util
Tree
p11
(tRp12
S'workload'
p13
g11
(tRp14
S'time_interval'
p15
I1
sS'n_contents'
p16
I5
sS'name'
p17
S'STATIONARY'
p18
sS'n_warmup'
p19
I250
sS'rate'
p20
F10
sS'n_measured'
p21
I750
sS'alpha'
p22
F1
sS'n_segments'
p23
I5
ssS'cache_policy'
p24
g11
(tRp25
g17
S'LRU'
p26
ssS'strategy'
p27
g11
(tRp28
g17
S'C_LCF_UM'
p29
ssS'content_placement'
p30
g11
(tRp31
g16
I5
sg17
S'UNIFORM'
p32
sg23
I5
ssS'cache_placement'
p33
g11
(tRp34
S'network_cache'
p35
F0.001
sS'uCache_budget'
p36
F0.80500000000000005
sg17
S'UNIFORM_WITH_UCACHE'
p37
sS'nCache_budget'
p38
F0
ssS'desc'
p39
S'strategy: C_LCF_UM, time interval: 1, network cache: 0.001'
p40
sS'topology'
p41
g11
(tRp42
S'asn'
p43
I3257
sg17
S'ROCKET_FUEL_WITH_UCACHE'
p44
ssg11
(tRp45
S'LATENCY'
p46
g11
(tRp47
S'MEAN'
p48
F90.043199999999999
ssS'CACHING_EFFICIENCY'
p49
g11
(tRp50
g48
F0.0028378857750975522
ssS'SEGMENT_PERFORMANCE_DIFFERENCE'
p51
g11
(tRp52
S'CV'
p53
cnumpy.core.multiarray
scalar
p54
(cnumpy
dtype
p55
(S'f8'
I0
I1
tRp56
(I3
S'<'
NNNI-1
I-1
I0
tbS'\x00\x00\x00\x00\x00\x00\x00\x00'
tRp57
ssS'OVERHEAD_DISTRIBUTION'
p58
g11
(tRp59
g53
g54
(g56
S'\x00\x00\x00\x00\x00\x00\x00\x00'
tRp60
ssS'CACHE_EVICTION'
p61
g11
(tRp62
g48
g54
(g56
S'(\xb9S\xb4p\x06*@'
tRp63
ssS'CACHE_HIT_RATIO'
p64
g11
(tRp65
g48
F0.0021333333333333334
sstp66
a(g11
(tRp67
S'workload'
p68
g11
(tRp69
S'time_interval'
p70
I1
sS'n_contents'
p71
I5
sS'name'
p72
S'STATIONARY'
p73
sS'n_warmup'
p74
I250
sS'rate'
p75
F10
sS'n_measured'
p76
I750
sS'alpha'
p77
F1
sS'n_segments'
p78
I5
ssS'cache_policy'
p79
g11
(tRp80
g72
S'LRU'
p81
ssS'strategy'
p82
g11
(tRp83
g72
S'C_RANDOM_UM'
p84
ssS'content_placement'
p85
g11
(tRp86
g71
I5
sg72
S'UNIFORM'
p87
sg78
I5
ssS'cache_placement'
p88
g11
(tRp89
S'network_cache'
p90
F0.001
sS'uCache_budget'
p91
F0.80500000000000005
sg72
S'UNIFORM_WITH_UCACHE'
p92
sS'nCache_budget'
p93
F0
ssS'desc'
p94
S'strategy: C_RANDOM_UM, time interval: 1, network cache: 0.001'
p95
sS'topology'
p96
g11
(tRp97
S'asn'
p98
I3257
sg72
S'ROCKET_FUEL_WITH_UCACHE'
p99
ssg11
(tRp100
S'LATENCY'
p101
g11
(tRp102
S'MEAN'
p103
F86.747200000000007
ssS'CACHING_EFFICIENCY'
p104
g11
(tRp105
g103
F0.0013333333333333333
ssS'SEGMENT_PERFORMANCE_DIFFERENCE'
p106
g11
(tRp107
S'CV'
p108
g54
(g56
S'\x00\x00\x00\x00\x00\x00\x00\x00'
tRp109
ssS'OVERHEAD_DISTRIBUTION'
p110
g11
(tRp111
g108
g54
(g56
S'\x00\x00\x00\x00\x00\x00\x00\x00'
tRp112
ssS'CACHE_EVICTION'
p113
g11
(tRp114
g103
g54
(g56
S'\xe3\xad\xecsHM,@'
tRp115
ssS'CACHE_HIT_RATIO'
p116
g11
(tRp117
g103
F0.0010666666666666667
sstp118
a(g11
(tRp119
S'workload'
p120
g11
(tRp121
S'time_interval'
p122
I1
sS'n_contents'
p123
I5
sS'name'
p124
S'STATIONARY'
p125
sS'n_warmup'
p126
I250
sS'rate'
p127
F10
sS'n_measured'
p128
I750
sS'alpha'
p129
F1
sS'n_segments'
p130
I5
ssS'cache_policy'
p131
g11
(tRp132
g124
S'LRU'
p133
ssS'strategy'
p134
g11
(tRp135
g124
S'C_LFR_UM'
p136
ssS'content_placement'
p137
g11
(tRp138
g123
I5
sg124
S'UNIFORM'
p139
sg130
I5
ssS'cache_placement'
p140
g11
(tRp141
S'network_cache'
p142
F0.001
sS'uCache_budget'
p143
F0.80500000000000005
sg124
S'UNIFORM_WITH_UCACHE'
p144
sS'nCache_budget'
p145
F0
ssS'desc'
p146
S'strategy: C_LFR_UM, time interval: 1, network cache: 0.001'
p147
sS'topology'
p148
g11
(tRp149
S'asn'
p150
I3257
sg124
S'ROCKET_FUEL_WITH_UCACHE'
p151
ssg11
(tRp152
S'LATENCY'
p153
g11
(tRp154
S'MEAN'
p155
F88.152533333333338
ssS'CACHING_EFFICIENCY'
p156
g11
(tRp157
g155
F0.011088709677419355
ssS'SEGMENT_PERFORMANCE_DIFFERENCE'
p158
g11
(tRp159
S'CV'
p160
g54
(g56
S'\xb4\xbe\xd1\xf0~\xdf\xaa?'
tRp161
ssS'OVERHEAD_DISTRIBUTION'
p162
g11
(tRp163
g160
g54
(g56
S"'(Y\xda\xc7[\xdb?"
tRp164
ssS'CACHE_EVICTION'
p165
g11
(tRp166
g155
g54
(g56
S'\x00\x00\x00\x00\x00\x00,@'
tRp167
ssS'CACHE_HIT_RATIO'
p168
g11
(tRp169
g155
F0.0088000000000000005
sstp170
atRp171
sb.