ccopy_reg
_reconstructor
p1
(cicarus.results.readwrite
ResultSet
p2
c__builtin__
object
p3
NtRp4
(dp5
S'attr'
p6
(dp7
sS'_results'
p8
ccollections
deque
p9
((lp10
(cicarus.util
Tree
p11
(tRp12
S'workload'
p13
g11
(tRp14
S'n_contents'
p15
I300000
sS'name'
p16
S'STATIONARY'
p17
sS'n_warmup'
p18
I300000
sS'rate'
p19
F1
sS'n_measured'
p20
I900000
sS'alpha'
p21
F1
ssS'cache_policy'
p22
g11
(tRp23
g16
S'LRU'
p24
ssS'strategy'
p25
g11
(tRp26
g16
S'C_LFR_P2P'
p27
ssS'content_placement'
p28
g11
(tRp29
g16
S'UNIFORM'
p30
ssS'cache_placement'
p31
g11
(tRp32
S'network_cache'
p33
I0
sS'uCache_budget'
p34
F0
sg16
S'UNIFORM_with_uCache'
p35
sS'nCache_budget'
p36
F0
ssS'desc'
p37
S'strategy: C_LFR_P2P, network cache: 0'
p38
sS'topology'
p39
g11
(tRp40
g16
S'ROCKET_FUEL_with_uCache'
p41
sS'asn'
p42
I3257
ssg11
(tRp43
S'LATENCY'
p44
g11
(tRp45
S'MEAN'
p46
F77.713444444444448
ssS'CACHE_HIT_RATIO'
p47
g11
(tRp48
S'PER_NODE_SERVER_HIT_RATIO'
p49
g11
(tRp50
S'src_13'
p51
F0.043062222222222224
sS'src_14'
p52
F0.054104444444444441
sS'src_11'
p53
F0.04855333333333333
sS'src_15'
p54
F0.049431111111111113
sS'src_10'
p55
F0.046911111111111112
sS'src_12'
p56
F0.065626666666666666
sS'src_8'
p57
F0.046754444444444446
sS'src_9'
p58
F0.054886666666666667
sS'src_6'
p59
F0.05429888888888889
sS'src_7'
p60
F0.054125555555555559
sS'src_4'
p61
F0.043575555555555555
sS'src_5'
p62
F0.051798888888888887
sS'src_2'
p63
F0.058418888888888888
sS'src_3'
p64
F0.045872222222222224
sS'src_0'
p65
F0.07464888888888889
sS'src_1'
p66
F0.04598777777777778
ssS'PER_NODE_CACHE_HIT_RATIO'
p67
g11
(tRp68
S'rec_158'
p69
F0.00038333333333333334
sS'rec_159'
p70
F0.00035333333333333332
sS'rec_156'
p71
F0.0010211111111111111
sS'rec_157'
p72
F0.0010911111111111111
sS'rec_154'
p73
F0.00056555555555555558
sS'rec_155'
p74
F0.00049444444444444449
sS'rec_152'
p75
F0.00076333333333333331
sS'rec_153'
p76
F0.00030444444444444442
sS'rec_150'
p77
F0.00020555555555555556
sS'rec_151'
p78
F0.00027111111111111113
sS'rec_129'
p79
F0.00080111111111111116
sS'rec_128'
p80
F0.00089555555555555558
sS'rec_123'
p81
F0.0010411111111111111
sS'rec_122'
p82
F0.00053222222222222223
sS'rec_121'
p83
F0.00044555555555555554
sS'rec_120'
p84
F0.00043777777777777776
sS'rec_127'
p85
F0.00088444444444444443
sS'rec_126'
p86
F0.00040666666666666667
sS'rec_125'
p87
F0.00064444444444444445
sS'rec_124'
p88
F0.00056555555555555558
sS'rec_78'
p89
F0.0010488888888888889
sS'rec_79'
p90
F0.0012888888888888889
sS'rec_72'
p91
F0.0011622222222222223
sS'rec_73'
p92
F0.0010866666666666668
sS'rec_70'
p93
F0.00048888888888888886
sS'rec_71'
p94
F0.00086555555555555561
sS'rec_76'
p95
F0.00085999999999999998
sS'rec_77'
p96
F0.00080666666666666669
sS'rec_74'
p97
F0.00086444444444444448
sS'rec_75'
p98
F0.00055111111111111116
sS'rec_87'
p99
F0.0010466666666666667
sS'rec_86'
p100
F0.00044111111111111109
sS'rec_85'
p101
F0.00038000000000000002
sS'rec_84'
p102
F0.00039777777777777777
sS'rec_83'
p103
F0.0006244444444444444
sS'rec_82'
p104
F0.00055222222222222218
sS'rec_81'
p105
F0.00088888888888888893
sS'rec_80'
p106
F0.00055222222222222218
sS'rec_89'
p107
F0.00038000000000000002
sS'rec_88'
p108
F0.00039888888888888889
sS'rec_138'
p109
F0.00039555555555555557
sS'rec_139'
p110
F0.00046999999999999999
sS'rec_140'
p111
F0.00032222222222222222
sS'rec_130'
p112
F0.00074555555555555551
sS'rec_131'
p113
F0.00066666666666666664
sS'rec_132'
p114
F0.00071000000000000002
sS'rec_133'
p115
F0.0006333333333333333
sS'rec_134'
p116
F0.00054333333333333339
sS'rec_135'
p117
F0.00052333333333333333
sS'rec_136'
p118
F0.00035111111111111112
sS'rec_137'
p119
F0.00012999999999999999
sS'rec_69'
p120
F0.00059888888888888893
sS'rec_68'
p121
F0.00065444444444444447
sS'rec_61'
p122
F0.0011244444444444444
sS'rec_60'
p123
F0.0011733333333333333
sS'rec_63'
p124
F0.0011788888888888888
sS'rec_62'
p125
F0.00059555555555555555
sS'rec_65'
p126
F0.00086444444444444448
sS'rec_64'
p127
F0.00075555555555555554
sS'rec_67'
p128
F0.00062666666666666665
sS'rec_66'
p129
F0.00068000000000000005
sS'rec_90'
p130
F0.00033
sS'rec_91'
p131
F0.00060333333333333333
sS'rec_54'
p132
F0.0014577777777777777
sS'rec_55'
p133
F0.0010411111111111111
sS'rec_56'
p134
F0.001251111111111111
sS'rec_57'
p135
F0.0011733333333333333
sS'rec_50'
p136
F0.00076888888888888894
sS'rec_51'
p137
F0.0014577777777777777
sS'rec_52'
p138
F0.0011455555555555555
sS'rec_53'
p139
F0.0010822222222222223
sS'rec_58'
p140
F0.0015055555555555556
sS'rec_59'
p141
F0.0010755555555555555
sS'rec_43'
p142
F0.0025799999999999998
sS'rec_42'
p143
F0.0017377777777777778
sS'rec_41'
p144
F0.0017166666666666667
sS'rec_40'
p145
F0.0011911111111111111
sS'rec_47'
p146
F0.0015777777777777778
sS'rec_46'
p147
F0.00074111111111111112
sS'rec_45'
p148
F0.0012488888888888888
sS'rec_44'
p149
F0.0010311111111111111
sS'rec_49'
p150
F0.0013355555555555555
sS'rec_48'
p151
F0.0012711111111111111
sS'rec_6'
p152
F0.0028444444444444446
sS'rec_7'
p153
F0.0029744444444444445
sS'rec_4'
p154
F0.0016766666666666666
sS'rec_5'
p155
F0.0030944444444444444
sS'rec_2'
p156
F0.0033466666666666666
sS'rec_3'
p157
F0.0021555555555555555
sS'rec_0'
p158
F0.0032388888888888888
sS'rec_1'
p159
F0.0026533333333333335
sS'rec_8'
p160
F0.0020500000000000002
sS'rec_9'
p161
F0.0016144444444444444
sS'rec_105'
p162
F0.0009366666666666667
sS'rec_104'
p163
F0.00052444444444444446
sS'rec_107'
p164
F0.00070222222222222225
sS'rec_106'
p165
F0.00075888888888888892
sS'rec_101'
p166
F0.00071444444444444441
sS'rec_100'
p167
F0.00090888888888888888
sS'rec_103'
p168
F0.00015888888888888889
sS'rec_102'
p169
F0.00078222222222222224
sS'rec_109'
p170
F0.00057222222222222223
sS'rec_108'
p171
F0.0005355555555555555
sS'rec_160'
p172
F0.00033444444444444445
sS'rec_36'
p173
F0.0018355555555555556
sS'rec_37'
p174
F0.0016377777777777777
sS'rec_34'
p175
F0.0010566666666666667
sS'rec_35'
p176
F0.00148
sS'rec_32'
p177
F0.0009677777777777778
sS'rec_33'
p178
F0.00093444444444444445
sS'rec_30'
p179
F0.0012788888888888889
sS'rec_31'
p180
F0.00091111111111111113
sS'rec_38'
p181
F0.00059000000000000003
sS'rec_39'
p182
F0.00047555555555555556
sS'rec_112'
p183
F0.00093999999999999997
sS'rec_113'
p184
F0.00097444444444444445
sS'rec_110'
p185
F0.00076666666666666669
sS'rec_111'
p186
F0.00071444444444444441
sS'rec_116'
p187
F0.00088222222222222218
sS'rec_117'
p188
F0.00056333333333333333
sS'rec_114'
p189
F0.00066333333333333337
sS'rec_115'
p190
F0.0006022222222222222
sS'rec_118'
p191
F0.00052999999999999998
sS'rec_119'
p192
F0.00034444444444444442
sS'rec_25'
p193
F0.0013622222222222221
sS'rec_24'
p194
F0.0017066666666666667
sS'rec_27'
p195
F0.0016999999999999999
sS'rec_26'
p196
F0.00067888888888888892
sS'rec_21'
p197
F0.0011533333333333333
sS'rec_20'
p198
F0.0011077777777777778
sS'rec_23'
p199
F0.0012977777777777777
sS'rec_22'
p200
F0.0011666666666666668
sS'rec_29'
p201
F0.0012344444444444445
sS'rec_28'
p202
F0.0012677777777777778
sS'rec_98'
p203
F0.0017211111111111112
sS'rec_99'
p204
F0.0012366666666666667
sS'rec_143'
p205
F0.00098222222222222222
sS'rec_142'
p206
F0.00074222222222222224
sS'rec_145'
p207
F0.00092555555555555555
sS'rec_144'
p208
F0.00076777777777777782
sS'rec_147'
p209
F0.0008433333333333333
sS'rec_146'
p210
F0.00084000000000000003
sS'rec_149'
p211
F0.00060777777777777783
sS'rec_148'
p212
F0.00095111111111111112
sS'rec_92'
p213
F0.0010188888888888888
sS'rec_93'
p214
F0.00065333333333333335
sS'rec_94'
p215
F0.00075333333333333329
sS'rec_95'
p216
F0.00038555555555555554
sS'rec_96'
p217
F0.00087666666666666665
sS'rec_97'
p218
F0.00093333333333333332
sS'rec_10'
p219
F0.0017166666666666667
sS'rec_11'
p220
F0.0019433333333333334
sS'rec_12'
p221
F0.0014466666666666666
sS'rec_13'
p222
F0.0015822222222222223
sS'rec_14'
p223
F0.0016822222222222223
sS'rec_15'
p224
F0.001491111111111111
sS'rec_16'
p225
F0.0013622222222222221
sS'rec_17'
p226
F0.0011211111111111111
sS'rec_18'
p227
F0.0018033333333333334
sS'rec_19'
p228
F0.0016011111111111111
sS'rec_141'
p229
F0.00069222222222222222
ssg46
F0.16194333333333333
sstp230
a(g11
(tRp231
S'workload'
p232
g11
(tRp233
S'n_contents'
p234
I300000
sS'name'
p235
S'STATIONARY'
p236
sS'n_warmup'
p237
I300000
sS'rate'
p238
F1
sS'n_measured'
p239
I900000
sS'alpha'
p240
F1
ssS'cache_policy'
p241
g11
(tRp242
g235
S'LRU'
p243
ssS'strategy'
p244
g11
(tRp245
g235
S'C_LFR_P2P'
p246
ssS'content_placement'
p247
g11
(tRp248
g235
S'UNIFORM'
p249
ssS'cache_placement'
p250
g11
(tRp251
S'network_cache'
p252
F0.050000000000000003
sS'uCache_budget'
p253
F15000
sg235
S'UNIFORM_with_uCache'
p254
sS'nCache_budget'
p255
F0
ssS'desc'
p256
S'strategy: C_LFR_P2P, network cache: 0.05'
p257
sS'topology'
p258
g11
(tRp259
g235
S'ROCKET_FUEL_with_uCache'
p260
sS'asn'
p261
I3257
ssg11
(tRp262
S'LATENCY'
p263
g11
(tRp264
S'MEAN'
p265
F47.030839999999998
ssS'CACHE_HIT_RATIO'
p266
g11
(tRp267
S'PER_NODE_SERVER_HIT_RATIO'
p268
g11
(tRp269
S'src_13'
p270
F0.029587777777777779
sS'src_14'
p271
F0.030787777777777778
sS'src_11'
p272
F0.03000111111111111
sS'src_15'
p273
F0.028832222222222221
sS'src_10'
p274
F0.029536666666666666
sS'src_12'
p275
F0.028070000000000001
sS'src_8'
p276
F0.029585555555555556
sS'src_9'
p277
F0.028803333333333334
sS'src_6'
p278
F0.030212222222222224
sS'src_7'
p279
F0.031055555555555555
sS'src_4'
p280
F0.028267777777777777
sS'src_5'
p281
F0.031628888888888887
sS'src_2'
p282
F0.030003333333333333
sS'src_3'
p283
F0.030162222222222222
sS'src_0'
p284
F0.033488888888888887
sS'src_1'
p285
F0.028942222222222223
ssS'PER_NODE_CACHE_HIT_RATIO'
p286
g11
(tRp287
S'rec_158'
p288
F0.0022977777777777779
sS'rec_159'
p289
F0.0021988888888888887
sS'rec_156'
p290
F0.0030577777777777778
sS'rec_157'
p291
F0.0033466666666666666
sS'rec_154'
p292
F0.0023366666666666666
sS'rec_155'
p293
F0.0022399999999999998
sS'rec_152'
p294
F0.0025455555555555557
sS'rec_153'
p295
F0.0020899999999999998
sS'rec_150'
p296
F0.0019499999999999999
sS'rec_151'
p297
F0.0022166666666666667
sS'rec_129'
p298
F0.0025144444444444446
sS'rec_128'
p299
F0.0025488888888888887
sS'rec_123'
p300
F0.0030544444444444443
sS'rec_122'
p301
F0.0020666666666666667
sS'rec_121'
p302
F0.0022322222222222222
sS'rec_120'
p303
F0.0020822222222222223
sS'rec_127'
p304
F0.0024511111111111109
sS'rec_126'
p305
F0.0020355555555555556
sS'rec_125'
p306
F0.0022288888888888888
sS'rec_124'
p307
F0.0020377777777777777
sS'rec_78'
p308
F0.0031333333333333335
sS'rec_79'
p309
F0.0030488888888888887
sS'rec_72'
p310
F0.0031677777777777776
sS'rec_73'
p311
F0.0029288888888888889
sS'rec_70'
p312
F0.002498888888888889
sS'rec_71'
p313
F0.0026622222222222221
sS'rec_76'
p314
F0.0027444444444444443
sS'rec_77'
p315
F0.0025444444444444447
sS'rec_74'
p316
F0.0024933333333333335
sS'rec_75'
p317
F0.0024755555555555555
sS'rec_87'
p318
F0.0025833333333333333
sS'rec_86'
p319
F0.0022777777777777779
sS'rec_85'
p320
F0.0021733333333333335
sS'rec_84'
p321
F0.0021166666666666669
sS'rec_83'
p322
F0.0022244444444444443
sS'rec_82'
p323
F0.0025755555555555558
sS'rec_81'
p324
F0.0028766666666666667
sS'rec_80'
p325
F0.0023055555555555555
sS'rec_89'
p326
F0.0022522222222222223
sS'rec_88'
p327
F0.0021933333333333332
sS'rec_138'
p328
F0.0021900000000000001
sS'rec_139'
p329
F0.002311111111111111
sS'rec_99'
p330
F0.0035422222222222222
sS'rec_130'
p331
F0.0028455555555555556
sS'rec_131'
p332
F0.0025211111111111111
sS'rec_132'
p333
F0.0023833333333333332
sS'rec_133'
p334
F0.0022922222222222224
sS'rec_134'
p335
F0.0022366666666666668
sS'rec_135'
p336
F0.0021077777777777779
sS'rec_136'
p337
F0.002161111111111111
sS'rec_137'
p338
F0.0019211111111111111
sS'rec_69'
p339
F0.0026977777777777777
sS'rec_68'
p340
F0.0026611111111111111
sS'rec_61'
p341
F0.0040877777777777779
sS'rec_60'
p342
F0.0040655555555555558
sS'rec_63'
p343
F0.0035255555555555556
sS'rec_62'
p344
F0.0033211111111111111
sS'rec_65'
p345
F0.0031355555555555555
sS'rec_64'
p346
F0.0029299999999999999
sS'rec_67'
p347
F0.0026677777777777776
sS'rec_66'
p348
F0.0027088888888888887
sS'rec_149'
p349
F0.0021888888888888891
sS'rec_91'
p350
F0.0021755555555555556
sS'rec_54'
p351
F0.0038033333333333335
sS'rec_55'
p352
F0.002981111111111111
sS'rec_56'
p353
F0.0035588888888888888
sS'rec_57'
p354
F0.0034966666666666666
sS'rec_50'
p355
F0.0030322222222222222
sS'rec_51'
p356
F0.0033055555555555555
sS'rec_52'
p357
F0.003468888888888889
sS'rec_53'
p358
F0.0028744444444444447
sS'rec_58'
p359
F0.0035222222222222222
sS'rec_59'
p360
F0.0029055555555555558
sS'rec_43'
p361
F0.0073755555555555553
sS'rec_42'
p362
F0.0055766666666666664
sS'rec_41'
p363
F0.0059177777777777779
sS'rec_40'
p364
F0.0044011111111111108
sS'rec_47'
p365
F0.0040444444444444443
sS'rec_46'
p366
F0.0032466666666666668
sS'rec_45'
p367
F0.0047166666666666668
sS'rec_44'
p368
F0.0049233333333333334
sS'rec_49'
p369
F0.0037566666666666668
sS'rec_48'
p370
F0.0035633333333333333
sS'rec_6'
p371
F0.007268888888888889
sS'rec_7'
p372
F0.0080788888888888889
sS'rec_4'
p373
F0.0090399999999999994
sS'rec_5'
p374
F0.007458888888888889
sS'rec_2'
p375
F0.010294444444444445
sS'rec_3'
p376
F0.0066666666666666671
sS'rec_0'
p377
F0.011135555555555555
sS'rec_1'
p378
F0.0073800000000000003
sS'rec_8'
p379
F0.0051500000000000001
sS'rec_9'
p380
F0.0043144444444444445
sS'rec_105'
p381
F0.0024122222222222223
sS'rec_104'
p382
F0.0023611111111111111
sS'rec_107'
p383
F0.0022533333333333333
sS'rec_106'
p384
F0.0022322222222222222
sS'rec_101'
p385
F0.0024766666666666665
sS'rec_100'
p386
F0.0027955555555555555
sS'rec_103'
p387
F0.0022288888888888888
sS'rec_102'
p388
F0.0022977777777777779
sS'rec_109'
p389
F0.0021166666666666669
sS'rec_108'
p390
F0.0020255555555555556
sS'rec_160'
p391
F0.0019944444444444445
sS'rec_36'
p392
F0.0039011111111111113
sS'rec_37'
p393
F0.003311111111111111
sS'rec_34'
p394
F0.0028488888888888891
sS'rec_35'
p395
F0.0031033333333333334
sS'rec_32'
p396
F0.0028577777777777777
sS'rec_33'
p397
F0.0027344444444444443
sS'rec_30'
p398
F0.0030833333333333333
sS'rec_31'
p399
F0.0025799999999999998
sS'rec_38'
p400
F0.0024411111111111109
sS'rec_39'
p401
F0.0021199999999999999
sS'rec_112'
p402
F0.0023922222222222222
sS'rec_113'
p403
F0.0026800000000000001
sS'rec_110'
p404
F0.0021655555555555555
sS'rec_111'
p405
F0.0022333333333333333
sS'rec_116'
p406
F0.0024455555555555554
sS'rec_117'
p407
F0.002161111111111111
sS'rec_114'
p408
F0.0021966666666666666
sS'rec_115'
p409
F0.0020422222222222222
sS'rec_118'
p410
F0.0019866666666666665
sS'rec_119'
p411
F0.001888888888888889
sS'rec_25'
p412
F0.0046966666666666667
sS'rec_24'
p413
F0.0049088888888888889
sS'rec_27'
p414
F0.0054877777777777781
sS'rec_26'
p415
F0.0037466666666666668
sS'rec_21'
p416
F0.0044755555555555555
sS'rec_20'
p417
F0.0042144444444444443
sS'rec_23'
p418
F0.0037433333333333333
sS'rec_22'
p419
F0.0042700000000000004
sS'rec_29'
p420
F0.0031133333333333334
sS'rec_28'
p421
F0.0031611111111111111
sS'rec_98'
p422
F0.0038122222222222221
sS'rec_140'
p423
F0.0018544444444444444
sS'rec_143'
p424
F0.0026033333333333334
sS'rec_142'
p425
F0.0022677777777777778
sS'rec_145'
p426
F0.0022988888888888889
sS'rec_144'
p427
F0.0022222222222222222
sS'rec_147'
p428
F0.00233
sS'rec_146'
p429
F0.0022088888888888887
sS'rec_90'
p430
F0.0020922222222222223
sS'rec_148'
p431
F0.0028
sS'rec_92'
p432
F0.0026222222222222224
sS'rec_93'
p433
F0.0022100000000000002
sS'rec_94'
p434
F0.0023333333333333335
sS'rec_95'
p435
F0.0020711111111111112
sS'rec_96'
p436
F0.002641111111111111
sS'rec_97'
p437
F0.002478888888888889
sS'rec_10'
p438
F0.0055066666666666667
sS'rec_11'
p439
F0.0046822222222222222
sS'rec_12'
p440
F0.0043611111111111107
sS'rec_13'
p441
F0.0034266666666666668
sS'rec_14'
p442
F0.0035166666666666666
sS'rec_15'
p443
F0.0048500000000000001
sS'rec_16'
p444
F0.0048622222222222226
sS'rec_17'
p445
F0.0042588888888888893
sS'rec_18'
p446
F0.0037288888888888888
sS'rec_19'
p447
F0.0039377777777777779
sS'rec_141'
p448
F0.0021255555555555554
ssg265
F0.52103444444444447
sstp449
a(g11
(tRp450
S'workload'
p451
g11
(tRp452
S'n_contents'
p453
I300000
sS'name'
p454
S'STATIONARY'
p455
sS'n_warmup'
p456
I300000
sS'rate'
p457
F1
sS'n_measured'
p458
I900000
sS'alpha'
p459
F1
ssS'cache_policy'
p460
g11
(tRp461
g454
S'LRU'
p462
ssS'strategy'
p463
g11
(tRp464
g454
S'C_LFR_P2P'
p465
ssS'content_placement'
p466
g11
(tRp467
g454
S'UNIFORM'
p468
ssS'cache_placement'
p469
g11
(tRp470
S'network_cache'
p471
F0.10000000000000001
sS'uCache_budget'
p472
F30000
sg454
S'UNIFORM_with_uCache'
p473
sS'nCache_budget'
p474
F0
ssS'desc'
p475
S'strategy: C_LFR_P2P, network cache: 0.1'
p476
sS'topology'
p477
g11
(tRp478
g454
S'ROCKET_FUEL_with_uCache'
p479
sS'asn'
p480
I3257
ssg11
(tRp481
S'LATENCY'
p482
g11
(tRp483
S'MEAN'
p484
F41.843640000000001
ssS'CACHE_HIT_RATIO'
p485
g11
(tRp486
S'PER_NODE_SERVER_HIT_RATIO'
p487
g11
(tRp488
S'src_13'
p489
F0.025694444444444443
sS'src_14'
p490
F0.026971111111111112
sS'src_11'
p491
F0.026321111111111111
sS'src_15'
p492
F0.025325555555555556
sS'src_10'
p493
F0.025028888888888889
sS'src_12'
p494
F0.025270000000000001
sS'src_8'
p495
F0.026721111111111112
sS'src_9'
p496
F0.026283333333333332
sS'src_6'
p497
F0.028101111111111111
sS'src_7'
p498
F0.027262222222222222
sS'src_4'
p499
F0.024907777777777779
sS'src_5'
p500
F0.026564444444444446
sS'src_2'
p501
F0.026908888888888888
sS'src_3'
p502
F0.025963333333333335
sS'src_0'
p503
F0.027373333333333333
sS'src_1'
p504
F0.026287777777777778
ssS'PER_NODE_CACHE_HIT_RATIO'
p505
g11
(tRp506
S'rec_158'
p507
F0.002631111111111111
sS'rec_159'
p508
F0.0024366666666666668
sS'rec_156'
p509
F0.0034144444444444443
sS'rec_157'
p510
F0.0038355555555555556
sS'rec_154'
p511
F0.002798888888888889
sS'rec_155'
p512
F0.0025677777777777778
sS'rec_152'
p513
F0.0027311111111111112
sS'rec_153'
p514
F0.0023822222222222222
sS'rec_150'
p515
F0.0022422222222222223
sS'rec_151'
p516
F0.0026677777777777776
sS'rec_129'
p517
F0.002807777777777778
sS'rec_128'
p518
F0.0030044444444444446
sS'rec_123'
p519
F0.0033600000000000001
sS'rec_122'
p520
F0.0024977777777777776
sS'rec_121'
p521
F0.0025500000000000002
sS'rec_120'
p522
F0.002491111111111111
sS'rec_127'
p523
F0.0027033333333333332
sS'rec_126'
p524
F0.0023400000000000001
sS'rec_125'
p525
F0.0025122222222222221
sS'rec_124'
p526
F0.0024255555555555554
sS'rec_78'
p527
F0.0034433333333333334
sS'rec_79'
p528
F0.0033999999999999998
sS'rec_72'
p529
F0.0034288888888888889
sS'rec_73'
p530
F0.0033033333333333335
sS'rec_70'
p531
F0.0029233333333333333
sS'rec_71'
p532
F0.0029455555555555554
sS'rec_76'
p533
F0.0031333333333333335
sS'rec_77'
p534
F0.0028766666666666667
sS'rec_74'
p535
F0.0029544444444444444
sS'rec_75'
p536
F0.0028777777777777777
sS'rec_87'
p537
F0.002998888888888889
sS'rec_86'
p538
F0.0027511111111111113
sS'rec_85'
p539
F0.0024566666666666665
sS'rec_84'
p540
F0.0026655555555555556
sS'rec_83'
p541
F0.0025722222222222223
sS'rec_82'
p542
F0.0029633333333333334
sS'rec_81'
p543
F0.0031922222222222222
sS'rec_80'
p544
F0.0027311111111111112
sS'rec_89'
p545
F0.0025888888888888888
sS'rec_88'
p546
F0.0024322222222222223
sS'rec_138'
p547
F0.0025300000000000001
sS'rec_139'
p548
F0.0026666666666666666
sS'rec_140'
p549
F0.0022055555555555557
sS'rec_130'
p550
F0.002971111111111111
sS'rec_131'
p551
F0.0028322222222222221
sS'rec_132'
p552
F0.0026966666666666667
sS'rec_133'
p553
F0.0025744444444444443
sS'rec_134'
p554
F0.0025699999999999998
sS'rec_135'
p555
F0.0025444444444444447
sS'rec_136'
p556
F0.0025833333333333333
sS'rec_137'
p557
F0.0022611111111111113
sS'rec_69'
p558
F0.0030088888888888891
sS'rec_68'
p559
F0.0031188888888888889
sS'rec_61'
p560
F0.0044355555555555554
sS'rec_60'
p561
F0.0043333333333333331
sS'rec_63'
p562
F0.0040666666666666663
sS'rec_62'
p563
F0.0035844444444444444
sS'rec_65'
p564
F0.0033911111111111112
sS'rec_64'
p565
F0.0033666666666666667
sS'rec_67'
p566
F0.002998888888888889
sS'rec_66'
p567
F0.0030188888888888891
sS'rec_90'
p568
F0.0025355555555555557
sS'rec_91'
p569
F0.0025944444444444444
sS'rec_54'
p570
F0.0042088888888888887
sS'rec_55'
p571
F0.0033488888888888891
sS'rec_56'
p572
F0.0039500000000000004
sS'rec_57'
p573
F0.0038666666666666667
sS'rec_50'
p574
F0.0035733333333333333
sS'rec_51'
p575
F0.0039277777777777774
sS'rec_52'
p576
F0.0037133333333333332
sS'rec_53'
p577
F0.0032722222222222224
sS'rec_58'
p578
F0.0037644444444444444
sS'rec_59'
p579
F0.0033844444444444443
sS'rec_43'
p580
F0.0075199999999999998
sS'rec_42'
p581
F0.0058044444444444445
sS'rec_41'
p582
F0.0061444444444444446
sS'rec_40'
p583
F0.0049166666666666664
sS'rec_47'
p584
F0.0045166666666666671
sS'rec_46'
p585
F0.0036877777777777777
sS'rec_45'
p586
F0.0052055555555555553
sS'rec_44'
p587
F0.0051611111111111111
sS'rec_49'
p588
F0.0040111111111111111
sS'rec_48'
p589
F0.0039077777777777774
sS'rec_6'
p590
F0.0073911111111111113
sS'rec_7'
p591
F0.0085255555555555553
sS'rec_4'
p592
F0.0092988888888888895
sS'rec_5'
p593
F0.0081422222222222226
sS'rec_2'
p594
F0.010404444444444444
sS'rec_3'
p595
F0.0070966666666666669
sS'rec_0'
p596
F0.011364444444444444
sS'rec_1'
p597
F0.0077822222222222225
sS'rec_8'
p598
F0.0055088888888888887
sS'rec_9'
p599
F0.0043611111111111107
sS'rec_105'
p600
F0.0028266666666666666
sS'rec_104'
p601
F0.0026566666666666666
sS'rec_107'
p602
F0.0027377777777777778
sS'rec_106'
p603
F0.0025322222222222222
sS'rec_101'
p604
F0.0027622222222222223
sS'rec_100'
p605
F0.0031455555555555555
sS'rec_103'
p606
F0.0025477777777777777
sS'rec_102'
p607
F0.0027388888888888888
sS'rec_109'
p608
F0.0023855555555555557
sS'rec_108'
p609
F0.0024022222222222223
sS'rec_160'
p610
F0.0022644444444444444
sS'rec_36'
p611
F0.0042044444444444447
sS'rec_37'
p612
F0.0036622222222222221
sS'rec_34'
p613
F0.0032766666666666669
sS'rec_35'
p614
F0.00331
sS'rec_32'
p615
F0.0033044444444444445
sS'rec_33'
p616
F0.0030766666666666668
sS'rec_30'
p617
F0.0035011111111111111
sS'rec_31'
p618
F0.0028955555555555557
sS'rec_38'
p619
F0.0028333333333333335
sS'rec_39'
p620
F0.00247
sS'rec_112'
p621
F0.0027233333333333332
sS'rec_113'
p622
F0.0030211111111111111
sS'rec_110'
p623
F0.0025288888888888887
sS'rec_111'
p624
F0.0025733333333333333
sS'rec_116'
p625
F0.0026911111111111111
sS'rec_117'
p626
F0.0025400000000000002
sS'rec_114'
p627
F0.0026800000000000001
sS'rec_115'
p628
F0.0024488888888888889
sS'rec_118'
p629
F0.0023355555555555556
sS'rec_119'
p630
F0.0022166666666666667
sS'rec_25'
p631
F0.004948888888888889
sS'rec_24'
p632
F0.0053244444444444441
sS'rec_27'
p633
F0.0058855555555555553
sS'rec_26'
p634
F0.0042611111111111113
sS'rec_21'
p635
F0.0049344444444444444
sS'rec_20'
p636
F0.0047466666666666664
sS'rec_23'
p637
F0.0041799999999999997
sS'rec_22'
p638
F0.0047355555555555554
sS'rec_29'
p639
F0.0036022222222222224
sS'rec_28'
p640
F0.0035822222222222223
sS'rec_98'
p641
F0.0042055555555555553
sS'rec_99'
p642
F0.0039044444444444443
sS'rec_143'
p643
F0.0029833333333333335
sS'rec_142'
p644
F0.0026177777777777779
sS'rec_145'
p645
F0.002631111111111111
sS'rec_144'
p646
F0.0026566666666666666
sS'rec_147'
p647
F0.0027100000000000002
sS'rec_146'
p648
F0.0025233333333333332
sS'rec_149'
p649
F0.0025200000000000001
sS'rec_148'
p650
F0.0031322222222222224
sS'rec_92'
p651
F0.0030122222222222221
sS'rec_93'
p652
F0.0026155555555555554
sS'rec_94'
p653
F0.0025777777777777778
sS'rec_95'
p654
F0.0024433333333333334
sS'rec_96'
p655
F0.0029288888888888889
sS'rec_97'
p656
F0.0026933333333333332
sS'rec_10'
p657
F0.0060822222222222224
sS'rec_11'
p658
F0.0051155555555555555
sS'rec_12'
p659
F0.0046166666666666665
sS'rec_13'
p660
F0.0037944444444444445
sS'rec_14'
p661
F0.0037155555555555557
sS'rec_15'
p662
F0.0053477777777777777
sS'rec_16'
p663
F0.0054455555555555559
sS'rec_17'
p664
F0.0047022222222222222
sS'rec_18'
p665
F0.0040711111111111113
sS'rec_19'
p666
F0.0042755555555555559
sS'rec_141'
p667
F0.0025100000000000001
ssg484
F0.57901555555555551
sstp668
a(g11
(tRp669
S'workload'
p670
g11
(tRp671
S'n_contents'
p672
I300000
sS'name'
p673
S'STATIONARY'
p674
sS'n_warmup'
p675
I300000
sS'rate'
p676
F1
sS'n_measured'
p677
I900000
sS'alpha'
p678
F1
ssS'cache_policy'
p679
g11
(tRp680
g673
S'LRU'
p681
ssS'strategy'
p682
g11
(tRp683
g673
S'C_LFR_P2P'
p684
ssS'content_placement'
p685
g11
(tRp686
g673
S'UNIFORM'
p687
ssS'cache_placement'
p688
g11
(tRp689
S'network_cache'
p690
F0.20000000000000001
sS'uCache_budget'
p691
F60000
sg673
S'UNIFORM_with_uCache'
p692
sS'nCache_budget'
p693
F0
ssS'desc'
p694
S'strategy: C_LFR_P2P, network cache: 0.2'
p695
sS'topology'
p696
g11
(tRp697
g673
S'ROCKET_FUEL_with_uCache'
p698
sS'asn'
p699
I3257
ssg11
(tRp700
S'LATENCY'
p701
g11
(tRp702
S'MEAN'
p703
F36.750120000000003
ssS'CACHE_HIT_RATIO'
p704
g11
(tRp705
S'PER_NODE_SERVER_HIT_RATIO'
p706
g11
(tRp707
S'src_13'
p708
F0.02319888888888889
sS'src_14'
p709
F0.022440000000000002
sS'src_11'
p710
F0.022435555555555556
sS'src_15'
p711
F0.022122222222222224
sS'src_10'
p712
F0.021940000000000001
sS'src_12'
p713
F0.021318888888888887
sS'src_8'
p714
F0.022376666666666666
sS'src_9'
p715
F0.021734444444444445
sS'src_6'
p716
F0.023058888888888889
sS'src_7'
p717
F0.023783333333333333
sS'src_4'
p718
F0.021115555555555554
sS'src_5'
p719
F0.023506666666666665
sS'src_2'
p720
F0.025256666666666667
sS'src_3'
p721
F0.021862222222222224
sS'src_0'
p722
F0.02506111111111111
sS'src_1'
p723
F0.022731111111111112
ssS'PER_NODE_CACHE_HIT_RATIO'
p724
g11
(tRp725
S'rec_158'
p726
F0.0029366666666666669
sS'rec_159'
p727
F0.0028033333333333335
sS'rec_156'
p728
F0.0038544444444444446
sS'rec_157'
p729
F0.0039722222222222225
sS'rec_154'
p730
F0.0032122222222222222
sS'rec_155'
p731
F0.0028522222222222221
sS'rec_152'
p732
F0.0032333333333333333
sS'rec_153'
p733
F0.0026344444444444445
sS'rec_150'
p734
F0.0026944444444444446
sS'rec_151'
p735
F0.002972222222222222
sS'rec_129'
p736
F0.0032144444444444443
sS'rec_128'
p737
F0.0033611111111111112
sS'rec_123'
p738
F0.0039022222222222223
sS'rec_122'
p739
F0.002807777777777778
sS'rec_121'
p740
F0.0029366666666666669
sS'rec_120'
p741
F0.0028411111111111111
sS'rec_127'
p742
F0.0031977777777777777
sS'rec_126'
p743
F0.0027611111111111113
sS'rec_125'
p744
F0.0029955555555555556
sS'rec_124'
p745
F0.0027599999999999999
sS'rec_78'
p746
F0.0038755555555555557
sS'rec_79'
p747
F0.0036266666666666665
sS'rec_72'
p748
F0.0038533333333333332
sS'rec_73'
p749
F0.0037722222222222224
sS'rec_70'
p750
F0.0031977777777777777
sS'rec_71'
p751
F0.0033411111111111111
sS'rec_76'
p752
F0.0035533333333333333
sS'rec_77'
p753
F0.0032177777777777777
sS'rec_74'
p754
F0.0032422222222222223
sS'rec_75'
p755
F0.0033511111111111111
sS'rec_87'
p756
F0.0032699999999999999
sS'rec_86'
p757
F0.0030288888888888887
sS'rec_85'
p758
F0.0027711111111111109
sS'rec_84'
p759
F0.0029677777777777779
sS'rec_83'
p760
F0.0030833333333333333
sS'rec_82'
p761
F0.0033300000000000001
sS'rec_81'
p762
F0.0035155555555555556
sS'rec_80'
p763
F0.0029866666666666665
sS'rec_89'
p764
F0.0029644444444444445
sS'rec_88'
p765
F0.0028933333333333333
sS'rec_138'
p766
F0.0029844444444444445
sS'rec_139'
p767
F0.0029522222222222224
sS'rec_99'
p768
F0.0041488888888888886
sS'rec_130'
p769
F0.0034211111111111113
sS'rec_131'
p770
F0.0031855555555555556
sS'rec_132'
p771
F0.0029844444444444445
sS'rec_133'
p772
F0.0030133333333333331
sS'rec_134'
p773
F0.0028511111111111111
sS'rec_135'
p774
F0.0028777777777777777
sS'rec_136'
p775
F0.0028044444444444445
sS'rec_137'
p776
F0.0027422222222222223
sS'rec_69'
p777
F0.0033955555555555557
sS'rec_68'
p778
F0.0034977777777777776
sS'rec_61'
p779
F0.0047888888888888885
sS'rec_60'
p780
F0.004792222222222222
sS'rec_63'
p781
F0.0044622222222222225
sS'rec_62'
p782
F0.0039522222222222224
sS'rec_65'
p783
F0.0037166666666666667
sS'rec_64'
p784
F0.0036066666666666669
sS'rec_67'
p785
F0.003488888888888889
sS'rec_66'
p786
F0.00349
sS'rec_90'
p787
F0.002807777777777778
sS'rec_148'
p788
F0.0035444444444444442
sS'rec_54'
p789
F0.0044211111111111109
sS'rec_55'
p790
F0.0037222222222222223
sS'rec_56'
p791
F0.0043077777777777776
sS'rec_57'
p792
F0.004297777777777778
sS'rec_50'
p793
F0.0038344444444444446
sS'rec_51'
p794
F0.0041611111111111111
sS'rec_52'
p795
F0.0040966666666666669
sS'rec_53'
p796
F0.0033955555555555557
sS'rec_58'
p797
F0.0042566666666666664
sS'rec_59'
p798
F0.0037677777777777779
sS'rec_43'
p799
F0.0076044444444444441
sS'rec_42'
p800
F0.0061533333333333336
sS'rec_41'
p801
F0.006593333333333333
sS'rec_40'
p802
F0.0051677777777777781
sS'rec_47'
p803
F0.0050055555555555556
sS'rec_46'
p804
F0.0039266666666666668
sS'rec_45'
p805
F0.0052544444444444444
sS'rec_44'
p806
F0.0055111111111111107
sS'rec_49'
p807
F0.0044322222222222219
sS'rec_48'
p808
F0.0043299999999999996
sS'rec_6'
p809
F0.0076411111111111115
sS'rec_7'
p810
F0.0085966666666666674
sS'rec_4'
p811
F0.0094355555555555564
sS'rec_5'
p812
F0.0080433333333333329
sS'rec_2'
p813
F0.010518888888888888
sS'rec_3'
p814
F0.0072966666666666666
sS'rec_0'
p815
F0.011352222222222222
sS'rec_1'
p816
F0.0079600000000000001
sS'rec_8'
p817
F0.005763333333333333
sS'rec_9'
p818
F0.0050777777777777774
sS'rec_105'
p819
F0.0033211111111111111
sS'rec_104'
p820
F0.0029366666666666669
sS'rec_107'
p821
F0.0032444444444444443
sS'rec_106'
p822
F0.0029333333333333334
sS'rec_101'
p823
F0.0031011111111111109
sS'rec_100'
p824
F0.0035188888888888887
sS'rec_103'
p825
F0.0028622222222222222
sS'rec_102'
p826
F0.0030444444444444442
sS'rec_109'
p827
F0.0028155555555555555
sS'rec_108'
p828
F0.0027444444444444443
sS'rec_160'
p829
F0.0025266666666666666
sS'rec_36'
p830
F0.0046788888888888887
sS'rec_37'
p831
F0.0042155555555555557
sS'rec_34'
p832
F0.0035666666666666668
sS'rec_35'
p833
F0.0039155555555555558
sS'rec_32'
p834
F0.0036511111111111111
sS'rec_33'
p835
F0.0034022222222222223
sS'rec_30'
p836
F0.0038966666666666668
sS'rec_31'
p837
F0.0032666666666666669
sS'rec_38'
p838
F0.0031944444444444446
sS'rec_39'
p839
F0.0030188888888888891
sS'rec_112'
p840
F0.0032677777777777779
sS'rec_113'
p841
F0.003312222222222222
sS'rec_110'
p842
F0.00297
sS'rec_111'
p843
F0.0030011111111111111
sS'rec_116'
p844
F0.0031333333333333335
sS'rec_117'
p845
F0.0028711111111111112
sS'rec_114'
p846
F0.0030544444444444443
sS'rec_115'
p847
F0.002818888888888889
sS'rec_118'
p848
F0.0027122222222222222
sS'rec_119'
p849
F0.0025633333333333333
sS'rec_25'
p850
F0.0055144444444444442
sS'rec_24'
p851
F0.0056966666666666667
sS'rec_27'
p852
F0.0064077777777777779
sS'rec_26'
p853
F0.0046566666666666666
sS'rec_21'
p854
F0.0052122222222222223
sS'rec_20'
p855
F0.0050411111111111108
sS'rec_23'
p856
F0.0045833333333333334
sS'rec_22'
p857
F0.0050566666666666668
sS'rec_29'
p858
F0.003797777777777778
sS'rec_28'
p859
F0.0040366666666666667
sS'rec_98'
p860
F0.0046600000000000001
sS'rec_140'
p861
F0.0026777777777777776
sS'rec_143'
p862
F0.0031900000000000001
sS'rec_142'
p863
F0.0029022222222222223
sS'rec_145'
p864
F0.0030766666666666668
sS'rec_144'
p865
F0.0029966666666666666
sS'rec_147'
p866
F0.0030055555555555556
sS'rec_146'
p867
F0.0029877777777777776
sS'rec_149'
p868
F0.0028033333333333335
sS'rec_91'
p869
F0.0029422222222222224
sS'rec_92'
p870
F0.0034022222222222223
sS'rec_93'
p871
F0.0029911111111111111
sS'rec_94'
p872
F0.0029544444444444444
sS'rec_95'
p873
F0.0027277777777777778
sS'rec_96'
p874
F0.003301111111111111
sS'rec_97'
p875
F0.003148888888888889
sS'rec_10'
p876
F0.0063633333333333337
sS'rec_11'
p877
F0.0055788888888888893
sS'rec_12'
p878
F0.0049899999999999996
sS'rec_13'
p879
F0.0041588888888888891
sS'rec_14'
p880
F0.0040822222222222223
sS'rec_15'
p881
F0.0057655555555555559
sS'rec_16'
p882
F0.0057622222222222224
sS'rec_17'
p883
F0.0049911111111111111
sS'rec_18'
p884
F0.0043400000000000001
sS'rec_19'
p885
F0.00464
sS'rec_141'
p886
F0.0028344444444444446
ssg703
F0.63605777777777783
sstp887
a(g11
(tRp888
S'workload'
p889
g11
(tRp890
S'n_contents'
p891
I300000
sS'name'
p892
S'STATIONARY'
p893
sS'n_warmup'
p894
I300000
sS'rate'
p895
F1
sS'n_measured'
p896
I900000
sS'alpha'
p897
F1
ssS'cache_policy'
p898
g11
(tRp899
g892
S'LRU'
p900
ssS'strategy'
p901
g11
(tRp902
g892
S'C_LFR_P2P'
p903
ssS'content_placement'
p904
g11
(tRp905
g892
S'UNIFORM'
p906
ssS'cache_placement'
p907
g11
(tRp908
S'network_cache'
p909
F0.29999999999999999
sS'uCache_budget'
p910
F90000
sg892
S'UNIFORM_with_uCache'
p911
sS'nCache_budget'
p912
F0
ssS'desc'
p913
S'strategy: C_LFR_P2P, network cache: 0.3'
p914
sS'topology'
p915
g11
(tRp916
g892
S'ROCKET_FUEL_with_uCache'
p917
sS'asn'
p918
I3257
ssg11
(tRp919
S'LATENCY'
p920
g11
(tRp921
S'MEAN'
p922
F33.848564444444442
ssS'CACHE_HIT_RATIO'
p923
g11
(tRp924
S'PER_NODE_SERVER_HIT_RATIO'
p925
g11
(tRp926
S'src_13'
p927
F0.021426666666666667
sS'src_14'
p928
F0.020446666666666665
sS'src_11'
p929
F0.020505555555555555
sS'src_15'
p930
F0.019959999999999999
sS'src_10'
p931
F0.019733333333333332
sS'src_12'
p932
F0.018762222222222222
sS'src_8'
p933
F0.020303333333333333
sS'src_9'
p934
F0.020323333333333332
sS'src_6'
p935
F0.020816666666666667
sS'src_7'
p936
F0.022131111111111112
sS'src_4'
p937
F0.019044444444444444
sS'src_5'
p938
F0.022110000000000001
sS'src_2'
p939
F0.021523333333333332
sS'src_3'
p940
F0.020081111111111112
sS'src_0'
p941
F0.02328888888888889
sS'src_1'
p942
F0.021333333333333333
ssS'PER_NODE_CACHE_HIT_RATIO'
p943
g11
(tRp944
S'rec_158'
p945
F0.0032244444444444443
sS'rec_159'
p946
F0.0030433333333333332
sS'rec_156'
p947
F0.0041155555555555555
sS'rec_157'
p948
F0.0042944444444444445
sS'rec_154'
p949
F0.0031966666666666667
sS'rec_155'
p950
F0.003121111111111111
sS'rec_152'
p951
F0.0034377777777777779
sS'rec_153'
p952
F0.0029344444444444444
sS'rec_150'
p953
F0.0028355555555555556
sS'rec_151'
p954
F0.0032466666666666668
sS'rec_129'
p955
F0.003458888888888889
sS'rec_128'
p956
F0.0035788888888888888
sS'rec_123'
p957
F0.0039244444444444448
sS'rec_122'
p958
F0.0030011111111111111
sS'rec_121'
p959
F0.0029644444444444445
sS'rec_120'
p960
F0.002981111111111111
sS'rec_127'
p961
F0.0034399999999999999
sS'rec_126'
p962
F0.0030433333333333332
sS'rec_125'
p963
F0.0031322222222222224
sS'rec_124'
p964
F0.00296
sS'rec_78'
p965
F0.0040622222222222223
sS'rec_79'
p966
F0.0040822222222222223
sS'rec_72'
p967
F0.0041900000000000001
sS'rec_73'
p968
F0.0038777777777777777
sS'rec_70'
p969
F0.0034544444444444444
sS'rec_71'
p970
F0.0035866666666666668
sS'rec_76'
p971
F0.0037655555555555554
sS'rec_77'
p972
F0.0034444444444444444
sS'rec_74'
p973
F0.0033177777777777776
sS'rec_75'
p974
F0.0033877777777777777
sS'rec_87'
p975
F0.0034366666666666669
sS'rec_86'
p976
F0.003298888888888889
sS'rec_85'
p977
F0.0030300000000000001
sS'rec_84'
p978
F0.0031800000000000001
sS'rec_83'
p979
F0.0032133333333333332
sS'rec_82'
p980
F0.0035555555555555557
sS'rec_81'
p981
F0.003975555555555556
sS'rec_80'
p982
F0.0032822222222222224
sS'rec_89'
p983
F0.0032366666666666668
sS'rec_88'
p984
F0.0029244444444444444
sS'rec_138'
p985
F0.0031333333333333335
sS'rec_139'
p986
F0.0032522222222222223
sS'rec_99'
p987
F0.0043466666666666671
sS'rec_130'
p988
F0.0039344444444444444
sS'rec_131'
p989
F0.0034333333333333334
sS'rec_132'
p990
F0.0032533333333333333
sS'rec_133'
p991
F0.0032066666666666667
sS'rec_134'
p992
F0.0032222222222222222
sS'rec_135'
p993
F0.0030811111111111113
sS'rec_136'
p994
F0.0030322222222222222
sS'rec_137'
p995
F0.0028577777777777777
sS'rec_69'
p996
F0.0037844444444444444
sS'rec_68'
p997
F0.0035844444444444444
sS'rec_61'
p998
F0.0050411111111111108
sS'rec_60'
p999
F0.0050922222222222219
sS'rec_63'
p1000
F0.0045344444444444442
sS'rec_62'
p1001
F0.004121111111111111
sS'rec_65'
p1002
F0.004121111111111111
sS'rec_64'
p1003
F0.0038044444444444445
sS'rec_67'
p1004
F0.003621111111111111
sS'rec_66'
p1005
F0.0036555555555555556
sS'rec_90'
p1006
F0.0029966666666666666
sS'rec_91'
p1007
F0.0031444444444444445
sS'rec_54'
p1008
F0.0046966666666666667
sS'rec_55'
p1009
F0.0040122222222222226
sS'rec_56'
p1010
F0.0045533333333333337
sS'rec_57'
p1011
F0.0044922222222222221
sS'rec_50'
p1012
F0.0040144444444444446
sS'rec_51'
p1013
F0.0044166666666666668
sS'rec_52'
p1014
F0.0043344444444444446
sS'rec_53'
p1015
F0.0036577777777777776
sS'rec_58'
p1016
F0.0044155555555555554
sS'rec_59'
p1017
F0.0038755555555555557
sS'rec_43'
p1018
F0.0075677777777777774
sS'rec_42'
p1019
F0.0064200000000000004
sS'rec_41'
p1020
F0.0066566666666666666
sS'rec_40'
p1021
F0.005467777777777778
sS'rec_47'
p1022
F0.0049855555555555556
sS'rec_46'
p1023
F0.0041533333333333335
sS'rec_45'
p1024
F0.0056833333333333336
sS'rec_44'
p1025
F0.0055822222222222219
sS'rec_49'
p1026
F0.004792222222222222
sS'rec_48'
p1027
F0.0044911111111111115
sS'rec_6'
p1028
F0.0075666666666666669
sS'rec_7'
p1029
F0.0086555555555555552
sS'rec_4'
p1030
F0.0094422222222222216
sS'rec_5'
p1031
F0.0080977777777777784
sS'rec_2'
p1032
F0.010875555555555555
sS'rec_3'
p1033
F0.007282222222222222
sS'rec_0'
p1034
F0.011667777777777777
sS'rec_1'
p1035
F0.0083833333333333329
sS'rec_8'
p1036
F0.0059411111111111114
sS'rec_9'
p1037
F0.0053588888888888887
sS'rec_105'
p1038
F0.0034488888888888889
sS'rec_104'
p1039
F0.0032355555555555558
sS'rec_107'
p1040
F0.0032955555555555555
sS'rec_106'
p1041
F0.0030811111111111113
sS'rec_101'
p1042
F0.0033488888888888891
sS'rec_100'
p1043
F0.0036622222222222221
sS'rec_103'
p1044
F0.0030677777777777778
sS'rec_102'
p1045
F0.0031877777777777777
sS'rec_109'
p1046
F0.0030588888888888888
sS'rec_108'
p1047
F0.0029344444444444444
sS'rec_160'
p1048
F0.0027588888888888888
sS'rec_36'
p1049
F0.0049477777777777775
sS'rec_37'
p1050
F0.0042399999999999998
sS'rec_34'
p1051
F0.0037822222222222224
sS'rec_35'
p1052
F0.0039911111111111111
sS'rec_32'
p1053
F0.0037433333333333333
sS'rec_33'
p1054
F0.0036477777777777776
sS'rec_30'
p1055
F0.0041433333333333331
sS'rec_31'
p1056
F0.0035577777777777778
sS'rec_38'
p1057
F0.0034822222222222221
sS'rec_39'
p1058
F0.0031988888888888887
sS'rec_112'
p1059
F0.003307777777777778
sS'rec_113'
p1060
F0.0036355555555555555
sS'rec_110'
p1061
F0.0031722222222222221
sS'rec_111'
p1062
F0.0031533333333333335
sS'rec_116'
p1063
F0.0032333333333333333
sS'rec_117'
p1064
F0.0030844444444444443
sS'rec_114'
p1065
F0.0031833333333333332
sS'rec_115'
p1066
F0.0030011111111111111
sS'rec_118'
p1067
F0.0029511111111111109
sS'rec_119'
p1068
F0.0027211111111111112
sS'rec_25'
p1069
F0.005781111111111111
sS'rec_24'
p1070
F0.0058777777777777778
sS'rec_27'
p1071
F0.0066544444444444446
sS'rec_26'
p1072
F0.0048222222222222225
sS'rec_21'
p1073
F0.005284444444444444
sS'rec_20'
p1074
F0.0052488888888888889
sS'rec_23'
p1075
F0.0046344444444444445
sS'rec_22'
p1076
F0.0050355555555555553
sS'rec_29'
p1077
F0.0042100000000000002
sS'rec_28'
p1078
F0.0041577777777777776
sS'rec_98'
p1079
F0.0048433333333333332
sS'rec_140'
p1080
F0.0028366666666666666
sS'rec_143'
p1081
F0.0035411111111111112
sS'rec_142'
p1082
F0.0032611111111111109
sS'rec_145'
p1083
F0.0031677777777777776
sS'rec_144'
p1084
F0.0031844444444444446
sS'rec_147'
p1085
F0.0032544444444444444
sS'rec_146'
p1086
F0.0030566666666666667
sS'rec_149'
p1087
F0.0030922222222222223
sS'rec_148'
p1088
F0.0037033333333333332
sS'rec_92'
p1089
F0.0036755555555555556
sS'rec_93'
p1090
F0.0031355555555555555
sS'rec_94'
p1091
F0.0032655555555555554
sS'rec_95'
p1092
F0.0031222222222222224
sS'rec_96'
p1093
F0.003468888888888889
sS'rec_97'
p1094
F0.0033322222222222221
sS'rec_10'
p1095
F0.0063699999999999998
sS'rec_11'
p1096
F0.0058455555555555552
sS'rec_12'
p1097
F0.0051755555555555556
sS'rec_13'
p1098
F0.004293333333333333
sS'rec_14'
p1099
F0.0045255555555555552
sS'rec_15'
p1100
F0.0057011111111111108
sS'rec_16'
p1101
F0.0058666666666666667
sS'rec_17'
p1102
F0.0052244444444444448
sS'rec_18'
p1103
F0.0045155555555555556
sS'rec_19'
p1104
F0.0047411111111111109
sS'rec_141'
p1105
F0.0030144444444444446
ssg922
F0.66820999999999997
sstp1106
a(g11
(tRp1107
S'workload'
p1108
g11
(tRp1109
S'n_contents'
p1110
I300000
sS'name'
p1111
S'STATIONARY'
p1112
sS'n_warmup'
p1113
I300000
sS'rate'
p1114
F1
sS'n_measured'
p1115
I900000
sS'alpha'
p1116
F1
ssS'cache_policy'
p1117
g11
(tRp1118
g1111
S'LRU'
p1119
ssS'strategy'
p1120
g11
(tRp1121
g1111
S'C_LFR_P2P'
p1122
ssS'content_placement'
p1123
g11
(tRp1124
g1111
S'UNIFORM'
p1125
ssS'cache_placement'
p1126
g11
(tRp1127
S'network_cache'
p1128
F0.40000000000000002
sS'uCache_budget'
p1129
F120000
sg1111
S'UNIFORM_with_uCache'
p1130
sS'nCache_budget'
p1131
F0
ssS'desc'
p1132
S'strategy: C_LFR_P2P, network cache: 0.4'
p1133
sS'topology'
p1134
g11
(tRp1135
g1111
S'ROCKET_FUEL_with_uCache'
p1136
sS'asn'
p1137
I3257
ssg11
(tRp1138
S'LATENCY'
p1139
g11
(tRp1140
S'MEAN'
p1141
F31.648082222222222
ssS'CACHE_HIT_RATIO'
p1142
g11
(tRp1143
S'PER_NODE_SERVER_HIT_RATIO'
p1144
g11
(tRp1145
S'src_13'
p1146
F0.019792222222222221
sS'src_14'
p1147
F0.018901111111111112
sS'src_11'
p1148
F0.018731111111111112
sS'src_15'
p1149
F0.018262222222222221
sS'src_10'
p1150
F0.018254444444444445
sS'src_12'
p1151
F0.017484444444444445
sS'src_8'
p1152
F0.018848888888888887
sS'src_9'
p1153
F0.018816666666666666
sS'src_6'
p1154
F0.019596666666666665
sS'src_7'
p1155
F0.019598888888888888
sS'src_4'
p1156
F0.017236666666666667
sS'src_5'
p1157
F0.020623333333333334
sS'src_2'
p1158
F0.021482222222222222
sS'src_3'
p1159
F0.018082222222222222
sS'src_0'
p1160
F0.021221111111111111
sS'src_1'
p1161
F0.020305555555555556
ssS'PER_NODE_CACHE_HIT_RATIO'
p1162
g11
(tRp1163
S'rec_158'
p1164
F0.0033144444444444445
sS'rec_159'
p1165
F0.0032288888888888888
sS'rec_156'
p1166
F0.0040977777777777774
sS'rec_157'
p1167
F0.004463333333333333
sS'rec_154'
p1168
F0.0033533333333333332
sS'rec_155'
p1169
F0.0032733333333333334
sS'rec_152'
p1170
F0.0036277777777777779
sS'rec_153'
p1171
F0.0030544444444444443
sS'rec_150'
p1172
F0.0030844444444444443
sS'rec_151'
p1173
F0.0032711111111111109
sS'rec_129'
p1174
F0.0035811111111111113
sS'rec_128'
p1175
F0.0038433333333333332
sS'rec_123'
p1176
F0.004127777777777778
sS'rec_122'
p1177
F0.0032055555555555557
sS'rec_121'
p1178
F0.0033255555555555556
sS'rec_120'
p1179
F0.003151111111111111
sS'rec_127'
p1180
F0.0035488888888888888
sS'rec_126'
p1181
F0.0031700000000000001
sS'rec_125'
p1182
F0.0033044444444444445
sS'rec_124'
p1183
F0.003151111111111111
sS'rec_78'
p1184
F0.0040488888888888892
sS'rec_79'
p1185
F0.0042022222222222226
sS'rec_72'
p1186
F0.0040777777777777774
sS'rec_73'
p1187
F0.0040644444444444443
sS'rec_70'
p1188
F0.0036944444444444446
sS'rec_71'
p1189
F0.0037211111111111112
sS'rec_76'
p1190
F0.0038600000000000001
sS'rec_77'
p1191
F0.0037177777777777777
sS'rec_74'
p1192
F0.0035111111111111111
sS'rec_75'
p1193
F0.0036711111111111111
sS'rec_87'
p1194
F0.0036099999999999999
sS'rec_86'
p1195
F0.003472222222222222
sS'rec_85'
p1196
F0.0032755555555555554
sS'rec_84'
p1197
F0.0034055555555555558
sS'rec_83'
p1198
F0.0033744444444444442
sS'rec_82'
p1199
F0.0036099999999999999
sS'rec_81'
p1200
F0.0038322222222222221
sS'rec_80'
p1201
F0.0035344444444444447
sS'rec_89'
p1202
F0.0034411111111111109
sS'rec_88'
p1203
F0.003298888888888889
sS'rec_138'
p1204
F0.0031966666666666667
sS'rec_139'
p1205
F0.0034399999999999999
sS'rec_99'
p1206
F0.0046055555555555554
sS'rec_130'
p1207
F0.0040222222222222222
sS'rec_131'
p1208
F0.0036444444444444445
sS'rec_132'
p1209
F0.0032277777777777778
sS'rec_133'
p1210
F0.0034533333333333334
sS'rec_134'
p1211
F0.0032588888888888889
sS'rec_135'
p1212
F0.0032033333333333332
sS'rec_136'
p1213
F0.003151111111111111
sS'rec_137'
p1214
F0.0029655555555555555
sS'rec_69'
p1215
F0.0038222222222222221
sS'rec_68'
p1216
F0.0037922222222222224
sS'rec_61'
p1217
F0.0050244444444444442
sS'rec_60'
p1218
F0.0053366666666666666
sS'rec_63'
p1219
F0.0048388888888888891
sS'rec_62'
p1220
F0.0042433333333333333
sS'rec_65'
p1221
F0.0041133333333333334
sS'rec_64'
p1222
F0.0039944444444444446
sS'rec_67'
p1223
F0.003801111111111111
sS'rec_66'
p1224
F0.0037922222222222224
sS'rec_90'
p1225
F0.0031655555555555556
sS'rec_148'
p1226
F0.0037822222222222224
sS'rec_54'
p1227
F0.004801111111111111
sS'rec_55'
p1228
F0.0040777777777777774
sS'rec_56'
p1229
F0.0045144444444444442
sS'rec_57'
p1230
F0.0046144444444444445
sS'rec_50'
p1231
F0.0041522222222222221
sS'rec_51'
p1232
F0.0044044444444444443
sS'rec_52'
p1233
F0.0046499999999999996
sS'rec_53'
p1234
F0.0038899999999999998
sS'rec_58'
p1235
F0.0045011111111111111
sS'rec_59'
p1236
F0.0041377777777777775
sS'rec_43'
p1237
F0.0077955555555555556
sS'rec_42'
p1238
F0.0065455555555555553
sS'rec_41'
p1239
F0.0069711111111111111
sS'rec_40'
p1240
F0.0054422222222222224
sS'rec_47'
p1241
F0.005271111111111111
sS'rec_46'
p1242
F0.004288888888888889
sS'rec_45'
p1243
F0.0059933333333333332
sS'rec_44'
p1244
F0.0060277777777777777
sS'rec_49'
p1245
F0.0048855555555555553
sS'rec_48'
p1246
F0.0047933333333333335
sS'rec_6'
p1247
F0.0078200000000000006
sS'rec_7'
p1248
F0.0090688888888888885
sS'rec_4'
p1249
F0.0095811111111111114
sS'rec_5'
p1250
F0.0081488888888888895
sS'rec_2'
p1251
F0.010722222222222222
sS'rec_3'
p1252
F0.0076188888888888886
sS'rec_0'
p1253
F0.011294444444444444
sS'rec_1'
p1254
F0.0083066666666666671
sS'rec_8'
p1255
F0.0062355555555555558
sS'rec_9'
p1256
F0.0054644444444444445
sS'rec_105'
p1257
F0.0034911111111111111
sS'rec_104'
p1258
F0.0033688888888888887
sS'rec_107'
p1259
F0.0036155555555555554
sS'rec_106'
p1260
F0.0031933333333333332
sS'rec_101'
p1261
F0.003477777777777778
sS'rec_100'
p1262
F0.0040133333333333332
sS'rec_103'
p1263
F0.0032622222222222223
sS'rec_102'
p1264
F0.0034177777777777778
sS'rec_109'
p1265
F0.0030877777777777778
sS'rec_108'
p1266
F0.0030888888888888888
sS'rec_160'
p1267
F0.0030155555555555556
sS'rec_36'
p1268
F0.0050733333333333333
sS'rec_37'
p1269
F0.0043866666666666663
sS'rec_34'
p1270
F0.003997777777777778
sS'rec_35'
p1271
F0.0041166666666666669
sS'rec_32'
p1272
F0.0040366666666666667
sS'rec_33'
p1273
F0.0038055555555555555
sS'rec_30'
p1274
F0.0042644444444444448
sS'rec_31'
p1275
F0.0036988888888888887
sS'rec_38'
p1276
F0.0035844444444444444
sS'rec_39'
p1277
F0.0033233333333333335
sS'rec_112'
p1278
F0.0034755555555555555
sS'rec_113'
p1279
F0.0037688888888888889
sS'rec_110'
p1280
F0.0032233333333333333
sS'rec_111'
p1281
F0.0032699999999999999
sS'rec_116'
p1282
F0.0036066666666666669
sS'rec_117'
p1283
F0.0032044444444444447
sS'rec_114'
p1284
F0.0033677777777777777
sS'rec_115'
p1285
F0.0030555555555555557
sS'rec_118'
p1286
F0.0032444444444444443
sS'rec_119'
p1287
F0.0029622222222222224
sS'rec_25'
p1288
F0.0055844444444444448
sS'rec_24'
p1289
F0.0060122222222222226
sS'rec_27'
p1290
F0.0068544444444444443
sS'rec_26'
p1291
F0.0049411111111111114
sS'rec_21'
p1292
F0.0054144444444444448
sS'rec_20'
p1293
F0.0053666666666666663
sS'rec_23'
p1294
F0.0049366666666666665
sS'rec_22'
p1295
F0.0053811111111111108
sS'rec_29'
p1296
F0.0041722222222222221
sS'rec_28'
p1297
F0.0044022222222222223
sS'rec_98'
p1298
F0.0049144444444444444
sS'rec_140'
p1299
F0.0029255555555555554
sS'rec_143'
p1300
F0.0037177777777777777
sS'rec_142'
p1301
F0.0033311111111111111
sS'rec_145'
p1302
F0.0033300000000000001
sS'rec_144'
p1303
F0.0033733333333333332
sS'rec_147'
p1304
F0.0033633333333333332
sS'rec_146'
p1305
F0.0033388888888888891
sS'rec_149'
p1306
F0.0031800000000000001
sS'rec_91'
p1307
F0.0033177777777777776
sS'rec_92'
p1308
F0.0036922222222222222
sS'rec_93'
p1309
F0.0032022222222222222
sS'rec_94'
p1310
F0.0032966666666666665
sS'rec_95'
p1311
F0.0030611111111111112
sS'rec_96'
p1312
F0.0037499999999999999
sS'rec_97'
p1313
F0.0035644444444444443
sS'rec_10'
p1314
F0.0067388888888888889
sS'rec_11'
p1315
F0.0056588888888888886
sS'rec_12'
p1316
F0.0053733333333333333
sS'rec_13'
p1317
F0.0045755555555555558
sS'rec_14'
p1318
F0.00464
sS'rec_15'
p1319
F0.0060166666666666667
sS'rec_16'
p1320
F0.0059155555555555558
sS'rec_17'
p1321
F0.0054400000000000004
sS'rec_18'
p1322
F0.0046866666666666662
sS'rec_19'
p1323
F0.0049811111111111115
sS'rec_141'
p1324
F0.0033166666666666665
ssg1141
F0.69276222222222217
sstp1325
a(g11
(tRp1326
S'workload'
p1327
g11
(tRp1328
S'n_contents'
p1329
I300000
sS'name'
p1330
S'STATIONARY'
p1331
sS'n_warmup'
p1332
I300000
sS'rate'
p1333
F1
sS'n_measured'
p1334
I900000
sS'alpha'
p1335
F1
ssS'cache_policy'
p1336
g11
(tRp1337
g1330
S'LRU'
p1338
ssS'strategy'
p1339
g11
(tRp1340
g1330
S'C_LFR_P2P'
p1341
ssS'content_placement'
p1342
g11
(tRp1343
g1330
S'UNIFORM'
p1344
ssS'cache_placement'
p1345
g11
(tRp1346
S'network_cache'
p1347
F0.5
sS'uCache_budget'
p1348
F150000
sg1330
S'UNIFORM_with_uCache'
p1349
sS'nCache_budget'
p1350
F0
ssS'desc'
p1351
S'strategy: C_LFR_P2P, network cache: 0.5'
p1352
sS'topology'
p1353
g11
(tRp1354
g1330
S'ROCKET_FUEL_with_uCache'
p1355
sS'asn'
p1356
I3257
ssg11
(tRp1357
S'LATENCY'
p1358
g11
(tRp1359
S'MEAN'
p1360
F30.004884444444443
ssS'CACHE_HIT_RATIO'
p1361
g11
(tRp1362
S'PER_NODE_SERVER_HIT_RATIO'
p1363
g11
(tRp1364
S'src_13'
p1365
F0.018003333333333333
sS'src_14'
p1366
F0.017670000000000002
sS'src_11'
p1367
F0.01784888888888889
sS'src_15'
p1368
F0.016753333333333332
sS'src_10'
p1369
F0.017177777777777778
sS'src_12'
p1370
F0.016462222222222222
sS'src_8'
p1371
F0.01733111111111111
sS'src_9'
p1372
F0.018104444444444444
sS'src_6'
p1373
F0.018531111111111113
sS'src_7'
p1374
F0.018689999999999998
sS'src_4'
p1375
F0.016885555555555556
sS'src_5'
p1376
F0.018871111111111113
sS'src_2'
p1377
F0.019990000000000001
sS'src_3'
p1378
F0.016967777777777776
sS'src_0'
p1379
F0.020452222222222222
sS'src_1'
p1380
F0.019007777777777776
ssS'PER_NODE_CACHE_HIT_RATIO'
p1381
g11
(tRp1382
S'rec_158'
p1383
F0.0035033333333333331
sS'rec_159'
p1384
F0.003318888888888889
sS'rec_156'
p1385
F0.0042199999999999998
sS'rec_157'
p1386
F0.0046388888888888886
sS'rec_154'
p1387
F0.00347
sS'rec_155'
p1388
F0.0033400000000000001
sS'rec_152'
p1389
F0.0036366666666666665
sS'rec_153'
p1390
F0.0032855555555555555
sS'rec_150'
p1391
F0.0030177777777777776
sS'rec_151'
p1392
F0.0035133333333333332
sS'rec_129'
p1393
F0.0037622222222222224
sS'rec_128'
p1394
F0.0039577777777777779
sS'rec_123'
p1395
F0.0042588888888888893
sS'rec_122'
p1396
F0.0033744444444444442
sS'rec_121'
p1397
F0.0034455555555555554
sS'rec_120'
p1398
F0.0031988888888888887
sS'rec_127'
p1399
F0.0037866666666666665
sS'rec_126'
p1400
F0.0032888888888888889
sS'rec_125'
p1401
F0.003451111111111111
sS'rec_124'
p1402
F0.0032777777777777779
sS'rec_78'
p1403
F0.0041811111111111111
sS'rec_79'
p1404
F0.0043044444444444441
sS'rec_72'
p1405
F0.0043566666666666667
sS'rec_73'
p1406
F0.0041911111111111107
sS'rec_70'
p1407
F0.0036855555555555556
sS'rec_71'
p1408
F0.0038488888888888887
sS'rec_76'
p1409
F0.0038888888888888888
sS'rec_77'
p1410
F0.0037488888888888888
sS'rec_74'
p1411
F0.0035566666666666667
sS'rec_75'
p1412
F0.003791111111111111
sS'rec_87'
p1413
F0.0036777777777777776
sS'rec_86'
p1414
F0.0036144444444444444
sS'rec_85'
p1415
F0.0033500000000000001
sS'rec_84'
p1416
F0.0035477777777777777
sS'rec_83'
p1417
F0.0035311111111111112
sS'rec_82'
p1418
F0.0036700000000000001
sS'rec_81'
p1419
F0.0040777777777777774
sS'rec_80'
p1420
F0.0035333333333333332
sS'rec_89'
p1421
F0.0035633333333333333
sS'rec_88'
p1422
F0.0032744444444444444
sS'rec_138'
p1423
F0.0034488888888888889
sS'rec_139'
p1424
F0.0036444444444444445
sS'rec_140'
p1425
F0.0031922222222222222
sS'rec_130'
p1426
F0.0041255555555555559
sS'rec_131'
p1427
F0.0037777777777777779
sS'rec_132'
p1428
F0.0035044444444444446
sS'rec_133'
p1429
F0.0035388888888888887
sS'rec_134'
p1430
F0.0033355555555555556
sS'rec_135'
p1431
F0.0034011111111111113
sS'rec_136'
p1432
F0.0033177777777777776
sS'rec_137'
p1433
F0.0031533333333333335
sS'rec_69'
p1434
F0.0040244444444444442
sS'rec_68'
p1435
F0.0039588888888888885
sS'rec_61'
p1436
F0.00511
sS'rec_60'
p1437
F0.0052366666666666664
sS'rec_63'
p1438
F0.0048300000000000001
sS'rec_62'
p1439
F0.0044422222222222224
sS'rec_65'
p1440
F0.0043299999999999996
sS'rec_64'
p1441
F0.004156666666666667
sS'rec_67'
p1442
F0.0039844444444444441
sS'rec_66'
p1443
F0.0040344444444444447
sS'rec_149'
p1444
F0.0032977777777777779
sS'rec_148'
p1445
F0.0039366666666666664
sS'rec_54'
p1446
F0.0050266666666666663
sS'rec_55'
p1447
F0.0041677777777777781
sS'rec_56'
p1448
F0.0047000000000000002
sS'rec_57'
p1449
F0.0046866666666666662
sS'rec_50'
p1450
F0.0043255555555555556
sS'rec_51'
p1451
F0.0045199999999999997
sS'rec_52'
p1452
F0.0046277777777777775
sS'rec_53'
p1453
F0.0041822222222222226
sS'rec_58'
p1454
F0.0047155555555555553
sS'rec_59'
p1455
F0.0042722222222222224
sS'rec_43'
p1456
F0.0080122222222222227
sS'rec_42'
p1457
F0.0065033333333333332
sS'rec_41'
p1458
F0.0070522222222222219
sS'rec_40'
p1459
F0.0054755555555555556
sS'rec_47'
p1460
F0.005291111111111111
sS'rec_46'
p1461
F0.004282222222222222
sS'rec_45'
p1462
F0.0059544444444444445
sS'rec_44'
p1463
F0.0059144444444444444
sS'rec_49'
p1464
F0.0048888888888888888
sS'rec_48'
p1465
F0.0046622222222222221
sS'rec_6'
p1466
F0.0078544444444444451
sS'rec_7'
p1467
F0.008964444444444445
sS'rec_4'
p1468
F0.0095077777777777782
sS'rec_5'
p1469
F0.0083533333333333341
sS'rec_2'
p1470
F0.010577777777777778
sS'rec_3'
p1471
F0.0073299999999999997
sS'rec_0'
p1472
F0.011686666666666666
sS'rec_1'
p1473
F0.0083344444444444447
sS'rec_8'
p1474
F0.0062433333333333334
sS'rec_9'
p1475
F0.0054222222222222224
sS'rec_105'
p1476
F0.0036766666666666666
sS'rec_104'
p1477
F0.00349
sS'rec_107'
p1478
F0.00363
sS'rec_106'
p1479
F0.0033744444444444442
sS'rec_101'
p1480
F0.0036155555555555554
sS'rec_100'
p1481
F0.0040155555555555552
sS'rec_103'
p1482
F0.0033522222222222221
sS'rec_102'
p1483
F0.0035288888888888887
sS'rec_109'
p1484
F0.0031988888888888887
sS'rec_108'
p1485
F0.003148888888888889
sS'rec_160'
p1486
F0.0030811111111111113
sS'rec_36'
p1487
F0.0053077777777777776
sS'rec_37'
p1488
F0.0045222222222222226
sS'rec_34'
p1489
F0.0040966666666666669
sS'rec_35'
p1490
F0.0043533333333333332
sS'rec_32'
p1491
F0.0040622222222222223
sS'rec_33'
p1492
F0.003951111111111111
sS'rec_30'
p1493
F0.0043755555555555553
sS'rec_31'
p1494
F0.003648888888888889
sS'rec_38'
p1495
F0.0037244444444444443
sS'rec_39'
p1496
F0.0034433333333333334
sS'rec_112'
p1497
F0.00363
sS'rec_113'
p1498
F0.0038266666666666666
sS'rec_110'
p1499
F0.0033766666666666667
sS'rec_111'
p1500
F0.0033888888888888888
sS'rec_116'
p1501
F0.0036633333333333335
sS'rec_117'
p1502
F0.00347
sS'rec_114'
p1503
F0.0034533333333333334
sS'rec_115'
p1504
F0.0033455555555555556
sS'rec_118'
p1505
F0.0033744444444444442
sS'rec_119'
p1506
F0.0030677777777777778
sS'rec_25'
p1507
F0.0060488888888888892
sS'rec_24'
p1508
F0.0060499999999999998
sS'rec_27'
p1509
F0.0067533333333333334
sS'rec_26'
p1510
F0.0048411111111111111
sS'rec_21'
p1511
F0.0056533333333333331
sS'rec_20'
p1512
F0.0056277777777777776
sS'rec_23'
p1513
F0.0050177777777777781
sS'rec_22'
p1514
F0.0054799999999999996
sS'rec_29'
p1515
F0.0043455555555555556
sS'rec_28'
p1516
F0.0044533333333333334
sS'rec_98'
p1517
F0.0051177777777777775
sS'rec_99'
p1518
F0.0047477777777777778
sS'rec_143'
p1519
F0.003818888888888889
sS'rec_142'
p1520
F0.0034455555555555554
sS'rec_145'
p1521
F0.0035311111111111112
sS'rec_144'
p1522
F0.0035144444444444446
sS'rec_147'
p1523
F0.0035966666666666668
sS'rec_146'
p1524
F0.0034411111111111109
sS'rec_90'
p1525
F0.0032722222222222224
sS'rec_91'
p1526
F0.0035466666666666667
sS'rec_92'
p1527
F0.0038311111111111111
sS'rec_93'
p1528
F0.0034766666666666665
sS'rec_94'
p1529
F0.0035433333333333332
sS'rec_95'
p1530
F0.0032100000000000002
sS'rec_96'
p1531
F0.0039466666666666669
sS'rec_97'
p1532
F0.0035822222222222223
sS'rec_10'
p1533
F0.0068377777777777777
sS'rec_11'
p1534
F0.0058500000000000002
sS'rec_12'
p1535
F0.0055188888888888891
sS'rec_13'
p1536
F0.0046433333333333335
sS'rec_14'
p1537
F0.0047000000000000002
sS'rec_15'
p1538
F0.0061700000000000001
sS'rec_16'
p1539
F0.0061266666666666665
sS'rec_17'
p1540
F0.0053466666666666662
sS'rec_18'
p1541
F0.0048244444444444446
sS'rec_19'
p1542
F0.0052277777777777774
sS'rec_141'
p1543
F0.0034622222222222224
ssg1360
F0.71125333333333329
sstp1544
a(g11
(tRp1545
S'workload'
p1546
g11
(tRp1547
S'n_contents'
p1548
I300000
sS'name'
p1549
S'STATIONARY'
p1550
sS'n_warmup'
p1551
I300000
sS'rate'
p1552
F1
sS'n_measured'
p1553
I900000
sS'alpha'
p1554
F1
ssS'cache_policy'
p1555
g11
(tRp1556
g1549
S'LRU'
p1557
ssS'strategy'
p1558
g11
(tRp1559
g1549
S'C_LFR_P2P'
p1560
ssS'content_placement'
p1561
g11
(tRp1562
g1549
S'UNIFORM'
p1563
ssS'cache_placement'
p1564
g11
(tRp1565
S'network_cache'
p1566
F0.59999999999999998
sS'uCache_budget'
p1567
F180000
sg1549
S'UNIFORM_with_uCache'
p1568
sS'nCache_budget'
p1569
F0
ssS'desc'
p1570
S'strategy: C_LFR_P2P, network cache: 0.6'
p1571
sS'topology'
p1572
g11
(tRp1573
g1549
S'ROCKET_FUEL_with_uCache'
p1574
sS'asn'
p1575
I3257
ssg11
(tRp1576
S'LATENCY'
p1577
g11
(tRp1578
S'MEAN'
p1579
F28.698397777777778
ssS'CACHE_HIT_RATIO'
p1580
g11
(tRp1581
S'PER_NODE_SERVER_HIT_RATIO'
p1582
g11
(tRp1583
S'src_13'
p1584
F0.016954444444444446
sS'src_14'
p1585
F0.016683333333333335
sS'src_11'
p1586
F0.017083333333333332
sS'src_15'
p1587
F0.016177777777777777
sS'src_10'
p1588
F0.016244444444444443
sS'src_12'
p1589
F0.015653333333333332
sS'src_8'
p1590
F0.016718888888888887
sS'src_9'
p1591
F0.017157777777777779
sS'src_6'
p1592
F0.017738888888888887
sS'src_7'
p1593
F0.01823
sS'src_4'
p1594
F0.015365555555555556
sS'src_5'
p1595
F0.018047777777777777
sS'src_2'
p1596
F0.018597777777777779
sS'src_3'
p1597
F0.016624444444444445
sS'src_0'
p1598
F0.019016666666666668
sS'src_1'
p1599
F0.017823333333333333
ssS'PER_NODE_CACHE_HIT_RATIO'
p1600
g11
(tRp1601
S'rec_158'
p1602
F0.0035999999999999999
sS'rec_159'
p1603
F0.0035122222222222221
sS'rec_156'
p1604
F0.0043188888888888886
sS'rec_157'
p1605
F0.0047611111111111109
sS'rec_154'
p1606
F0.0037033333333333332
sS'rec_155'
p1607
F0.0035388888888888887
sS'rec_152'
p1608
F0.0037711111111111109
sS'rec_153'
p1609
F0.0032100000000000002
sS'rec_150'
p1610
F0.0033244444444444445
sS'rec_151'
p1611
F0.0035844444444444444
sS'rec_129'
p1612
F0.0038211111111111111
sS'rec_128'
p1613
F0.0041700000000000001
sS'rec_123'
p1614
F0.0043644444444444442
sS'rec_122'
p1615
F0.0035622222222222223
sS'rec_121'
p1616
F0.0035055555555555556
sS'rec_120'
p1617
F0.0032955555555555555
sS'rec_127'
p1618
F0.0037922222222222224
sS'rec_126'
p1619
F0.0033866666666666667
sS'rec_125'
p1620
F0.0034666666666666665
sS'rec_124'
p1621
F0.0032888888888888889
sS'rec_78'
p1622
F0.0045444444444444447
sS'rec_79'
p1623
F0.0043122222222222225
sS'rec_72'
p1624
F0.0044855555555555551
sS'rec_73'
p1625
F0.0045366666666666663
sS'rec_70'
p1626
F0.0038400000000000001
sS'rec_71'
p1627
F0.0038400000000000001
sS'rec_76'
p1628
F0.0040755555555555554
sS'rec_77'
p1629
F0.0038611111111111112
sS'rec_74'
p1630
F0.0037000000000000002
sS'rec_75'
p1631
F0.0039144444444444444
sS'rec_87'
p1632
F0.0038222222222222221
sS'rec_86'
p1633
F0.0037255555555555557
sS'rec_85'
p1634
F0.0035544444444444443
sS'rec_84'
p1635
F0.0035333333333333332
sS'rec_83'
p1636
F0.0035822222222222223
sS'rec_82'
p1637
F0.0038433333333333332
sS'rec_81'
p1638
F0.004123333333333333
sS'rec_80'
p1639
F0.0037255555555555557
sS'rec_89'
p1640
F0.0035511111111111112
sS'rec_88'
p1641
F0.0033266666666666666
sS'rec_138'
p1642
F0.0035111111111111111
sS'rec_139'
p1643
F0.0036966666666666667
sS'rec_140'
p1644
F0.0032000000000000002
sS'rec_130'
p1645
F0.0040311111111111112
sS'rec_131'
p1646
F0.0037499999999999999
sS'rec_132'
p1647
F0.0036633333333333335
sS'rec_133'
p1648
F0.0035977777777777779
sS'rec_134'
p1649
F0.0036633333333333335
sS'rec_135'
p1650
F0.0034666666666666665
sS'rec_136'
p1651
F0.0034866666666666666
sS'rec_137'
p1652
F0.0031566666666666666
sS'rec_69'
p1653
F0.0039088888888888888
sS'rec_68'
p1654
F0.0039211111111111113
sS'rec_61'
p1655
F0.0053766666666666667
sS'rec_60'
p1656
F0.0053311111111111111
sS'rec_63'
p1657
F0.0047600000000000003
sS'rec_62'
p1658
F0.0044688888888888886
sS'rec_65'
p1659
F0.0044344444444444448
sS'rec_64'
p1660
F0.0042344444444444443
sS'rec_67'
p1661
F0.0040588888888888888
sS'rec_66'
p1662
F0.0039311111111111109
sS'rec_90'
p1663
F0.0033999999999999998
sS'rec_91'
p1664
F0.0035066666666666666
sS'rec_54'
p1665
F0.0048888888888888888
sS'rec_55'
p1666
F0.004302222222222222
sS'rec_56'
p1667
F0.0048866666666666668
sS'rec_57'
p1668
F0.0047611111111111109
sS'rec_50'
p1669
F0.0043622222222222222
sS'rec_51'
p1670
F0.0046966666666666667
sS'rec_52'
p1671
F0.0048199999999999996
sS'rec_53'
p1672
F0.004326666666666667
sS'rec_58'
p1673
F0.0048311111111111115
sS'rec_59'
p1674
F0.0042866666666666669
sS'rec_43'
p1675
F0.007763333333333333
sS'rec_42'
p1676
F0.0065866666666666669
sS'rec_41'
p1677
F0.0071633333333333332
sS'rec_40'
p1678
F0.0057011111111111108
sS'rec_47'
p1679
F0.0054888888888888886
sS'rec_46'
p1680
F0.0046644444444444442
sS'rec_45'
p1681
F0.0058211111111111111
sS'rec_44'
p1682
F0.0060688888888888893
sS'rec_49'
p1683
F0.0049766666666666666
sS'rec_48'
p1684
F0.0049399999999999999
sS'rec_6'
p1685
F0.0080088888888888883
sS'rec_7'
p1686
F0.0091177777777777785
sS'rec_4'
p1687
F0.0096344444444444437
sS'rec_5'
p1688
F0.0083033333333333327
sS'rec_2'
p1689
F0.010638888888888889
sS'rec_3'
p1690
F0.0076422222222222221
sS'rec_0'
p1691
F0.011335555555555555
sS'rec_1'
p1692
F0.0085877777777777775
sS'rec_8'
p1693
F0.0063299999999999997
sS'rec_9'
p1694
F0.0055622222222222219
sS'rec_105'
p1695
F0.0038911111111111112
sS'rec_104'
p1696
F0.0037044444444444442
sS'rec_107'
p1697
F0.0035577777777777778
sS'rec_106'
p1698
F0.0035455555555555557
sS'rec_101'
p1699
F0.0037455555555555554
sS'rec_100'
p1700
F0.0041988888888888892
sS'rec_103'
p1701
F0.0034544444444444444
sS'rec_102'
p1702
F0.0036600000000000001
sS'rec_109'
p1703
F0.0034033333333333333
sS'rec_108'
p1704
F0.0033433333333333331
sS'rec_160'
p1705
F0.0031855555555555556
sS'rec_36'
p1706
F0.0052555555555555558
sS'rec_37'
p1707
F0.0045711111111111109
sS'rec_34'
p1708
F0.0041144444444444449
sS'rec_35'
p1709
F0.0045344444444444442
sS'rec_32'
p1710
F0.0042577777777777779
sS'rec_33'
p1711
F0.003988888888888889
sS'rec_30'
p1712
F0.0044733333333333335
sS'rec_31'
p1713
F0.0038322222222222221
sS'rec_38'
p1714
F0.0039877777777777776
sS'rec_39'
p1715
F0.0035055555555555556
sS'rec_112'
p1716
F0.00382
sS'rec_113'
p1717
F0.0039722222222222225
sS'rec_110'
p1718
F0.0035433333333333332
sS'rec_111'
p1719
F0.0037688888888888889
sS'rec_116'
p1720
F0.0038144444444444445
sS'rec_117'
p1721
F0.0034333333333333334
sS'rec_114'
p1722
F0.0037022222222222222
sS'rec_115'
p1723
F0.0033555555555555556
sS'rec_118'
p1724
F0.0033488888888888891
sS'rec_119'
p1725
F0.0031022222222222224
sS'rec_25'
p1726
F0.0060000000000000001
sS'rec_24'
p1727
F0.0061855555555555553
sS'rec_27'
p1728
F0.0069055555555555554
sS'rec_26'
p1729
F0.0049344444444444444
sS'rec_21'
p1730
F0.0055477777777777782
sS'rec_20'
p1731
F0.0055877777777777774
sS'rec_23'
p1732
F0.0050322222222222227
sS'rec_22'
p1733
F0.005611111111111111
sS'rec_29'
p1734
F0.0044711111111111115
sS'rec_28'
p1735
F0.0046866666666666662
sS'rec_98'
p1736
F0.0051177777777777775
sS'rec_99'
p1737
F0.0047644444444444444
sS'rec_143'
p1738
F0.0038322222222222221
sS'rec_142'
p1739
F0.0035144444444444446
sS'rec_145'
p1740
F0.00365
sS'rec_144'
p1741
F0.003468888888888889
sS'rec_147'
p1742
F0.0035622222222222223
sS'rec_146'
p1743
F0.0035022222222222221
sS'rec_149'
p1744
F0.0032977777777777779
sS'rec_148'
p1745
F0.0040244444444444442
sS'rec_92'
p1746
F0.0038822222222222222
sS'rec_93'
p1747
F0.00349
sS'rec_94'
p1748
F0.0035300000000000002
sS'rec_95'
p1749
F0.0032333333333333333
sS'rec_96'
p1750
F0.0039411111111111114
sS'rec_97'
p1751
F0.0036177777777777779
sS'rec_10'
p1752
F0.0066066666666666669
sS'rec_11'
p1753
F0.0058711111111111108
sS'rec_12'
p1754
F0.0056122222222222224
sS'rec_13'
p1755
F0.0048266666666666666
sS'rec_14'
p1756
F0.0048866666666666668
sS'rec_15'
p1757
F0.0062966666666666666
sS'rec_16'
p1758
F0.0060066666666666671
sS'rec_17'
p1759
F0.0056577777777777781
sS'rec_18'
p1760
F0.0050299999999999997
sS'rec_19'
p1761
F0.0052666666666666669
sS'rec_141'
p1762
F0.0034288888888888889
ssg1579
F0.72588222222222221
sstp1763
a(g11
(tRp1764
S'workload'
p1765
g11
(tRp1766
S'n_contents'
p1767
I300000
sS'name'
p1768
S'STATIONARY'
p1769
sS'n_warmup'
p1770
I300000
sS'rate'
p1771
F1
sS'n_measured'
p1772
I900000
sS'alpha'
p1773
F1
ssS'cache_policy'
p1774
g11
(tRp1775
g1768
S'LRU'
p1776
ssS'strategy'
p1777
g11
(tRp1778
g1768
S'C_LCF_P2P'
p1779
ssS'content_placement'
p1780
g11
(tRp1781
g1768
S'UNIFORM'
p1782
ssS'cache_placement'
p1783
g11
(tRp1784
S'network_cache'
p1785
I0
sS'uCache_budget'
p1786
F0
sg1768
S'UNIFORM_with_uCache'
p1787
sS'nCache_budget'
p1788
F0
ssS'desc'
p1789
S'strategy: C_LCF_P2P, network cache: 0'
p1790
sS'topology'
p1791
g11
(tRp1792
g1768
S'ROCKET_FUEL_with_uCache'
p1793
sS'asn'
p1794
I3257
ssg11
(tRp1795
S'LATENCY'
p1796
g11
(tRp1797
S'MEAN'
p1798
F77.076433333333327
ssS'CACHE_HIT_RATIO'
p1799
g11
(tRp1800
S'PER_NODE_SERVER_HIT_RATIO'
p1801
g11
(tRp1802
S'src_13'
p1803
F0.059255555555555554
sS'src_14'
p1804
F0.042181111111111114
sS'src_11'
p1805
F0.056807777777777776
sS'src_15'
p1806
F0.066970000000000002
sS'src_10'
p1807
F0.048614444444444446
sS'src_12'
p1808
F0.046769999999999999
sS'src_8'
p1809
F0.058835555555555558
sS'src_9'
p1810
F0.042701111111111113
sS'src_6'
p1811
F0.049945555555555556
sS'src_7'
p1812
F0.055162222222222224
sS'src_4'
p1813
F0.040385555555555556
sS'src_5'
p1814
F0.043935555555555554
sS'src_2'
p1815
F0.049931111111111114
sS'src_3'
p1816
F0.052114444444444442
sS'src_0'
p1817
F0.064037777777777777
sS'src_1'
p1818
F0.049391111111111108
ssS'PER_NODE_CACHE_HIT_RATIO'
p1819
g11
(tRp1820
S'rec_158'
p1821
F0.00050444444444444441
sS'rec_159'
p1822
F0.00046222222222222221
sS'rec_156'
p1823
F0.0011900000000000001
sS'rec_157'
p1824
F0.0010933333333333333
sS'rec_154'
p1825
F0.00061888888888888887
sS'rec_155'
p1826
F0.00054555555555555553
sS'rec_152'
p1827
F0.00088222222222222218
sS'rec_153'
p1828
F0.00029444444444444445
sS'rec_150'
p1829
F0.00015111111111111111
sS'rec_151'
p1830
F0.00032555555555555555
sS'rec_129'
p1831
F0.00079555555555555553
sS'rec_128'
p1832
F0.00094666666666666662
sS'rec_123'
p1833
F0.0015922222222222223
sS'rec_122'
p1834
F0.00056999999999999998
sS'rec_121'
p1835
F0.00048000000000000001
sS'rec_120'
p1836
F0.00043555555555555557
sS'rec_127'
p1837
F0.0010588888888888889
sS'rec_126'
p1838
F0.00039777777777777777
sS'rec_125'
p1839
F0.00066111111111111112
sS'rec_124'
p1840
F0.00065333333333333335
sS'rec_78'
p1841
F0.00090222222222222223
sS'rec_79'
p1842
F0.0012466666666666668
sS'rec_72'
p1843
F0.0011922222222222221
sS'rec_73'
p1844
F0.0010911111111111111
sS'rec_70'
p1845
F0.00051111111111111116
sS'rec_71'
p1846
F0.00085666666666666671
sS'rec_76'
p1847
F0.00090555555555555561
sS'rec_77'
p1848
F0.00080999999999999996
sS'rec_74'
p1849
F0.00091111111111111113
sS'rec_75'
p1850
F0.00071666666666666667
sS'rec_87'
p1851
F0.0010655555555555555
sS'rec_86'
p1852
F0.00040999999999999999
sS'rec_85'
p1853
F0.00038333333333333334
sS'rec_84'
p1854
F0.00041888888888888889
sS'rec_83'
p1855
F0.00066666666666666664
sS'rec_82'
p1856
F0.0005444444444444444
sS'rec_81'
p1857
F0.00089888888888888885
sS'rec_80'
p1858
F0.00046999999999999999
sS'rec_89'
p1859
F0.00038444444444444447
sS'rec_88'
p1860
F0.00036666666666666667
sS'rec_138'
p1861
F0.00029
sS'rec_139'
p1862
F0.00053444444444444448
sS'rec_99'
p1863
F0.0013622222222222221
sS'rec_130'
p1864
F0.00067333333333333329
sS'rec_131'
p1865
F0.00063444444444444442
sS'rec_132'
p1866
F0.0006466666666666667
sS'rec_133'
p1867
F0.00062
sS'rec_134'
p1868
F0.00053333333333333336
sS'rec_135'
p1869
F0.00045888888888888889
sS'rec_136'
p1870
F0.00045333333333333331
sS'rec_137'
p1871
F0.00013777777777777779
sS'rec_69'
p1872
F0.00055444444444444443
sS'rec_68'
p1873
F0.00064555555555555557
sS'rec_61'
p1874
F0.0011866666666666666
sS'rec_60'
p1875
F0.0010777777777777778
sS'rec_63'
p1876
F0.0012088888888888889
sS'rec_62'
p1877
F0.00048777777777777779
sS'rec_65'
p1878
F0.0010566666666666667
sS'rec_64'
p1879
F0.00093333333333333332
sS'rec_67'
p1880
F0.0008744444444444444
sS'rec_66'
p1881
F0.00057555555555555561
sS'rec_149'
p1882
F0.00064000000000000005
sS'rec_91'
p1883
F0.00056999999999999998
sS'rec_54'
p1884
F0.0018
sS'rec_55'
p1885
F0.0010877777777777778
sS'rec_56'
p1886
F0.0015377777777777779
sS'rec_57'
p1887
F0.0013133333333333332
sS'rec_50'
p1888
F0.00083111111111111113
sS'rec_51'
p1889
F0.0013911111111111112
sS'rec_52'
p1890
F0.0018699999999999999
sS'rec_53'
p1891
F0.0011388888888888889
sS'rec_58'
p1892
F0.0016577777777777778
sS'rec_59'
p1893
F0.0010044444444444445
sS'rec_43'
p1894
F0.002482222222222222
sS'rec_42'
p1895
F0.0013588888888888889
sS'rec_41'
p1896
F0.0022044444444444446
sS'rec_40'
p1897
F0.0014588888888888889
sS'rec_47'
p1898
F0.0016322222222222222
sS'rec_46'
p1899
F0.00074888888888888889
sS'rec_45'
p1900
F0.00149
sS'rec_44'
p1901
F0.0013566666666666666
sS'rec_49'
p1902
F0.00148
sS'rec_48'
p1903
F0.0011122222222222221
sS'rec_6'
p1904
F0.0027677777777777779
sS'rec_7'
p1905
F0.003301111111111111
sS'rec_4'
p1906
F0.0018444444444444443
sS'rec_5'
p1907
F0.0032111111111111112
sS'rec_2'
p1908
F0.0035500000000000002
sS'rec_3'
p1909
F0.0020855555555555553
sS'rec_0'
p1910
F0.0037266666666666668
sS'rec_1'
p1911
F0.0025822222222222223
sS'rec_8'
p1912
F0.0018844444444444444
sS'rec_9'
p1913
F0.0018588888888888889
sS'rec_105'
p1914
F0.00093888888888888885
sS'rec_104'
p1915
F0.00055666666666666668
sS'rec_107'
p1916
F0.00052444444444444446
sS'rec_106'
p1917
F0.00062333333333333338
sS'rec_101'
p1918
F0.00072000000000000005
sS'rec_100'
p1919
F0.00094444444444444448
sS'rec_103'
p1920
F0.00017000000000000001
sS'rec_102'
p1921
F0.00071888888888888892
sS'rec_109'
p1922
F0.00061333333333333335
sS'rec_108'
p1923
F0.00044777777777777779
sS'rec_160'
p1924
F0.00035
sS'rec_36'
p1925
F0.00174
sS'rec_37'
p1926
F0.0016333333333333334
sS'rec_34'
p1927
F0.0011744444444444445
sS'rec_35'
p1928
F0.0014144444444444445
sS'rec_32'
p1929
F0.0010877777777777778
sS'rec_33'
p1930
F0.0010144444444444446
sS'rec_30'
p1931
F0.0016044444444444444
sS'rec_31'
p1932
F0.0011133333333333334
sS'rec_38'
p1933
F0.00089666666666666671
sS'rec_39'
p1934
F0.00052555555555555558
sS'rec_112'
p1935
F0.0010644444444444445
sS'rec_113'
p1936
F0.0013722222222222222
sS'rec_110'
p1937
F0.0007044444444444445
sS'rec_111'
p1938
F0.00072888888888888884
sS'rec_116'
p1939
F0.00097777777777777772
sS'rec_117'
p1940
F0.00075333333333333329
sS'rec_114'
p1941
F0.00092111111111111115
sS'rec_115'
p1942
F0.00050777777777777778
sS'rec_118'
p1943
F0.00060333333333333333
sS'rec_119'
p1944
F0.0003277777777777778
sS'rec_25'
p1945
F0.0017966666666666667
sS'rec_24'
p1946
F0.0016766666666666666
sS'rec_27'
p1947
F0.00183
sS'rec_26'
p1948
F0.00070555555555555551
sS'rec_21'
p1949
F0.00116
sS'rec_20'
p1950
F0.0015422222222222222
sS'rec_23'
p1951
F0.0013233333333333333
sS'rec_22'
p1952
F0.0012800000000000001
sS'rec_29'
p1953
F0.0014577777777777777
sS'rec_28'
p1954
F0.0014044444444444445
sS'rec_98'
p1955
F0.0021988888888888887
sS'rec_140'
p1956
F0.00025999999999999998
sS'rec_143'
p1957
F0.0010344444444444444
sS'rec_142'
p1958
F0.00055000000000000003
sS'rec_145'
p1959
F0.00093333333333333332
sS'rec_144'
p1960
F0.00090777777777777775
sS'rec_147'
p1961
F0.00085111111111111108
sS'rec_146'
p1962
F0.00080999999999999996
sS'rec_90'
p1963
F0.0003877777777777778
sS'rec_148'
p1964
F0.0013355555555555555
sS'rec_92'
p1965
F0.001318888888888889
sS'rec_93'
p1966
F0.00082666666666666663
sS'rec_94'
p1967
F0.00081666666666666671
sS'rec_95'
p1968
F0.00042333333333333334
sS'rec_96'
p1969
F0.00088666666666666668
sS'rec_97'
p1970
F0.00090222222222222223
sS'rec_10'
p1971
F0.0019433333333333334
sS'rec_11'
p1972
F0.0019633333333333334
sS'rec_12'
p1973
F0.0015133333333333333
sS'rec_13'
p1974
F0.00174
sS'rec_14'
p1975
F0.0017588888888888888
sS'rec_15'
p1976
F0.0014288888888888888
sS'rec_16'
p1977
F0.0013844444444444444
sS'rec_17'
p1978
F0.0011122222222222221
sS'rec_18'
p1979
F0.0019300000000000001
sS'rec_19'
p1980
F0.0016988888888888889
sS'rec_141'
p1981
F0.00075888888888888892
ssg1798
F0.17296111111111112
sstp1982
a(g11
(tRp1983
S'workload'
p1984
g11
(tRp1985
S'n_contents'
p1986
I300000
sS'name'
p1987
S'STATIONARY'
p1988
sS'n_warmup'
p1989
I300000
sS'rate'
p1990
F1
sS'n_measured'
p1991
I900000
sS'alpha'
p1992
F1
ssS'cache_policy'
p1993
g11
(tRp1994
g1987
S'LRU'
p1995
ssS'strategy'
p1996
g11
(tRp1997
g1987
S'C_LCF_P2P'
p1998
ssS'content_placement'
p1999
g11
(tRp2000
g1987
S'UNIFORM'
p2001
ssS'cache_placement'
p2002
g11
(tRp2003
S'network_cache'
p2004
F0.050000000000000003
sS'uCache_budget'
p2005
F15000
sg1987
S'UNIFORM_with_uCache'
p2006
sS'nCache_budget'
p2007
F0
ssS'desc'
p2008
S'strategy: C_LCF_P2P, network cache: 0.05'
p2009
sS'topology'
p2010
g11
(tRp2011
g1987
S'ROCKET_FUEL_with_uCache'
p2012
sS'asn'
p2013
I3257
ssg11
(tRp2014
S'LATENCY'
p2015
g11
(tRp2016
S'MEAN'
p2017
F47.02153777777778
ssS'CACHE_HIT_RATIO'
p2018
g11
(tRp2019
S'PER_NODE_SERVER_HIT_RATIO'
p2020
g11
(tRp2021
S'src_13'
p2022
F0.031119999999999998
sS'src_14'
p2023
F0.030367777777777778
sS'src_11'
p2024
F0.02945
sS'src_15'
p2025
F0.028283333333333334
sS'src_10'
p2026
F0.029463333333333334
sS'src_12'
p2027
F0.027737777777777778
sS'src_8'
p2028
F0.028457777777777776
sS'src_9'
p2029
F0.028366666666666665
sS'src_6'
p2030
F0.029667777777777779
sS'src_7'
p2031
F0.031739999999999997
sS'src_4'
p2032
F0.02847111111111111
sS'src_5'
p2033
F0.031392222222222224
sS'src_2'
p2034
F0.032098888888888892
sS'src_3'
p2035
F0.029046666666666665
sS'src_0'
p2036
F0.033795555555555558
sS'src_1'
p2037
F0.029247777777777779
ssS'PER_NODE_CACHE_HIT_RATIO'
p2038
g11
(tRp2039
S'rec_158'
p2040
F0.00215
sS'rec_159'
p2041
F0.0021722222222222221
sS'rec_156'
p2042
F0.0030033333333333335
sS'rec_157'
p2043
F0.00331
sS'rec_154'
p2044
F0.0022944444444444444
sS'rec_155'
p2045
F0.0021144444444444444
sS'rec_152'
p2046
F0.002461111111111111
sS'rec_153'
p2047
F0.0020466666666666667
sS'rec_150'
p2048
F0.0019844444444444445
sS'rec_151'
p2049
F0.0023144444444444445
sS'rec_129'
p2050
F0.0026655555555555556
sS'rec_128'
p2051
F0.0026777777777777776
sS'rec_123'
p2052
F0.0029333333333333334
sS'rec_122'
p2053
F0.0021733333333333335
sS'rec_121'
p2054
F0.002168888888888889
sS'rec_120'
p2055
F0.0020422222222222222
sS'rec_127'
p2056
F0.0024466666666666669
sS'rec_126'
p2057
F0.0020533333333333332
sS'rec_125'
p2058
F0.0021900000000000001
sS'rec_124'
p2059
F0.0021099999999999999
sS'rec_78'
p2060
F0.0030577777777777778
sS'rec_79'
p2061
F0.002972222222222222
sS'rec_72'
p2062
F0.0030999999999999999
sS'rec_73'
p2063
F0.0029388888888888889
sS'rec_70'
p2064
F0.0025011111111111111
sS'rec_71'
p2065
F0.0026222222222222224
sS'rec_76'
p2066
F0.0028633333333333332
sS'rec_77'
p2067
F0.0025544444444444443
sS'rec_74'
p2068
F0.0023933333333333333
sS'rec_75'
p2069
F0.0025788888888888888
sS'rec_87'
p2070
F0.0025766666666666668
sS'rec_86'
p2071
F0.002328888888888889
sS'rec_85'
p2072
F0.0021544444444444445
sS'rec_84'
p2073
F0.0022355555555555557
sS'rec_83'
p2074
F0.0022366666666666668
sS'rec_82'
p2075
F0.0024266666666666668
sS'rec_81'
p2076
F0.0028700000000000002
sS'rec_80'
p2077
F0.0023888888888888887
sS'rec_89'
p2078
F0.0022611111111111113
sS'rec_88'
p2079
F0.0020344444444444446
sS'rec_138'
p2080
F0.0021977777777777777
sS'rec_139'
p2081
F0.0022822222222222224
sS'rec_140'
p2082
F0.0019733333333333334
sS'rec_130'
p2083
F0.0026966666666666667
sS'rec_131'
p2084
F0.0025466666666666667
sS'rec_132'
p2085
F0.0022611111111111113
sS'rec_133'
p2086
F0.0022699999999999999
sS'rec_134'
p2087
F0.0022155555555555557
sS'rec_135'
p2088
F0.0021322222222222224
sS'rec_136'
p2089
F0.0021555555555555555
sS'rec_137'
p2090
F0.0019688888888888889
sS'rec_69'
p2091
F0.0026800000000000001
sS'rec_68'
p2092
F0.0028366666666666666
sS'rec_61'
p2093
F0.0041066666666666665
sS'rec_60'
p2094
F0.0040466666666666663
sS'rec_63'
p2095
F0.0036277777777777779
sS'rec_62'
p2096
F0.0033511111111111111
sS'rec_65'
p2097
F0.0032066666666666667
sS'rec_64'
p2098
F0.0030077777777777776
sS'rec_67'
p2099
F0.0025455555555555557
sS'rec_66'
p2100
F0.0026333333333333334
sS'rec_90'
p2101
F0.0020488888888888887
sS'rec_91'
p2102
F0.0022977777777777779
sS'rec_54'
p2103
F0.0038944444444444443
sS'rec_55'
p2104
F0.0029488888888888889
sS'rec_56'
p2105
F0.0036177777777777779
sS'rec_57'
p2106
F0.0035588888888888888
sS'rec_50'
p2107
F0.0031044444444444444
sS'rec_51'
p2108
F0.003302222222222222
sS'rec_52'
p2109
F0.0033944444444444443
sS'rec_53'
p2110
F0.002791111111111111
sS'rec_58'
p2111
F0.0034988888888888891
sS'rec_59'
p2112
F0.0029488888888888889
sS'rec_43'
p2113
F0.007118888888888889
sS'rec_42'
p2114
F0.0054111111111111113
sS'rec_41'
p2115
F0.0059188888888888885
sS'rec_40'
p2116
F0.0044366666666666669
sS'rec_47'
p2117
F0.00413
sS'rec_46'
p2118
F0.0031944444444444446
sS'rec_45'
p2119
F0.0048388888888888891
sS'rec_44'
p2120
F0.0045911111111111109
sS'rec_49'
p2121
F0.0039788888888888886
sS'rec_48'
p2122
F0.0036877777777777777
sS'rec_6'
p2123
F0.0070722222222222219
sS'rec_7'
p2124
F0.0081344444444444441
sS'rec_4'
p2125
F0.0094133333333333326
sS'rec_5'
p2126
F0.0076855555555555557
sS'rec_2'
p2127
F0.010181111111111111
sS'rec_3'
p2128
F0.0063422222222222222
sS'rec_0'
p2129
F0.011018888888888889
sS'rec_1'
p2130
F0.0077977777777777776
sS'rec_8'
p2131
F0.0051066666666666665
sS'rec_9'
p2132
F0.0042877777777777775
sS'rec_105'
p2133
F0.0025066666666666666
sS'rec_104'
p2134
F0.0023266666666666666
sS'rec_107'
p2135
F0.0023066666666666665
sS'rec_106'
p2136
F0.0021922222222222221
sS'rec_101'
p2137
F0.0023433333333333331
sS'rec_100'
p2138
F0.0027733333333333334
sS'rec_103'
p2139
F0.0021622222222222221
sS'rec_102'
p2140
F0.0023988888888888888
sS'rec_109'
p2141
F0.0020511111111111112
sS'rec_108'
p2142
F0.0020577777777777777
sS'rec_160'
p2143
F0.0018633333333333334
sS'rec_36'
p2144
F0.0040666666666666663
sS'rec_37'
p2145
F0.0032866666666666665
sS'rec_34'
p2146
F0.0029055555555555558
sS'rec_35'
p2147
F0.0031099999999999999
sS'rec_32'
p2148
F0.0028522222222222221
sS'rec_33'
p2149
F0.00264
sS'rec_30'
p2150
F0.0031877777777777777
sS'rec_31'
p2151
F0.002478888888888889
sS'rec_38'
p2152
F0.0025311111111111111
sS'rec_39'
p2153
F0.0022211111111111112
sS'rec_112'
p2154
F0.0024511111111111109
sS'rec_113'
p2155
F0.0025833333333333333
sS'rec_110'
p2156
F0.0023811111111111112
sS'rec_111'
p2157
F0.0022366666666666668
sS'rec_116'
p2158
F0.0023544444444444446
sS'rec_117'
p2159
F0.0020777777777777778
sS'rec_114'
p2160
F0.0022122222222222222
sS'rec_115'
p2161
F0.0021077777777777779
sS'rec_118'
p2162
F0.0020088888888888891
sS'rec_119'
p2163
F0.0018600000000000001
sS'rec_25'
p2164
F0.0047088888888888892
sS'rec_24'
p2165
F0.0049644444444444441
sS'rec_27'
p2166
F0.0056555555555555552
sS'rec_26'
p2167
F0.0039344444444444444
sS'rec_21'
p2168
F0.0043099999999999996
sS'rec_20'
p2169
F0.0042988888888888886
sS'rec_23'
p2170
F0.0035999999999999999
sS'rec_22'
p2171
F0.0042422222222222219
sS'rec_29'
p2172
F0.0031066666666666669
sS'rec_28'
p2173
F0.0033911111111111112
sS'rec_98'
p2174
F0.0038388888888888891
sS'rec_99'
p2175
F0.0036011111111111109
sS'rec_143'
p2176
F0.0024844444444444445
sS'rec_142'
p2177
F0.0021666666666666666
sS'rec_145'
p2178
F0.0023955555555555557
sS'rec_144'
p2179
F0.0022844444444444444
sS'rec_147'
p2180
F0.0023411111111111111
sS'rec_146'
p2181
F0.002142222222222222
sS'rec_149'
p2182
F0.0021777777777777776
sS'rec_148'
p2183
F0.0027511111111111113
sS'rec_92'
p2184
F0.0027177777777777777
sS'rec_93'
p2185
F0.0021711111111111111
sS'rec_94'
p2186
F0.0021655555555555555
sS'rec_95'
p2187
F0.0019477777777777779
sS'rec_96'
p2188
F0.0025644444444444443
sS'rec_97'
p2189
F0.0023488888888888891
sS'rec_10'
p2190
F0.0055133333333333336
sS'rec_11'
p2191
F0.0048822222222222218
sS'rec_12'
p2192
F0.0041944444444444442
sS'rec_13'
p2193
F0.0033944444444444443
sS'rec_14'
p2194
F0.0034366666666666669
sS'rec_15'
p2195
F0.0051666666666666666
sS'rec_16'
p2196
F0.0048855555555555553
sS'rec_17'
p2197
F0.0042644444444444448
sS'rec_18'
p2198
F0.003648888888888889
sS'rec_19'
p2199
F0.0040444444444444443
sS'rec_141'
p2200
F0.0021122222222222224
ssg2017
F0.52129333333333339
sstp2201
a(g11
(tRp2202
S'workload'
p2203
g11
(tRp2204
S'n_contents'
p2205
I300000
sS'name'
p2206
S'STATIONARY'
p2207
sS'n_warmup'
p2208
I300000
sS'rate'
p2209
F1
sS'n_measured'
p2210
I900000
sS'alpha'
p2211
F1
ssS'cache_policy'
p2212
g11
(tRp2213
g2206
S'LRU'
p2214
ssS'strategy'
p2215
g11
(tRp2216
g2206
S'C_LCF_P2P'
p2217
ssS'content_placement'
p2218
g11
(tRp2219
g2206
S'UNIFORM'
p2220
ssS'cache_placement'
p2221
g11
(tRp2222
S'network_cache'
p2223
F0.10000000000000001
sS'uCache_budget'
p2224
F30000
sg2206
S'UNIFORM_with_uCache'
p2225
sS'nCache_budget'
p2226
F0
ssS'desc'
p2227
S'strategy: C_LCF_P2P, network cache: 0.1'
p2228
sS'topology'
p2229
g11
(tRp2230
g2206
S'ROCKET_FUEL_with_uCache'
p2231
sS'asn'
p2232
I3257
ssg11
(tRp2233
S'LATENCY'
p2234
g11
(tRp2235
S'MEAN'
p2236
F41.970486666666666
ssS'CACHE_HIT_RATIO'
p2237
g11
(tRp2238
S'PER_NODE_SERVER_HIT_RATIO'
p2239
g11
(tRp2240
S'src_13'
p2241
F0.026615555555555555
sS'src_14'
p2242
F0.026040000000000001
sS'src_11'
p2243
F0.025981111111111111
sS'src_15'
p2244
F0.02598
sS'src_10'
p2245
F0.025311111111111111
sS'src_12'
p2246
F0.024586666666666666
sS'src_8'
p2247
F0.025635555555555557
sS'src_9'
p2248
F0.02606
sS'src_6'
p2249
F0.027093333333333334
sS'src_7'
p2250
F0.027743333333333332
sS'src_4'
p2251
F0.024250000000000001
sS'src_5'
p2252
F0.028486666666666667
sS'src_2'
p2253
F0.027657777777777778
sS'src_3'
p2254
F0.026392222222222223
sS'src_0'
p2255
F0.028129999999999999
sS'src_1'
p2256
F0.026436666666666667
ssS'PER_NODE_CACHE_HIT_RATIO'
p2257
g11
(tRp2258
S'rec_158'
p2259
F0.0025933333333333333
sS'rec_159'
p2260
F0.0025277777777777777
sS'rec_156'
p2261
F0.0035477777777777777
sS'rec_157'
p2262
F0.0037677777777777779
sS'rec_154'
p2263
F0.0026088888888888889
sS'rec_155'
p2264
F0.0024966666666666666
sS'rec_152'
p2265
F0.0028322222222222221
sS'rec_153'
p2266
F0.0021944444444444446
sS'rec_150'
p2267
F0.002328888888888889
sS'rec_151'
p2268
F0.0025600000000000002
sS'rec_129'
p2269
F0.002802222222222222
sS'rec_128'
p2270
F0.0031155555555555554
sS'rec_123'
p2271
F0.0032722222222222224
sS'rec_122'
p2272
F0.0024422222222222224
sS'rec_121'
p2273
F0.0025500000000000002
sS'rec_120'
p2274
F0.0023466666666666666
sS'rec_127'
p2275
F0.0029066666666666668
sS'rec_126'
p2276
F0.002301111111111111
sS'rec_125'
p2277
F0.0025833333333333333
sS'rec_124'
p2278
F0.0024411111111111109
sS'rec_78'
p2279
F0.0034366666666666669
sS'rec_79'
p2280
F0.0033877777777777777
sS'rec_72'
p2281
F0.0034155555555555554
sS'rec_73'
p2282
F0.0034455555555555554
sS'rec_70'
p2283
F0.0029544444444444444
sS'rec_71'
p2284
F0.0029344444444444444
sS'rec_76'
p2285
F0.00314
sS'rec_77'
p2286
F0.0029033333333333333
sS'rec_74'
p2287
F0.002812222222222222
sS'rec_75'
p2288
F0.0029144444444444443
sS'rec_87'
p2289
F0.0029166666666666668
sS'rec_86'
p2290
F0.0026855555555555556
sS'rec_85'
p2291
F0.0024011111111111112
sS'rec_84'
p2292
F0.0025966666666666668
sS'rec_83'
p2293
F0.0026855555555555556
sS'rec_82'
p2294
F0.0029555555555555555
sS'rec_81'
p2295
F0.0032511111111111113
sS'rec_80'
p2296
F0.0027233333333333332
sS'rec_89'
p2297
F0.0026122222222222224
sS'rec_88'
p2298
F0.0025044444444444446
sS'rec_138'
p2299
F0.0023811111111111112
sS'rec_139'
p2300
F0.0026099999999999999
sS'rec_99'
p2301
F0.0037833333333333334
sS'rec_130'
p2302
F0.0030633333333333333
sS'rec_131'
p2303
F0.002821111111111111
sS'rec_132'
p2304
F0.0027077777777777777
sS'rec_133'
p2305
F0.0025566666666666667
sS'rec_134'
p2306
F0.00265
sS'rec_135'
p2307
F0.0025433333333333332
sS'rec_136'
p2308
F0.0024344444444444444
sS'rec_137'
p2309
F0.0023044444444444445
sS'rec_69'
p2310
F0.0030955555555555554
sS'rec_68'
p2311
F0.0031022222222222224
sS'rec_61'
p2312
F0.0044255555555555558
sS'rec_60'
p2313
F0.004273333333333333
sS'rec_63'
p2314
F0.0039244444444444448
sS'rec_62'
p2315
F0.0034988888888888891
sS'rec_65'
p2316
F0.0034966666666666666
sS'rec_64'
p2317
F0.003318888888888889
sS'rec_67'
p2318
F0.0030188888888888891
sS'rec_66'
p2319
F0.0031622222222222221
sS'rec_149'
p2320
F0.0024211111111111113
sS'rec_148'
p2321
F0.0032055555555555557
sS'rec_54'
p2322
F0.0041344444444444441
sS'rec_55'
p2323
F0.003311111111111111
sS'rec_56'
p2324
F0.0039988888888888886
sS'rec_57'
p2325
F0.0037855555555555555
sS'rec_50'
p2326
F0.0035833333333333333
sS'rec_51'
p2327
F0.0037788888888888889
sS'rec_52'
p2328
F0.0037299999999999998
sS'rec_53'
p2329
F0.0031888888888888887
sS'rec_58'
p2330
F0.0036900000000000001
sS'rec_59'
p2331
F0.0034233333333333333
sS'rec_43'
p2332
F0.0073366666666666667
sS'rec_42'
p2333
F0.0060744444444444448
sS'rec_41'
p2334
F0.0063288888888888891
sS'rec_40'
p2335
F0.0047999999999999996
sS'rec_47'
p2336
F0.0045477777777777782
sS'rec_46'
p2337
F0.0036755555555555556
sS'rec_45'
p2338
F0.0050699999999999999
sS'rec_44'
p2339
F0.005138888888888889
sS'rec_49'
p2340
F0.0040077777777777776
sS'rec_48'
p2341
F0.0038144444444444445
sS'rec_6'
p2342
F0.0073122222222222226
sS'rec_7'
p2343
F0.008302222222222223
sS'rec_4'
p2344
F0.0097477777777777771
sS'rec_5'
p2345
F0.0076633333333333336
sS'rec_2'
p2346
F0.010481111111111111
sS'rec_3'
p2347
F0.0068633333333333333
sS'rec_0'
p2348
F0.011252222222222222
sS'rec_1'
p2349
F0.0076566666666666667
sS'rec_8'
p2350
F0.0053555555555555552
sS'rec_9'
p2351
F0.0048033333333333331
sS'rec_105'
p2352
F0.0028777777777777777
sS'rec_104'
p2353
F0.0026288888888888889
sS'rec_107'
p2354
F0.0026222222222222224
sS'rec_106'
p2355
F0.0025188888888888891
sS'rec_101'
p2356
F0.0028311111111111111
sS'rec_100'
p2357
F0.0031322222222222224
sS'rec_103'
p2358
F0.0025266666666666666
sS'rec_102'
p2359
F0.0027222222222222222
sS'rec_109'
p2360
F0.0024299999999999999
sS'rec_108'
p2361
F0.0024444444444444444
sS'rec_160'
p2362
F0.0021700000000000001
sS'rec_36'
p2363
F0.0041655555555555552
sS'rec_37'
p2364
F0.0035511111111111112
sS'rec_34'
p2365
F0.0030344444444444446
sS'rec_35'
p2366
F0.0034544444444444444
sS'rec_32'
p2367
F0.0031877777777777777
sS'rec_33'
p2368
F0.0030711111111111113
sS'rec_30'
p2369
F0.0035666666666666668
sS'rec_31'
p2370
F0.00297
sS'rec_38'
p2371
F0.0029655555555555555
sS'rec_39'
p2372
F0.0026244444444444444
sS'rec_112'
p2373
F0.002818888888888889
sS'rec_113'
p2374
F0.0030500000000000002
sS'rec_110'
p2375
F0.0025755555555555558
sS'rec_111'
p2376
F0.0025577777777777777
sS'rec_116'
p2377
F0.0026766666666666666
sS'rec_117'
p2378
F0.0025822222222222223
sS'rec_114'
p2379
F0.0025633333333333333
sS'rec_115'
p2380
F0.0024422222222222224
sS'rec_118'
p2381
F0.0024388888888888889
sS'rec_119'
p2382
F0.0021700000000000001
sS'rec_25'
p2383
F0.0051155555555555555
sS'rec_24'
p2384
F0.0053733333333333333
sS'rec_27'
p2385
F0.0062388888888888893
sS'rec_26'
p2386
F0.0040933333333333334
sS'rec_21'
p2387
F0.004796666666666667
sS'rec_20'
p2388
F0.0046044444444444449
sS'rec_23'
p2389
F0.0042355555555555558
sS'rec_22'
p2390
F0.0047033333333333337
sS'rec_29'
p2391
F0.0035255555555555556
sS'rec_28'
p2392
F0.0036277777777777779
sS'rec_98'
p2393
F0.0043222222222222221
sS'rec_140'
p2394
F0.0022399999999999998
sS'rec_143'
p2395
F0.0028522222222222221
sS'rec_142'
p2396
F0.0025444444444444447
sS'rec_145'
p2397
F0.0027077777777777777
sS'rec_144'
p2398
F0.0026444444444444445
sS'rec_147'
p2399
F0.0027366666666666668
sS'rec_146'
p2400
F0.0026433333333333335
sS'rec_90'
p2401
F0.0023922222222222222
sS'rec_91'
p2402
F0.0026099999999999999
sS'rec_92'
p2403
F0.0030144444444444446
sS'rec_93'
p2404
F0.002487777777777778
sS'rec_94'
p2405
F0.0025955555555555554
sS'rec_95'
p2406
F0.0023400000000000001
sS'rec_96'
p2407
F0.0029844444444444445
sS'rec_97'
p2408
F0.0028166666666666665
sS'rec_10'
p2409
F0.0058544444444444442
sS'rec_11'
p2410
F0.0050655555555555558
sS'rec_12'
p2411
F0.0046100000000000004
sS'rec_13'
p2412
F0.0039377777777777779
sS'rec_14'
p2413
F0.0036700000000000001
sS'rec_15'
p2414
F0.0055288888888888887
sS'rec_16'
p2415
F0.0053488888888888891
sS'rec_17'
p2416
F0.0046322222222222225
sS'rec_18'
p2417
F0.0040577777777777782
sS'rec_19'
p2418
F0.0042622222222222219
sS'rec_141'
p2419
F0.0024633333333333334
ssg2236
F0.5776
sstp2420
a(g11
(tRp2421
S'workload'
p2422
g11
(tRp2423
S'n_contents'
p2424
I300000
sS'name'
p2425
S'STATIONARY'
p2426
sS'n_warmup'
p2427
I300000
sS'rate'
p2428
F1
sS'n_measured'
p2429
I900000
sS'alpha'
p2430
F1
ssS'cache_policy'
p2431
g11
(tRp2432
g2425
S'LRU'
p2433
ssS'strategy'
p2434
g11
(tRp2435
g2425
S'C_LFR_P2P'
p2436
ssS'content_placement'
p2437
g11
(tRp2438
g2425
S'UNIFORM'
p2439
ssS'cache_placement'
p2440
g11
(tRp2441
S'network_cache'
p2442
F0.69999999999999996
sS'uCache_budget'
p2443
F210000
sg2425
S'UNIFORM_with_uCache'
p2444
sS'nCache_budget'
p2445
F0
ssS'desc'
p2446
S'strategy: C_LFR_P2P, network cache: 0.7'
p2447
sS'topology'
p2448
g11
(tRp2449
g2425
S'ROCKET_FUEL_with_uCache'
p2450
sS'asn'
p2451
I3257
ssg11
(tRp2452
S'LATENCY'
p2453
g11
(tRp2454
S'MEAN'
p2455
F27.599851111111111
ssS'CACHE_HIT_RATIO'
p2456
g11
(tRp2457
S'PER_NODE_SERVER_HIT_RATIO'
p2458
g11
(tRp2459
S'src_13'
p2460
F0.016328888888888889
sS'src_14'
p2461
F0.015911111111111112
sS'src_11'
p2462
F0.016201111111111111
sS'src_15'
p2463
F0.015054444444444445
sS'src_10'
p2464
F0.015755555555555554
sS'src_12'
p2465
F0.014793333333333334
sS'src_8'
p2466
F0.016376666666666668
sS'src_9'
p2467
F0.016104444444444446
sS'src_6'
p2468
F0.017033333333333334
sS'src_7'
p2469
F0.017170000000000001
sS'src_4'
p2470
F0.014553333333333333
sS'src_5'
p2471
F0.017271111111111112
sS'src_2'
p2472
F0.018126666666666666
sS'src_3'
p2473
F0.015612222222222222
sS'src_0'
p2474
F0.018620000000000001
sS'src_1'
p2475
F0.016762222222222223
ssS'PER_NODE_CACHE_HIT_RATIO'
p2476
g11
(tRp2477
S'rec_158'
p2478
F0.0035799999999999998
sS'rec_159'
p2479
F0.0035855555555555554
sS'rec_156'
p2480
F0.0045411111111111112
sS'rec_157'
p2481
F0.0049111111111111109
sS'rec_154'
p2482
F0.0038611111111111112
sS'rec_155'
p2483
F0.0035166666666666666
sS'rec_152'
p2484
F0.0039155555555555558
sS'rec_153'
p2485
F0.0034033333333333333
sS'rec_150'
p2486
F0.003308888888888889
sS'rec_151'
p2487
F0.0036900000000000001
sS'rec_129'
p2488
F0.0040155555555555552
sS'rec_128'
p2489
F0.0040855555555555558
sS'rec_123'
p2490
F0.0044322222222222219
sS'rec_122'
p2491
F0.0035244444444444446
sS'rec_121'
p2492
F0.0037399999999999998
sS'rec_120'
p2493
F0.0034077777777777778
sS'rec_127'
p2494
F0.0039355555555555559
sS'rec_126'
p2495
F0.003302222222222222
sS'rec_125'
p2496
F0.0035777777777777778
sS'rec_124'
p2497
F0.0034111111111111113
sS'rec_78'
p2498
F0.0045455555555555553
sS'rec_79'
p2499
F0.004308888888888889
sS'rec_72'
p2500
F0.004487777777777778
sS'rec_73'
p2501
F0.0044777777777777776
sS'rec_70'
p2502
F0.0040866666666666664
sS'rec_71'
p2503
F0.0041533333333333335
sS'rec_76'
p2504
F0.0040688888888888892
sS'rec_77'
p2505
F0.0039566666666666665
sS'rec_74'
p2506
F0.0038577777777777777
sS'rec_75'
p2507
F0.0039322222222222224
sS'rec_87'
p2508
F0.003811111111111111
sS'rec_86'
p2509
F0.003818888888888889
sS'rec_85'
p2510
F0.0035300000000000002
sS'rec_84'
p2511
F0.0036733333333333331
sS'rec_83'
p2512
F0.0034766666666666665
sS'rec_82'
p2513
F0.0038833333333333333
sS'rec_81'
p2514
F0.0041966666666666663
sS'rec_80'
p2515
F0.0037522222222222223
sS'rec_89'
p2516
F0.0037044444444444442
sS'rec_88'
p2517
F0.0034377777777777779
sS'rec_138'
p2518
F0.0036455555555555555
sS'rec_139'
p2519
F0.003637777777777778
sS'rec_99'
p2520
F0.0049166666666666664
sS'rec_130'
p2521
F0.0041877777777777781
sS'rec_131'
p2522
F0.0038944444444444443
sS'rec_132'
p2523
F0.0037322222222222223
sS'rec_133'
p2524
F0.003658888888888889
sS'rec_134'
p2525
F0.0035944444444444444
sS'rec_135'
p2526
F0.0035855555555555554
sS'rec_136'
p2527
F0.0035966666666666668
sS'rec_137'
p2528
F0.0033655555555555557
sS'rec_69'
p2529
F0.0040477777777777777
sS'rec_68'
p2530
F0.0040977777777777774
sS'rec_61'
p2531
F0.0053766666666666667
sS'rec_60'
p2532
F0.005326666666666667
sS'rec_63'
p2533
F0.0051644444444444446
sS'rec_62'
p2534
F0.0045633333333333333
sS'rec_65'
p2535
F0.0044477777777777779
sS'rec_64'
p2536
F0.0042577777777777779
sS'rec_67'
p2537
F0.0041266666666666665
sS'rec_66'
p2538
F0.0041555555555555556
sS'rec_149'
p2539
F0.0035222222222222222
sS'rec_148'
p2540
F0.0041555555555555556
sS'rec_54'
p2541
F0.0051488888888888886
sS'rec_55'
p2542
F0.0043699999999999998
sS'rec_56'
p2543
F0.0049311111111111109
sS'rec_57'
p2544
F0.0048922222222222223
sS'rec_50'
p2545
F0.0044344444444444448
sS'rec_51'
p2546
F0.0047822222222222224
sS'rec_52'
p2547
F0.0046977777777777781
sS'rec_53'
p2548
F0.004136666666666667
sS'rec_58'
p2549
F0.0049088888888888889
sS'rec_59'
p2550
F0.0044644444444444445
sS'rec_43'
p2551
F0.007966666666666667
sS'rec_42'
p2552
F0.006591111111111111
sS'rec_41'
p2553
F0.0069899999999999997
sS'rec_40'
p2554
F0.0057144444444444447
sS'rec_47'
p2555
F0.0055688888888888888
sS'rec_46'
p2556
F0.0046988888888888887
sS'rec_45'
p2557
F0.006127777777777778
sS'rec_44'
p2558
F0.0060600000000000003
sS'rec_49'
p2559
F0.005282222222222222
sS'rec_48'
p2560
F0.0049655555555555555
sS'rec_6'
p2561
F0.0079888888888888891
sS'rec_7'
p2562
F0.0089200000000000008
sS'rec_4'
p2563
F0.0095266666666666659
sS'rec_5'
p2564
F0.0083611111111111108
sS'rec_2'
p2565
F0.010393333333333333
sS'rec_3'
p2566
F0.0074099999999999999
sS'rec_0'
p2567
F0.011142222222222222
sS'rec_1'
p2568
F0.0084444444444444437
sS'rec_8'
p2569
F0.0064222222222222224
sS'rec_9'
p2570
F0.0056499999999999996
sS'rec_105'
p2571
F0.0039555555555555559
sS'rec_104'
p2572
F0.003797777777777778
sS'rec_107'
p2573
F0.0036522222222222221
sS'rec_106'
p2574
F0.0035855555555555554
sS'rec_101'
p2575
F0.0039633333333333335
sS'rec_100'
p2576
F0.0042466666666666668
sS'rec_103'
p2577
F0.0035433333333333332
sS'rec_102'
p2578
F0.0037211111111111112
sS'rec_109'
p2579
F0.0035188888888888887
sS'rec_108'
p2580
F0.0033888888888888888
sS'rec_160'
p2581
F0.0033411111111111111
sS'rec_36'
p2582
F0.0053566666666666667
sS'rec_37'
p2583
F0.004818888888888889
sS'rec_34'
p2584
F0.004284444444444444
sS'rec_35'
p2585
F0.0044666666666666665
sS'rec_32'
p2586
F0.0043455555555555556
sS'rec_33'
p2587
F0.0040322222222222226
sS'rec_30'
p2588
F0.0044900000000000001
sS'rec_31'
p2589
F0.003807777777777778
sS'rec_38'
p2590
F0.0038677777777777777
sS'rec_39'
p2591
F0.0036522222222222221
sS'rec_112'
p2592
F0.0036611111111111111
sS'rec_113'
p2593
F0.0040866666666666664
sS'rec_110'
p2594
F0.0036522222222222221
sS'rec_111'
p2595
F0.0035655555555555558
sS'rec_116'
p2596
F0.0039544444444444445
sS'rec_117'
p2597
F0.0035411111111111112
sS'rec_114'
p2598
F0.0037477777777777778
sS'rec_115'
p2599
F0.0034333333333333334
sS'rec_118'
p2600
F0.0034311111111111109
sS'rec_119'
p2601
F0.0033922222222222223
sS'rec_25'
p2602
F0.0060511111111111113
sS'rec_24'
p2603
F0.0063155555555555552
sS'rec_27'
p2604
F0.0069866666666666671
sS'rec_26'
p2605
F0.0051588888888888891
sS'rec_21'
p2606
F0.0057422222222222223
sS'rec_20'
p2607
F0.0055766666666666664
sS'rec_23'
p2608
F0.0053099999999999996
sS'rec_22'
p2609
F0.005441111111111111
sS'rec_29'
p2610
F0.0046655555555555556
sS'rec_28'
p2611
F0.0046699999999999997
sS'rec_98'
p2612
F0.0050466666666666663
sS'rec_140'
p2613
F0.0034377777777777779
sS'rec_143'
p2614
F0.003968888888888889
sS'rec_142'
p2615
F0.0036233333333333334
sS'rec_145'
p2616
F0.0037688888888888889
sS'rec_144'
p2617
F0.0037177777777777777
sS'rec_147'
p2618
F0.0036788888888888891
sS'rec_146'
p2619
F0.0036688888888888891
sS'rec_90'
p2620
F0.003472222222222222
sS'rec_91'
p2621
F0.0035699999999999998
sS'rec_92'
p2622
F0.0040522222222222218
sS'rec_93'
p2623
F0.0036566666666666666
sS'rec_94'
p2624
F0.003621111111111111
sS'rec_95'
p2625
F0.0034299999999999999
sS'rec_96'
p2626
F0.0040455555555555557
sS'rec_97'
p2627
F0.0038344444444444446
sS'rec_10'
p2628
F0.0068266666666666666
sS'rec_11'
p2629
F0.006127777777777778
sS'rec_12'
p2630
F0.0057111111111111112
sS'rec_13'
p2631
F0.0049366666666666665
sS'rec_14'
p2632
F0.0049522222222222224
sS'rec_15'
p2633
F0.0062133333333333337
sS'rec_16'
p2634
F0.0062222222222222219
sS'rec_17'
p2635
F0.0056833333333333336
sS'rec_18'
p2636
F0.0049922222222222225
sS'rec_19'
p2637
F0.0053533333333333332
sS'rec_141'
p2638
F0.0035388888888888887
ssg2455
F0.73832555555555557
sstp2639
a(g11
(tRp2640
S'workload'
p2641
g11
(tRp2642
S'n_contents'
p2643
I300000
sS'name'
p2644
S'STATIONARY'
p2645
sS'n_warmup'
p2646
I300000
sS'rate'
p2647
F1
sS'n_measured'
p2648
I900000
sS'alpha'
p2649
F1
ssS'cache_policy'
p2650
g11
(tRp2651
g2644
S'LRU'
p2652
ssS'strategy'
p2653
g11
(tRp2654
g2644
S'C_LCF_P2P'
p2655
ssS'content_placement'
p2656
g11
(tRp2657
g2644
S'UNIFORM'
p2658
ssS'cache_placement'
p2659
g11
(tRp2660
S'network_cache'
p2661
F0.20000000000000001
sS'uCache_budget'
p2662
F60000
sg2644
S'UNIFORM_with_uCache'
p2663
sS'nCache_budget'
p2664
F0
ssS'desc'
p2665
S'strategy: C_LCF_P2P, network cache: 0.2'
p2666
sS'topology'
p2667
g11
(tRp2668
g2644
S'ROCKET_FUEL_with_uCache'
p2669
sS'asn'
p2670
I3257
ssg11
(tRp2671
S'LATENCY'
p2672
g11
(tRp2673
S'MEAN'
p2674
F36.824644444444445
ssS'CACHE_HIT_RATIO'
p2675
g11
(tRp2676
S'PER_NODE_SERVER_HIT_RATIO'
p2677
g11
(tRp2678
S'src_13'
p2679
F0.022822222222222223
sS'src_14'
p2680
F0.022078888888888887
sS'src_11'
p2681
F0.021587777777777779
sS'src_15'
p2682
F0.02172
sS'src_10'
p2683
F0.021881111111111112
sS'src_12'
p2684
F0.021705555555555554
sS'src_8'
p2685
F0.022823333333333334
sS'src_9'
p2686
F0.022533333333333332
sS'src_6'
p2687
F0.024204444444444445
sS'src_7'
p2688
F0.023353333333333334
sS'src_4'
p2689
F0.021239999999999998
sS'src_5'
p2690
F0.024087777777777777
sS'src_2'
p2691
F0.024627777777777776
sS'src_3'
p2692
F0.021915555555555556
sS'src_0'
p2693
F0.024708888888888888
sS'src_1'
p2694
F0.023726666666666667
ssS'PER_NODE_CACHE_HIT_RATIO'
p2695
g11
(tRp2696
S'rec_158'
p2697
F0.0030088888888888891
sS'rec_159'
p2698
F0.0027377777777777778
sS'rec_156'
p2699
F0.0036355555555555555
sS'rec_157'
p2700
F0.0041855555555555552
sS'rec_154'
p2701
F0.0030633333333333333
sS'rec_155'
p2702
F0.0027744444444444444
sS'rec_152'
p2703
F0.0031055555555555554
sS'rec_153'
p2704
F0.0027188888888888887
sS'rec_150'
p2705
F0.0027322222222222223
sS'rec_151'
p2706
F0.0029955555555555556
sS'rec_129'
p2707
F0.0034044444444444443
sS'rec_128'
p2708
F0.0034555555555555555
sS'rec_123'
p2709
F0.0037844444444444444
sS'rec_122'
p2710
F0.0028611111111111111
sS'rec_121'
p2711
F0.0028922222222222222
sS'rec_120'
p2712
F0.0028055555555555555
sS'rec_127'
p2713
F0.0031444444444444445
sS'rec_126'
p2714
F0.0027111111111111112
sS'rec_125'
p2715
F0.002812222222222222
sS'rec_124'
p2716
F0.0027544444444444443
sS'rec_78'
p2717
F0.0038966666666666668
sS'rec_79'
p2718
F0.0037055555555555557
sS'rec_72'
p2719
F0.0037122222222222222
sS'rec_73'
p2720
F0.0039044444444444443
sS'rec_70'
p2721
F0.0032699999999999999
sS'rec_71'
p2722
F0.0034477777777777779
sS'rec_76'
p2723
F0.0035000000000000001
sS'rec_77'
p2724
F0.0032688888888888889
sS'rec_74'
p2725
F0.0031522222222222221
sS'rec_75'
p2726
F0.0032566666666666668
sS'rec_87'
p2727
F0.003141111111111111
sS'rec_86'
p2728
F0.0031788888888888891
sS'rec_85'
p2729
F0.0029655555555555555
sS'rec_84'
p2730
F0.003121111111111111
sS'rec_83'
p2731
F0.0030066666666666666
sS'rec_82'
p2732
F0.00329
sS'rec_81'
p2733
F0.0035444444444444442
sS'rec_80'
p2734
F0.0030699999999999998
sS'rec_89'
p2735
F0.0029333333333333334
sS'rec_88'
p2736
F0.0028300000000000001
sS'rec_138'
p2737
F0.0029022222222222223
sS'rec_139'
p2738
F0.00296
sS'rec_140'
p2739
F0.002631111111111111
sS'rec_130'
p2740
F0.0035988888888888889
sS'rec_131'
p2741
F0.0032122222222222222
sS'rec_132'
p2742
F0.0030088888888888891
sS'rec_133'
p2743
F0.002961111111111111
sS'rec_134'
p2744
F0.0030100000000000001
sS'rec_135'
p2745
F0.0029566666666666665
sS'rec_136'
p2746
F0.0028655555555555557
sS'rec_137'
p2747
F0.0026766666666666666
sS'rec_69'
p2748
F0.0035644444444444443
sS'rec_68'
p2749
F0.0035188888888888887
sS'rec_61'
p2750
F0.0048322222222222221
sS'rec_60'
p2751
F0.0047566666666666669
sS'rec_63'
p2752
F0.0044200000000000003
sS'rec_62'
p2753
F0.003942222222222222
sS'rec_65'
p2754
F0.0037455555555555554
sS'rec_64'
p2755
F0.003628888888888889
sS'rec_67'
p2756
F0.0033644444444444446
sS'rec_66'
p2757
F0.0033577777777777777
sS'rec_149'
p2758
F0.0029077777777777778
sS'rec_148'
p2759
F0.0034311111111111109
sS'rec_54'
p2760
F0.0046122222222222224
sS'rec_55'
p2761
F0.0037699999999999999
sS'rec_56'
p2762
F0.0041777777777777777
sS'rec_57'
p2763
F0.0042022222222222226
sS'rec_50'
p2764
F0.0037511111111111113
sS'rec_51'
p2765
F0.0042033333333333332
sS'rec_52'
p2766
F0.0042066666666666667
sS'rec_53'
p2767
F0.0034533333333333334
sS'rec_58'
p2768
F0.004132222222222222
sS'rec_59'
p2769
F0.0037955555555555555
sS'rec_43'
p2770
F0.0074811111111111111
sS'rec_42'
p2771
F0.005951111111111111
sS'rec_41'
p2772
F0.0063966666666666668
sS'rec_40'
p2773
F0.0051244444444444445
sS'rec_47'
p2774
F0.004781111111111111
sS'rec_46'
p2775
F0.0037466666666666668
sS'rec_45'
p2776
F0.0056911111111111112
sS'rec_44'
p2777
F0.0054466666666666665
sS'rec_49'
p2778
F0.0043800000000000002
sS'rec_48'
p2779
F0.0043299999999999996
sS'rec_6'
p2780
F0.0078311111111111116
sS'rec_7'
p2781
F0.0086822222222222214
sS'rec_4'
p2782
F0.0094000000000000004
sS'rec_5'
p2783
F0.0081488888888888895
sS'rec_2'
p2784
F0.010435555555555556
sS'rec_3'
p2785
F0.0070188888888888887
sS'rec_0'
p2786
F0.011424444444444444
sS'rec_1'
p2787
F0.0080522222222222228
sS'rec_8'
p2788
F0.0058422222222222226
sS'rec_9'
p2789
F0.0049855555555555556
sS'rec_105'
p2790
F0.0032088888888888887
sS'rec_104'
p2791
F0.0030944444444444444
sS'rec_107'
p2792
F0.0030644444444444443
sS'rec_106'
p2793
F0.0029111111111111113
sS'rec_101'
p2794
F0.0030833333333333333
sS'rec_100'
p2795
F0.0034488888888888889
sS'rec_103'
p2796
F0.0028733333333333332
sS'rec_102'
p2797
F0.0030799999999999998
sS'rec_109'
p2798
F0.0027733333333333334
sS'rec_108'
p2799
F0.0027566666666666668
sS'rec_160'
p2800
F0.0025511111111111112
sS'rec_36'
p2801
F0.0045544444444444443
sS'rec_37'
p2802
F0.0041466666666666666
sS'rec_34'
p2803
F0.0035155555555555556
sS'rec_35'
p2804
F0.0037788888888888889
sS'rec_32'
p2805
F0.0035955555555555554
sS'rec_33'
p2806
F0.0034766666666666665
sS'rec_30'
p2807
F0.003988888888888889
sS'rec_31'
p2808
F0.0033344444444444446
sS'rec_38'
p2809
F0.003312222222222222
sS'rec_39'
p2810
F0.0029922222222222221
sS'rec_112'
p2811
F0.0032011111111111112
sS'rec_113'
p2812
F0.0033355555555555556
sS'rec_110'
p2813
F0.0029088888888888888
sS'rec_111'
p2814
F0.0028744444444444447
sS'rec_116'
p2815
F0.0030955555555555554
sS'rec_117'
p2816
F0.0028322222222222221
sS'rec_114'
p2817
F0.0029944444444444445
sS'rec_115'
p2818
F0.0026755555555555556
sS'rec_118'
p2819
F0.0028322222222222221
sS'rec_119'
p2820
F0.0025933333333333333
sS'rec_25'
p2821
F0.0054011111111111109
sS'rec_24'
p2822
F0.0057200000000000003
sS'rec_27'
p2823
F0.0063122222222222225
sS'rec_26'
p2824
F0.0045888888888888889
sS'rec_21'
p2825
F0.0050666666666666664
sS'rec_20'
p2826
F0.0050433333333333337
sS'rec_23'
p2827
F0.0045033333333333331
sS'rec_22'
p2828
F0.0049300000000000004
sS'rec_29'
p2829
F0.0038611111111111112
sS'rec_28'
p2830
F0.0039555555555555559
sS'rec_98'
p2831
F0.0045877777777777774
sS'rec_99'
p2832
F0.0041966666666666663
sS'rec_143'
p2833
F0.0032555555555555554
sS'rec_142'
p2834
F0.002988888888888889
sS'rec_145'
p2835
F0.0030077777777777776
sS'rec_144'
p2836
F0.0029166666666666668
sS'rec_147'
p2837
F0.0031633333333333335
sS'rec_146'
p2838
F0.0029488888888888889
sS'rec_90'
p2839
F0.0027166666666666667
sS'rec_91'
p2840
F0.00296
sS'rec_92'
p2841
F0.0033777777777777777
sS'rec_93'
p2842
F0.0030444444444444442
sS'rec_94'
p2843
F0.0029844444444444445
sS'rec_95'
p2844
F0.0028311111111111111
sS'rec_96'
p2845
F0.0032522222222222223
sS'rec_97'
p2846
F0.0031155555555555554
sS'rec_10'
p2847
F0.0062599999999999999
sS'rec_11'
p2848
F0.0055988888888888885
sS'rec_12'
p2849
F0.0050211111111111107
sS'rec_13'
p2850
F0.0041866666666666667
sS'rec_14'
p2851
F0.0043499999999999997
sS'rec_15'
p2852
F0.0057622222222222224
sS'rec_16'
p2853
F0.0055855555555555554
sS'rec_17'
p2854
F0.0052599999999999999
sS'rec_18'
p2855
F0.0044200000000000003
sS'rec_19'
p2856
F0.0046322222222222225
sS'rec_141'
p2857
F0.0028055555555555555
ssg2674
F0.63498333333333334
sstp2858
a(g11
(tRp2859
S'workload'
p2860
g11
(tRp2861
S'n_contents'
p2862
I300000
sS'name'
p2863
S'STATIONARY'
p2864
sS'n_warmup'
p2865
I300000
sS'rate'
p2866
F1
sS'n_measured'
p2867
I900000
sS'alpha'
p2868
F1
ssS'cache_policy'
p2869
g11
(tRp2870
g2863
S'LRU'
p2871
ssS'strategy'
p2872
g11
(tRp2873
g2863
S'C_LFR_P2P'
p2874
ssS'content_placement'
p2875
g11
(tRp2876
g2863
S'UNIFORM'
p2877
ssS'cache_placement'
p2878
g11
(tRp2879
S'network_cache'
p2880
F0.80000000000000004
sS'uCache_budget'
p2881
F240000
sg2863
S'UNIFORM_with_uCache'
p2882
sS'nCache_budget'
p2883
F0
ssS'desc'
p2884
S'strategy: C_LFR_P2P, network cache: 0.8'
p2885
sS'topology'
p2886
g11
(tRp2887
g2863
S'ROCKET_FUEL_with_uCache'
p2888
sS'asn'
p2889
I3257
ssg11
(tRp2890
S'LATENCY'
p2891
g11
(tRp2892
S'MEAN'
p2893
F26.636724444444443
ssS'CACHE_HIT_RATIO'
p2894
g11
(tRp2895
S'PER_NODE_SERVER_HIT_RATIO'
p2896
g11
(tRp2897
S'src_13'
p2898
F0.015575555555555556
sS'src_14'
p2899
F0.014955555555555555
sS'src_11'
p2900
F0.015324444444444444
sS'src_15'
p2901
F0.014682222222222222
sS'src_10'
p2902
F0.014767777777777777
sS'src_12'
p2903
F0.014158888888888889
sS'src_8'
p2904
F0.015614444444444445
sS'src_9'
p2905
F0.015536666666666667
sS'src_6'
p2906
F0.016163333333333332
sS'src_7'
p2907
F0.016661111111111113
sS'src_4'
p2908
F0.013726666666666667
sS'src_5'
p2909
F0.016570000000000001
sS'src_2'
p2910
F0.017892222222222223
sS'src_3'
p2911
F0.014906666666666667
sS'src_0'
p2912
F0.018155555555555557
sS'src_1'
p2913
F0.016038888888888887
ssS'PER_NODE_CACHE_HIT_RATIO'
p2914
g11
(tRp2915
S'rec_158'
p2916
F0.0038300000000000001
sS'rec_159'
p2917
F0.00349
sS'rec_156'
p2918
F0.0046322222222222225
sS'rec_157'
p2919
F0.0050499999999999998
sS'rec_154'
p2920
F0.003933333333333333
sS'rec_155'
p2921
F0.0037233333333333333
sS'rec_152'
p2922
F0.0038177777777777776
sS'rec_153'
p2923
F0.0034199999999999999
sS'rec_150'
p2924
F0.0034822222222222221
sS'rec_151'
p2925
F0.0037033333333333332
sS'rec_129'
p2926
F0.0041511111111111115
sS'rec_128'
p2927
F0.0041911111111111107
sS'rec_123'
p2928
F0.0045855555555555554
sS'rec_122'
p2929
F0.0035599999999999998
sS'rec_121'
p2930
F0.0036266666666666665
sS'rec_120'
p2931
F0.0036055555555555554
sS'rec_127'
p2932
F0.0040355555555555553
sS'rec_126'
p2933
F0.0035244444444444446
sS'rec_125'
p2934
F0.0036822222222222221
sS'rec_124'
p2935
F0.003631111111111111
sS'rec_78'
p2936
F0.0044755555555555555
sS'rec_79'
p2937
F0.0044311111111111114
sS'rec_72'
p2938
F0.00464
sS'rec_73'
p2939
F0.0043444444444444442
sS'rec_70'
p2940
F0.0040433333333333337
sS'rec_71'
p2941
F0.0040877777777777779
sS'rec_76'
p2942
F0.0041522222222222221
sS'rec_77'
p2943
F0.0040133333333333332
sS'rec_74'
p2944
F0.0038877777777777778
sS'rec_75'
p2945
F0.0040211111111111107
sS'rec_87'
p2946
F0.0042311111111111108
sS'rec_86'
p2947
F0.0038611111111111112
sS'rec_85'
p2948
F0.0037000000000000002
sS'rec_84'
p2949
F0.0035366666666666667
sS'rec_83'
p2950
F0.0037011111111111112
sS'rec_82'
p2951
F0.0040177777777777781
sS'rec_81'
p2952
F0.0042333333333333337
sS'rec_80'
p2953
F0.0037633333333333334
sS'rec_89'
p2954
F0.0037522222222222223
sS'rec_88'
p2955
F0.0036266666666666665
sS'rec_138'
p2956
F0.0036433333333333335
sS'rec_139'
p2957
F0.003791111111111111
sS'rec_140'
p2958
F0.0034622222222222224
sS'rec_130'
p2959
F0.0043877777777777778
sS'rec_131'
p2960
F0.0040722222222222219
sS'rec_132'
p2961
F0.0037122222222222222
sS'rec_133'
p2962
F0.0036455555555555555
sS'rec_134'
p2963
F0.0037000000000000002
sS'rec_135'
p2964
F0.0036122222222222224
sS'rec_136'
p2965
F0.0036266666666666665
sS'rec_137'
p2966
F0.0033622222222222222
sS'rec_69'
p2967
F0.0042155555555555557
sS'rec_68'
p2968
F0.0041644444444444446
sS'rec_61'
p2969
F0.0054111111111111113
sS'rec_60'
p2970
F0.0054344444444444449
sS'rec_63'
p2971
F0.0051711111111111107
sS'rec_62'
p2972
F0.0045988888888888885
sS'rec_65'
p2973
F0.0044511111111111114
sS'rec_64'
p2974
F0.0043800000000000002
sS'rec_67'
p2975
F0.0041833333333333332
sS'rec_66'
p2976
F0.0041888888888888887
sS'rec_149'
p2977
F0.0034833333333333335
sS'rec_91'
p2978
F0.0037144444444444443
sS'rec_54'
p2979
F0.0050888888888888893
sS'rec_55'
p2980
F0.0044422222222222224
sS'rec_56'
p2981
F0.0048411111111111111
sS'rec_57'
p2982
F0.0048844444444444447
sS'rec_50'
p2983
F0.0047366666666666668
sS'rec_51'
p2984
F0.0048733333333333337
sS'rec_52'
p2985
F0.0048677777777777782
sS'rec_53'
p2986
F0.0042188888888888892
sS'rec_58'
p2987
F0.0049566666666666665
sS'rec_59'
p2988
F0.0045711111111111109
sS'rec_43'
p2989
F0.0080522222222222228
sS'rec_42'
p2990
F0.0066011111111111114
sS'rec_41'
p2991
F0.0071311111111111115
sS'rec_40'
p2992
F0.0060055555555555556
sS'rec_47'
p2993
F0.0055733333333333329
sS'rec_46'
p2994
F0.0046211111111111114
sS'rec_45'
p2995
F0.0059966666666666666
sS'rec_44'
p2996
F0.006121111111111111
sS'rec_49'
p2997
F0.0052500000000000003
sS'rec_48'
p2998
F0.0050377777777777782
sS'rec_6'
p2999
F0.0079977777777777773
sS'rec_7'
p3000
F0.0088444444444444447
sS'rec_4'
p3001
F0.0091755555555555549
sS'rec_5'
p3002
F0.008546666666666666
sS'rec_2'
p3003
F0.010061111111111111
sS'rec_3'
p3004
F0.0074744444444444441
sS'rec_0'
p3005
F0.011362222222222221
sS'rec_1'
p3006
F0.0084777777777777785
sS'rec_8'
p3007
F0.0064922222222222221
sS'rec_9'
p3008
F0.0057022222222222222
sS'rec_105'
p3009
F0.0040277777777777777
sS'rec_104'
p3010
F0.0037100000000000002
sS'rec_107'
p3011
F0.0039377777777777779
sS'rec_106'
p3012
F0.0036977777777777777
sS'rec_101'
p3013
F0.0039699999999999996
sS'rec_100'
p3014
F0.0042688888888888889
sS'rec_103'
p3015
F0.0037355555555555558
sS'rec_102'
p3016
F0.0038233333333333335
sS'rec_109'
p3017
F0.0035411111111111112
sS'rec_108'
p3018
F0.0035144444444444446
sS'rec_160'
p3019
F0.0034533333333333334
sS'rec_36'
p3020
F0.0052533333333333329
sS'rec_37'
p3021
F0.0050077777777777777
sS'rec_34'
p3022
F0.004284444444444444
sS'rec_35'
p3023
F0.0045966666666666664
sS'rec_32'
p3024
F0.0043722222222222227
sS'rec_33'
p3025
F0.0041977777777777777
sS'rec_30'
p3026
F0.004635555555555556
sS'rec_31'
p3027
F0.0040899999999999999
sS'rec_38'
p3028
F0.0040488888888888892
sS'rec_39'
p3029
F0.0038377777777777776
sS'rec_112'
p3030
F0.0037888888888888889
sS'rec_113'
p3031
F0.0040911111111111113
sS'rec_110'
p3032
F0.003637777777777778
sS'rec_111'
p3033
F0.0037455555555555554
sS'rec_116'
p3034
F0.0039766666666666665
sS'rec_117'
p3035
F0.0035588888888888888
sS'rec_114'
p3036
F0.0037777777777777779
sS'rec_115'
p3037
F0.0036044444444444444
sS'rec_118'
p3038
F0.0035655555555555558
sS'rec_119'
p3039
F0.0033655555555555557
sS'rec_25'
p3040
F0.0063311111111111111
sS'rec_24'
p3041
F0.0061777777777777777
sS'rec_27'
p3042
F0.0067866666666666665
sS'rec_26'
p3043
F0.0051399999999999996
sS'rec_21'
p3044
F0.0056566666666666666
sS'rec_20'
p3045
F0.0056855555555555557
sS'rec_23'
p3046
F0.0053888888888888892
sS'rec_22'
p3047
F0.0056733333333333332
sS'rec_29'
p3048
F0.0045999999999999999
sS'rec_28'
p3049
F0.0049377777777777779
sS'rec_98'
p3050
F0.0054333333333333334
sS'rec_99'
p3051
F0.0050588888888888888
sS'rec_143'
p3052
F0.0041022222222222224
sS'rec_142'
p3053
F0.0037133333333333332
sS'rec_145'
p3054
F0.0038644444444444447
sS'rec_144'
p3055
F0.0037755555555555554
sS'rec_147'
p3056
F0.0039544444444444445
sS'rec_146'
p3057
F0.0037933333333333335
sS'rec_90'
p3058
F0.00349
sS'rec_148'
p3059
F0.0041900000000000001
sS'rec_92'
p3060
F0.0040277777777777777
sS'rec_93'
p3061
F0.003818888888888889
sS'rec_94'
p3062
F0.0037466666666666668
sS'rec_95'
p3063
F0.0034744444444444445
sS'rec_96'
p3064
F0.004103333333333333
sS'rec_97'
p3065
F0.0038300000000000001
sS'rec_10'
p3066
F0.0066744444444444447
sS'rec_11'
p3067
F0.0061799999999999997
sS'rec_12'
p3068
F0.0058188888888888891
sS'rec_13'
p3069
F0.0049766666666666666
sS'rec_14'
p3070
F0.0048500000000000001
sS'rec_15'
p3071
F0.0061755555555555557
sS'rec_16'
p3072
F0.0062188888888888893
sS'rec_17'
p3073
F0.0057299999999999999
sS'rec_18'
p3074
F0.0051599999999999997
sS'rec_19'
p3075
F0.0053833333333333337
sS'rec_141'
p3076
F0.0036177777777777779
ssg2893
F0.74926999999999999
sstp3077
a(g11
(tRp3078
S'workload'
p3079
g11
(tRp3080
S'n_contents'
p3081
I300000
sS'name'
p3082
S'STATIONARY'
p3083
sS'n_warmup'
p3084
I300000
sS'rate'
p3085
F1
sS'n_measured'
p3086
I900000
sS'alpha'
p3087
F1
ssS'cache_policy'
p3088
g11
(tRp3089
g3082
S'LRU'
p3090
ssS'strategy'
p3091
g11
(tRp3092
g3082
S'C_LFR_P2P'
p3093
ssS'content_placement'
p3094
g11
(tRp3095
g3082
S'UNIFORM'
p3096
ssS'cache_placement'
p3097
g11
(tRp3098
S'network_cache'
p3099
F0.90000000000000002
sS'uCache_budget'
p3100
F270000
sg3082
S'UNIFORM_with_uCache'
p3101
sS'nCache_budget'
p3102
F0
ssS'desc'
p3103
S'strategy: C_LFR_P2P, network cache: 0.9'
p3104
sS'topology'
p3105
g11
(tRp3106
g3082
S'ROCKET_FUEL_with_uCache'
p3107
sS'asn'
p3108
I3257
ssg11
(tRp3109
S'LATENCY'
p3110
g11
(tRp3111
S'MEAN'
p3112
F25.933615555555555
ssS'CACHE_HIT_RATIO'
p3113
g11
(tRp3114
S'PER_NODE_SERVER_HIT_RATIO'
p3115
g11
(tRp3116
S'src_13'
p3117
F0.015306666666666666
sS'src_14'
p3118
F0.014983333333333333
sS'src_11'
p3119
F0.014956666666666667
sS'src_15'
p3120
F0.014118888888888889
sS'src_10'
p3121
F0.014611111111111111
sS'src_12'
p3122
F0.013764444444444444
sS'src_8'
p3123
F0.014917777777777778
sS'src_9'
p3124
F0.014885555555555556
sS'src_6'
p3125
F0.015917777777777777
sS'src_7'
p3126
F0.015838888888888888
sS'src_4'
p3127
F0.0132
sS'src_5'
p3128
F0.016528888888888888
sS'src_2'
p3129
F0.016944444444444446
sS'src_3'
p3130
F0.014683333333333333
sS'src_0'
p3131
F0.016776666666666665
sS'src_1'
p3132
F0.015863333333333333
ssS'PER_NODE_CACHE_HIT_RATIO'
p3133
g11
(tRp3134
S'rec_158'
p3135
F0.003791111111111111
sS'rec_159'
p3136
F0.0036788888888888891
sS'rec_156'
p3137
F0.0047033333333333337
sS'rec_157'
p3138
F0.0050977777777777775
sS'rec_154'
p3139
F0.003953333333333333
sS'rec_155'
p3140
F0.0037455555555555554
sS'rec_152'
p3141
F0.0040766666666666668
sS'rec_153'
p3142
F0.0035244444444444446
sS'rec_150'
p3143
F0.0035344444444444447
sS'rec_151'
p3144
F0.0037799999999999999
sS'rec_129'
p3145
F0.0040099999999999997
sS'rec_128'
p3146
F0.0042555555555555558
sS'rec_123'
p3147
F0.004631111111111111
sS'rec_122'
p3148
F0.0036733333333333331
sS'rec_121'
p3149
F0.0037677777777777779
sS'rec_120'
p3150
F0.0037299999999999998
sS'rec_127'
p3151
F0.003997777777777778
sS'rec_126'
p3152
F0.0034844444444444445
sS'rec_125'
p3153
F0.0037466666666666668
sS'rec_124'
p3154
F0.0035911111111111113
sS'rec_78'
p3155
F0.0045488888888888888
sS'rec_79'
p3156
F0.0044844444444444445
sS'rec_72'
p3157
F0.0047055555555555557
sS'rec_73'
p3158
F0.0044388888888888889
sS'rec_70'
p3159
F0.0040622222222222223
sS'rec_71'
p3160
F0.004147777777777778
sS'rec_76'
p3161
F0.0043533333333333332
sS'rec_77'
p3162
F0.0041611111111111111
sS'rec_74'
p3163
F0.0040355555555555553
sS'rec_75'
p3164
F0.0041788888888888891
sS'rec_87'
p3165
F0.0040944444444444448
sS'rec_86'
p3166
F0.0039066666666666668
sS'rec_85'
p3167
F0.0037611111111111109
sS'rec_84'
p3168
F0.0037755555555555554
sS'rec_83'
p3169
F0.0037033333333333332
sS'rec_82'
p3170
F0.0039955555555555551
sS'rec_81'
p3171
F0.0044688888888888886
sS'rec_80'
p3172
F0.0039677777777777775
sS'rec_89'
p3173
F0.0038433333333333332
sS'rec_88'
p3174
F0.003628888888888889
sS'rec_138'
p3175
F0.0038311111111111111
sS'rec_139'
p3176
F0.0040544444444444447
sS'rec_140'
p3177
F0.0034966666666666666
sS'rec_130'
p3178
F0.0043444444444444442
sS'rec_131'
p3179
F0.0041644444444444446
sS'rec_132'
p3180
F0.0037844444444444444
sS'rec_133'
p3181
F0.0037299999999999998
sS'rec_134'
p3182
F0.0038944444444444443
sS'rec_135'
p3183
F0.0037888888888888889
sS'rec_136'
p3184
F0.0036688888888888891
sS'rec_137'
p3185
F0.0035000000000000001
sS'rec_69'
p3186
F0.0042022222222222226
sS'rec_68'
p3187
F0.0042077777777777782
sS'rec_61'
p3188
F0.0054088888888888893
sS'rec_60'
p3189
F0.005617777777777778
sS'rec_63'
p3190
F0.0050377777777777782
sS'rec_62'
p3191
F0.0047177777777777782
sS'rec_65'
p3192
F0.0046344444444444445
sS'rec_64'
p3193
F0.0044822222222222225
sS'rec_67'
p3194
F0.0042255555555555553
sS'rec_66'
p3195
F0.0043533333333333332
sS'rec_149'
p3196
F0.0037011111111111112
sS'rec_91'
p3197
F0.0037777777777777779
sS'rec_54'
p3198
F0.0053011111111111115
sS'rec_55'
p3199
F0.0044666666666666665
sS'rec_56'
p3200
F0.0049922222222222225
sS'rec_57'
p3201
F0.0049411111111111114
sS'rec_50'
p3202
F0.0045433333333333333
sS'rec_51'
p3203
F0.0048533333333333336
sS'rec_52'
p3204
F0.0047822222222222224
sS'rec_53'
p3205
F0.0043355555555555552
sS'rec_58'
p3206
F0.0048922222222222223
sS'rec_59'
p3207
F0.0046344444444444445
sS'rec_43'
p3208
F0.007937777777777778
sS'rec_42'
p3209
F0.0068355555555555557
sS'rec_41'
p3210
F0.0070455555555555558
sS'rec_40'
p3211
F0.0059466666666666669
sS'rec_47'
p3212
F0.0056866666666666663
sS'rec_46'
p3213
F0.0046344444444444445
sS'rec_45'
p3214
F0.0061022222222222224
sS'rec_44'
p3215
F0.0060677777777777778
sS'rec_49'
p3216
F0.005317777777777778
sS'rec_48'
p3217
F0.0051788888888888891
sS'rec_6'
p3218
F0.0081744444444444442
sS'rec_7'
p3219
F0.0089122222222222224
sS'rec_4'
p3220
F0.0091555555555555557
sS'rec_5'
p3221
F0.0082366666666666664
sS'rec_2'
p3222
F0.010191111111111111
sS'rec_3'
p3223
F0.0076233333333333335
sS'rec_0'
p3224
F0.010553333333333333
sS'rec_1'
p3225
F0.0084600000000000005
sS'rec_8'
p3226
F0.0066144444444444445
sS'rec_9'
p3227
F0.005778888888888889
sS'rec_105'
p3228
F0.0041655555555555552
sS'rec_104'
p3229
F0.0039133333333333329
sS'rec_107'
p3230
F0.0039922222222222225
sS'rec_106'
p3231
F0.0037555555555555554
sS'rec_101'
p3232
F0.0040099999999999997
sS'rec_100'
p3233
F0.0044222222222222224
sS'rec_103'
p3234
F0.0037577777777777779
sS'rec_102'
p3235
F0.0039288888888888889
sS'rec_109'
p3236
F0.0035655555555555558
sS'rec_108'
p3237
F0.0035077777777777776
sS'rec_160'
p3238
F0.0034344444444444444
sS'rec_36'
p3239
F0.0053477777777777777
sS'rec_37'
p3240
F0.0048500000000000001
sS'rec_34'
p3241
F0.0043944444444444447
sS'rec_35'
p3242
F0.0046044444444444449
sS'rec_32'
p3243
F0.0045055555555555552
sS'rec_33'
p3244
F0.0043711111111111112
sS'rec_30'
p3245
F0.0046544444444444446
sS'rec_31'
p3246
F0.0042144444444444443
sS'rec_38'
p3247
F0.003975555555555556
sS'rec_39'
p3248
F0.0035911111111111113
sS'rec_112'
p3249
F0.0040655555555555558
sS'rec_113'
p3250
F0.0042555555555555558
sS'rec_110'
p3251
F0.0038255555555555556
sS'rec_111'
p3252
F0.0038800000000000002
sS'rec_116'
p3253
F0.0038177777777777776
sS'rec_117'
p3254
F0.0036611111111111111
sS'rec_114'
p3255
F0.0037833333333333334
sS'rec_115'
p3256
F0.0036455555555555555
sS'rec_118'
p3257
F0.0035088888888888891
sS'rec_119'
p3258
F0.0032922222222222224
sS'rec_25'
p3259
F0.006136666666666667
sS'rec_24'
p3260
F0.0062833333333333335
sS'rec_27'
p3261
F0.0067011111111111108
sS'rec_26'
p3262
F0.0050022222222222221
sS'rec_21'
p3263
F0.0055522222222222223
sS'rec_20'
p3264
F0.0058177777777777776
sS'rec_23'
p3265
F0.0054666666666666665
sS'rec_22'
p3266
F0.0057255555555555558
sS'rec_29'
p3267
F0.0047077777777777777
sS'rec_28'
p3268
F0.0048177777777777776
sS'rec_98'
p3269
F0.0053044444444444441
sS'rec_99'
p3270
F0.0050422222222222222
sS'rec_143'
p3271
F0.0040477777777777777
sS'rec_142'
p3272
F0.0037733333333333334
sS'rec_145'
p3273
F0.0038466666666666666
sS'rec_144'
p3274
F0.0039144444444444444
sS'rec_147'
p3275
F0.0038977777777777778
sS'rec_146'
p3276
F0.0037344444444444443
sS'rec_90'
p3277
F0.0035788888888888888
sS'rec_148'
p3278
F0.0043344444444444446
sS'rec_92'
p3279
F0.0041788888888888891
sS'rec_93'
p3280
F0.0036122222222222224
sS'rec_94'
p3281
F0.0038133333333333335
sS'rec_95'
p3282
F0.0036344444444444445
sS'rec_96'
p3283
F0.0040800000000000003
sS'rec_97'
p3284
F0.0039744444444444445
sS'rec_10'
p3285
F0.006785555555555556
sS'rec_11'
p3286
F0.0060288888888888892
sS'rec_12'
p3287
F0.005608888888888889
sS'rec_13'
p3288
F0.004986666666666667
sS'rec_14'
p3289
F0.0047977777777777775
sS'rec_15'
p3290
F0.0064422222222222224
sS'rec_16'
p3291
F0.0061811111111111112
sS'rec_17'
p3292
F0.0059377777777777779
sS'rec_18'
p3293
F0.0052488888888888889
sS'rec_19'
p3294
F0.0054155555555555554
sS'rec_141'
p3295
F0.0037366666666666668
ssg3112
F0.75670222222222228
sstp3296
a(g11
(tRp3297
S'workload'
p3298
g11
(tRp3299
S'n_contents'
p3300
I300000
sS'name'
p3301
S'STATIONARY'
p3302
sS'n_warmup'
p3303
I300000
sS'rate'
p3304
F1
sS'n_measured'
p3305
I900000
sS'alpha'
p3306
F1
ssS'cache_policy'
p3307
g11
(tRp3308
g3301
S'LRU'
p3309
ssS'strategy'
p3310
g11
(tRp3311
g3301
S'C_LCF_P2P'
p3312
ssS'content_placement'
p3313
g11
(tRp3314
g3301
S'UNIFORM'
p3315
ssS'cache_placement'
p3316
g11
(tRp3317
S'network_cache'
p3318
F0.29999999999999999
sS'uCache_budget'
p3319
F90000
sg3301
S'UNIFORM_with_uCache'
p3320
sS'nCache_budget'
p3321
F0
ssS'desc'
p3322
S'strategy: C_LCF_P2P, network cache: 0.3'
p3323
sS'topology'
p3324
g11
(tRp3325
g3301
S'ROCKET_FUEL_with_uCache'
p3326
sS'asn'
p3327
I3257
ssg11
(tRp3328
S'LATENCY'
p3329
g11
(tRp3330
S'MEAN'
p3331
F33.806004444444447
ssS'CACHE_HIT_RATIO'
p3332
g11
(tRp3333
S'PER_NODE_SERVER_HIT_RATIO'
p3334
g11
(tRp3335
S'src_13'
p3336
F0.020674444444444443
sS'src_14'
p3337
F0.020181111111111111
sS'src_11'
p3338
F0.020502222222222224
sS'src_15'
p3339
F0.019846666666666665
sS'src_10'
p3340
F0.020082222222222224
sS'src_12'
p3341
F0.019141111111111112
sS'src_8'
p3342
F0.020542222222222222
sS'src_9'
p3343
F0.020158888888888889
sS'src_6'
p3344
F0.021632222222222223
sS'src_7'
p3345
F0.022026666666666667
sS'src_4'
p3346
F0.018537777777777778
sS'src_5'
p3347
F0.021951111111111112
sS'src_2'
p3348
F0.022406666666666665
sS'src_3'
p3349
F0.019344444444444445
sS'src_0'
p3350
F0.023185555555555556
sS'src_1'
p3351
F0.021435555555555555
ssS'PER_NODE_CACHE_HIT_RATIO'
p3352
g11
(tRp3353
S'rec_158'
p3354
F0.0030855555555555554
sS'rec_159'
p3355
F0.0030899999999999999
sS'rec_156'
p3356
F0.0040455555555555557
sS'rec_157'
p3357
F0.0041522222222222221
sS'rec_154'
p3358
F0.0033466666666666666
sS'rec_155'
p3359
F0.0029944444444444445
sS'rec_152'
p3360
F0.0033700000000000002
sS'rec_153'
p3361
F0.0029511111111111109
sS'rec_150'
p3362
F0.0027966666666666665
sS'rec_151'
p3363
F0.0032277777777777778
sS'rec_129'
p3364
F0.003451111111111111
sS'rec_128'
p3365
F0.0036033333333333334
sS'rec_123'
p3366
F0.0041055555555555559
sS'rec_122'
p3367
F0.0031088888888888889
sS'rec_121'
p3368
F0.0032299999999999998
sS'rec_120'
p3369
F0.0029622222222222224
sS'rec_127'
p3370
F0.0034366666666666669
sS'rec_126'
p3371
F0.002977777777777778
sS'rec_125'
p3372
F0.0032188888888888888
sS'rec_124'
p3373
F0.0029444444444444444
sS'rec_78'
p3374
F0.003988888888888889
sS'rec_79'
p3375
F0.0039744444444444445
sS'rec_72'
p3376
F0.0041655555555555552
sS'rec_73'
p3377
F0.0039500000000000004
sS'rec_70'
p3378
F0.0035077777777777776
sS'rec_71'
p3379
F0.0035033333333333331
sS'rec_76'
p3380
F0.0037122222222222222
sS'rec_77'
p3381
F0.0035200000000000001
sS'rec_74'
p3382
F0.0033744444444444442
sS'rec_75'
p3383
F0.0033977777777777778
sS'rec_87'
p3384
F0.0034188888888888888
sS'rec_86'
p3385
F0.0033444444444444446
sS'rec_85'
p3386
F0.0030688888888888888
sS'rec_84'
p3387
F0.00329
sS'rec_83'
p3388
F0.0031444444444444445
sS'rec_82'
p3389
F0.0034744444444444445
sS'rec_81'
p3390
F0.0037366666666666668
sS'rec_80'
p3391
F0.0032544444444444444
sS'rec_89'
p3392
F0.003307777777777778
sS'rec_88'
p3393
F0.0030688888888888888
sS'rec_138'
p3394
F0.0030966666666666668
sS'rec_139'
p3395
F0.0033177777777777776
sS'rec_99'
p3396
F0.0044111111111111113
sS'rec_130'
p3397
F0.0037644444444444444
sS'rec_131'
p3398
F0.0034322222222222224
sS'rec_132'
p3399
F0.0033577777777777777
sS'rec_133'
p3400
F0.0031666666666666666
sS'rec_134'
p3401
F0.0032555555555555554
sS'rec_135'
p3402
F0.00314
sS'rec_136'
p3403
F0.0030433333333333332
sS'rec_137'
p3404
F0.0028511111111111111
sS'rec_69'
p3405
F0.0036788888888888891
sS'rec_68'
p3406
F0.0037266666666666668
sS'rec_61'
p3407
F0.004933333333333333
sS'rec_60'
p3408
F0.0050777777777777774
sS'rec_63'
p3409
F0.0046911111111111112
sS'rec_62'
p3410
F0.0040800000000000003
sS'rec_65'
p3411
F0.0041044444444444444
sS'rec_64'
p3412
F0.003818888888888889
sS'rec_67'
p3413
F0.003637777777777778
sS'rec_66'
p3414
F0.0036866666666666667
sS'rec_149'
p3415
F0.0031111111111111109
sS'rec_91'
p3416
F0.0031322222222222224
sS'rec_54'
p3417
F0.0047955555555555555
sS'rec_55'
p3418
F0.0039100000000000003
sS'rec_56'
p3419
F0.0044866666666666666
sS'rec_57'
p3420
F0.0044088888888888893
sS'rec_50'
p3421
F0.0040166666666666666
sS'rec_51'
p3422
F0.0042855555555555555
sS'rec_52'
p3423
F0.0043366666666666666
sS'rec_53'
p3424
F0.0037244444444444443
sS'rec_58'
p3425
F0.004311111111111111
sS'rec_59'
p3426
F0.003966666666666667
sS'rec_43'
p3427
F0.0077000000000000002
sS'rec_42'
p3428
F0.00613
sS'rec_41'
p3429
F0.0067255555555555558
sS'rec_40'
p3430
F0.0054644444444444445
sS'rec_47'
p3431
F0.0050111111111111111
sS'rec_46'
p3432
F0.0040977777777777774
sS'rec_45'
p3433
F0.0056033333333333334
sS'rec_44'
p3434
F0.0058500000000000002
sS'rec_49'
p3435
F0.0048022222222222225
sS'rec_48'
p3436
F0.0044077777777777778
sS'rec_6'
p3437
F0.0078655555555555562
sS'rec_7'
p3438
F0.0086833333333333328
sS'rec_4'
p3439
F0.0099988888888888888
sS'rec_5'
p3440
F0.0083522222222222227
sS'rec_2'
p3441
F0.010838888888888889
sS'rec_3'
p3442
F0.0074777777777777776
sS'rec_0'
p3443
F0.01133
sS'rec_1'
p3444
F0.0083822222222222215
sS'rec_8'
p3445
F0.0059233333333333334
sS'rec_9'
p3446
F0.0051722222222222222
sS'rec_105'
p3447
F0.0033622222222222222
sS'rec_104'
p3448
F0.0031122222222222224
sS'rec_107'
p3449
F0.0032644444444444444
sS'rec_106'
p3450
F0.0032066666666666667
sS'rec_101'
p3451
F0.0032944444444444445
sS'rec_100'
p3452
F0.0036433333333333335
sS'rec_103'
p3453
F0.0030333333333333332
sS'rec_102'
p3454
F0.0032177777777777777
sS'rec_109'
p3455
F0.0030544444444444443
sS'rec_108'
p3456
F0.0029633333333333334
sS'rec_160'
p3457
F0.0028222222222222221
sS'rec_36'
p3458
F0.0048666666666666667
sS'rec_37'
p3459
F0.0042566666666666664
sS'rec_34'
p3460
F0.0037922222222222224
sS'rec_35'
p3461
F0.0040299999999999997
sS'rec_32'
p3462
F0.0037288888888888888
sS'rec_33'
p3463
F0.0035100000000000001
sS'rec_30'
p3464
F0.0040866666666666664
sS'rec_31'
p3465
F0.0034133333333333333
sS'rec_38'
p3466
F0.0035388888888888887
sS'rec_39'
p3467
F0.0031922222222222222
sS'rec_112'
p3468
F0.0033633333333333332
sS'rec_113'
p3469
F0.0037022222222222222
sS'rec_110'
p3470
F0.0031688888888888891
sS'rec_111'
p3471
F0.0031366666666666665
sS'rec_116'
p3472
F0.0033588888888888887
sS'rec_117'
p3473
F0.0030677777777777778
sS'rec_114'
p3474
F0.0031633333333333335
sS'rec_115'
p3475
F0.0028788888888888887
sS'rec_118'
p3476
F0.0030244444444444446
sS'rec_119'
p3477
F0.0027933333333333334
sS'rec_25'
p3478
F0.0054255555555555559
sS'rec_24'
p3479
F0.00594
sS'rec_27'
p3480
F0.0067099999999999998
sS'rec_26'
p3481
F0.0046855555555555557
sS'rec_21'
p3482
F0.0053988888888888888
sS'rec_20'
p3483
F0.0050288888888888892
sS'rec_23'
p3484
F0.0047211111111111108
sS'rec_22'
p3485
F0.0053299999999999997
sS'rec_29'
p3486
F0.0040866666666666664
sS'rec_28'
p3487
F0.0042355555555555558
sS'rec_98'
p3488
F0.0048311111111111115
sS'rec_140'
p3489
F0.0028455555555555556
sS'rec_143'
p3490
F0.0035788888888888888
sS'rec_142'
p3491
F0.0030966666666666668
sS'rec_145'
p3492
F0.0033066666666666665
sS'rec_144'
p3493
F0.0031744444444444446
sS'rec_147'
p3494
F0.0033544444444444446
sS'rec_146'
p3495
F0.0033377777777777776
sS'rec_90'
p3496
F0.0029144444444444443
sS'rec_148'
p3497
F0.0035988888888888889
sS'rec_92'
p3498
F0.0034766666666666665
sS'rec_93'
p3499
F0.0031833333333333332
sS'rec_94'
p3500
F0.0032177777777777777
sS'rec_95'
p3501
F0.00299
sS'rec_96'
p3502
F0.0036066666666666669
sS'rec_97'
p3503
F0.0032166666666666667
sS'rec_10'
p3504
F0.0063688888888888892
sS'rec_11'
p3505
F0.0056844444444444442
sS'rec_12'
p3506
F0.0052100000000000002
sS'rec_13'
p3507
F0.0043833333333333337
sS'rec_14'
p3508
F0.0043377777777777781
sS'rec_15'
p3509
F0.0058366666666666671
sS'rec_16'
p3510
F0.0055744444444444444
sS'rec_17'
p3511
F0.0052655555555555554
sS'rec_18'
p3512
F0.004635555555555556
sS'rec_19'
p3513
F0.0046788888888888887
sS'rec_141'
p3514
F0.003158888888888889
ssg3331
F0.66835111111111112
sstp3515
a(g11
(tRp3516
S'workload'
p3517
g11
(tRp3518
S'n_contents'
p3519
I300000
sS'name'
p3520
S'STATIONARY'
p3521
sS'n_warmup'
p3522
I300000
sS'rate'
p3523
F1
sS'n_measured'
p3524
I900000
sS'alpha'
p3525
F1
ssS'cache_policy'
p3526
g11
(tRp3527
g3520
S'LRU'
p3528
ssS'strategy'
p3529
g11
(tRp3530
g3520
S'C_LFR_P2P'
p3531
ssS'content_placement'
p3532
g11
(tRp3533
g3520
S'UNIFORM'
p3534
ssS'cache_placement'
p3535
g11
(tRp3536
S'network_cache'
p3537
F1
sS'uCache_budget'
p3538
F300000
sg3520
S'UNIFORM_with_uCache'
p3539
sS'nCache_budget'
p3540
F0
ssS'desc'
p3541
S'strategy: C_LFR_P2P, network cache: 1.0'
p3542
sS'topology'
p3543
g11
(tRp3544
g3520
S'ROCKET_FUEL_with_uCache'
p3545
sS'asn'
p3546
I3257
ssg11
(tRp3547
S'LATENCY'
p3548
g11
(tRp3549
S'MEAN'
p3550
F25.208695555555554
ssS'CACHE_HIT_RATIO'
p3551
g11
(tRp3552
S'PER_NODE_SERVER_HIT_RATIO'
p3553
g11
(tRp3554
S'src_13'
p3555
F0.015021111111111112
sS'src_14'
p3556
F0.014755555555555555
sS'src_11'
p3557
F0.014263333333333333
sS'src_15'
p3558
F0.013433333333333334
sS'src_10'
p3559
F0.014028888888888889
sS'src_12'
p3560
F0.013354444444444445
sS'src_8'
p3561
F0.014363333333333334
sS'src_9'
p3562
F0.014394444444444444
sS'src_6'
p3563
F0.015145555555555556
sS'src_7'
p3564
F0.015546666666666667
sS'src_4'
p3565
F0.012670000000000001
sS'src_5'
p3566
F0.016320000000000001
sS'src_2'
p3567
F0.016344444444444446
sS'src_3'
p3568
F0.014087777777777777
sS'src_0'
p3569
F0.016814444444444444
sS'src_1'
p3570
F0.014833333333333334
ssS'PER_NODE_CACHE_HIT_RATIO'
p3571
g11
(tRp3572
S'rec_158'
p3573
F0.003964444444444444
sS'rec_159'
p3574
F0.003631111111111111
sS'rec_156'
p3575
F0.004635555555555556
sS'rec_157'
p3576
F0.0049888888888888891
sS'rec_154'
p3577
F0.0039611111111111114
sS'rec_155'
p3578
F0.0036144444444444444
sS'rec_152'
p3579
F0.0042722222222222224
sS'rec_153'
p3580
F0.0035200000000000001
sS'rec_150'
p3581
F0.0034944444444444446
sS'rec_151'
p3582
F0.0039122222222222223
sS'rec_129'
p3583
F0.0042011111111111112
sS'rec_128'
p3584
F0.0042900000000000004
sS'rec_123'
p3585
F0.0046899999999999997
sS'rec_122'
p3586
F0.0037799999999999999
sS'rec_121'
p3587
F0.0038788888888888888
sS'rec_120'
p3588
F0.0037177777777777777
sS'rec_127'
p3589
F0.004121111111111111
sS'rec_126'
p3590
F0.0037177777777777777
sS'rec_125'
p3591
F0.0038566666666666667
sS'rec_124'
p3592
F0.0035166666666666666
sS'rec_78'
p3593
F0.0045044444444444446
sS'rec_79'
p3594
F0.0045888888888888889
sS'rec_72'
p3595
F0.0046944444444444447
sS'rec_73'
p3596
F0.0046533333333333331
sS'rec_70'
p3597
F0.0040922222222222219
sS'rec_71'
p3598
F0.004138888888888889
sS'rec_76'
p3599
F0.00428
sS'rec_77'
p3600
F0.0043288888888888891
sS'rec_74'
p3601
F0.0040055555555555556
sS'rec_75'
p3602
F0.004138888888888889
sS'rec_87'
p3603
F0.004147777777777778
sS'rec_86'
p3604
F0.0038555555555555556
sS'rec_85'
p3605
F0.003797777777777778
sS'rec_84'
p3606
F0.0039133333333333329
sS'rec_83'
p3607
F0.0037411111111111113
sS'rec_82'
p3608
F0.0039988888888888886
sS'rec_81'
p3609
F0.0043611111111111107
sS'rec_80'
p3610
F0.003798888888888889
sS'rec_89'
p3611
F0.0038633333333333332
sS'rec_88'
p3612
F0.0036655555555555556
sS'rec_138'
p3613
F0.003798888888888889
sS'rec_139'
p3614
F0.0040111111111111111
sS'rec_140'
p3615
F0.00348
sS'rec_130'
p3616
F0.0045644444444444448
sS'rec_131'
p3617
F0.004138888888888889
sS'rec_132'
p3618
F0.0038144444444444445
sS'rec_133'
p3619
F0.0038688888888888887
sS'rec_134'
p3620
F0.0037711111111111109
sS'rec_135'
p3621
F0.0037566666666666668
sS'rec_136'
p3622
F0.0038322222222222221
sS'rec_137'
p3623
F0.0036077777777777779
sS'rec_69'
p3624
F0.0045244444444444447
sS'rec_68'
p3625
F0.0042388888888888893
sS'rec_61'
p3626
F0.0055122222222222222
sS'rec_60'
p3627
F0.0056744444444444446
sS'rec_63'
p3628
F0.0051500000000000001
sS'rec_62'
p3629
F0.0047400000000000003
sS'rec_65'
p3630
F0.004798888888888889
sS'rec_64'
p3631
F0.0044822222222222225
sS'rec_67'
p3632
F0.0045133333333333336
sS'rec_66'
p3633
F0.0043077777777777776
sS'rec_90'
p3634
F0.0037177777777777777
sS'rec_91'
p3635
F0.0039155555555555558
sS'rec_54'
p3636
F0.0053033333333333335
sS'rec_55'
p3637
F0.0045488888888888888
sS'rec_56'
p3638
F0.0050322222222222227
sS'rec_57'
p3639
F0.0050588888888888888
sS'rec_50'
p3640
F0.0047522222222222219
sS'rec_51'
p3641
F0.0050522222222222218
sS'rec_52'
p3642
F0.0048822222222222218
sS'rec_53'
p3643
F0.0043322222222222226
sS'rec_58'
p3644
F0.0050311111111111112
sS'rec_59'
p3645
F0.0045755555555555558
sS'rec_43'
p3646
F0.0079966666666666658
sS'rec_42'
p3647
F0.0067244444444444443
sS'rec_41'
p3648
F0.0072300000000000003
sS'rec_40'
p3649
F0.0059877777777777776
sS'rec_47'
p3650
F0.0057911111111111115
sS'rec_46'
p3651
F0.0049277777777777775
sS'rec_45'
p3652
F0.0061888888888888887
sS'rec_44'
p3653
F0.0062344444444444444
sS'rec_49'
p3654
F0.0053122222222222225
sS'rec_48'
p3655
F0.0049955555555555552
sS'rec_6'
p3656
F0.0079888888888888891
sS'rec_7'
p3657
F0.0088811111111111105
sS'rec_4'
p3658
F0.0092466666666666669
sS'rec_5'
p3659
F0.0082122222222222215
sS'rec_2'
p3660
F0.0098388888888888883
sS'rec_3'
p3661
F0.0076144444444444445
sS'rec_0'
p3662
F0.010705555555555555
sS'rec_1'
p3663
F0.0083844444444444444
sS'rec_8'
p3664
F0.0063911111111111113
sS'rec_9'
p3665
F0.0059177777777777779
sS'rec_105'
p3666
F0.0041933333333333336
sS'rec_104'
p3667
F0.0038311111111111111
sS'rec_107'
p3668
F0.0040966666666666669
sS'rec_106'
p3669
F0.0038355555555555556
sS'rec_101'
p3670
F0.0040722222222222219
sS'rec_100'
p3671
F0.0044266666666666664
sS'rec_103'
p3672
F0.0037599999999999999
sS'rec_102'
p3673
F0.0040433333333333337
sS'rec_109'
p3674
F0.0035811111111111113
sS'rec_108'
p3675
F0.0035522222222222222
sS'rec_160'
p3676
F0.0035188888888888887
sS'rec_36'
p3677
F0.0054099999999999999
sS'rec_37'
p3678
F0.0049266666666666669
sS'rec_34'
p3679
F0.0042622222222222219
sS'rec_35'
p3680
F0.004787777777777778
sS'rec_32'
p3681
F0.0044666666666666665
sS'rec_33'
p3682
F0.0044133333333333333
sS'rec_30'
p3683
F0.0046544444444444446
sS'rec_31'
p3684
F0.0041622222222222225
sS'rec_38'
p3685
F0.0041166666666666669
sS'rec_39'
p3686
F0.0037133333333333332
sS'rec_112'
p3687
F0.0040677777777777778
sS'rec_113'
p3688
F0.0042199999999999998
sS'rec_110'
p3689
F0.0037399999999999998
sS'rec_111'
p3690
F0.0037744444444444444
sS'rec_116'
p3691
F0.0040466666666666663
sS'rec_117'
p3692
F0.0037055555555555557
sS'rec_114'
p3693
F0.0039455555555555554
sS'rec_115'
p3694
F0.0037299999999999998
sS'rec_118'
p3695
F0.0037011111111111112
sS'rec_119'
p3696
F0.0033477777777777776
sS'rec_25'
p3697
F0.0062244444444444448
sS'rec_24'
p3698
F0.0062255555555555554
sS'rec_27'
p3699
F0.0067666666666666665
sS'rec_26'
p3700
F0.0051933333333333337
sS'rec_21'
p3701
F0.0056566666666666666
sS'rec_20'
p3702
F0.0059055555555555554
sS'rec_23'
p3703
F0.0055466666666666668
sS'rec_22'
p3704
F0.0058966666666666664
sS'rec_29'
p3705
F0.004637777777777778
sS'rec_28'
p3706
F0.0049433333333333334
sS'rec_98'
p3707
F0.0053144444444444446
sS'rec_99'
p3708
F0.0052322222222222223
sS'rec_143'
p3709
F0.0040244444444444442
sS'rec_142'
p3710
F0.0039144444444444444
sS'rec_145'
p3711
F0.0040322222222222226
sS'rec_144'
p3712
F0.0038844444444444443
sS'rec_147'
p3713
F0.0039944444444444446
sS'rec_146'
p3714
F0.0037588888888888889
sS'rec_149'
p3715
F0.0037733333333333334
sS'rec_148'
p3716
F0.0042599999999999999
sS'rec_92'
p3717
F0.0041433333333333331
sS'rec_93'
p3718
F0.0037655555555555554
sS'rec_94'
p3719
F0.003964444444444444
sS'rec_95'
p3720
F0.0035744444444444443
sS'rec_96'
p3721
F0.0041933333333333336
sS'rec_97'
p3722
F0.0040188888888888887
sS'rec_10'
p3723
F0.0068122222222222221
sS'rec_11'
p3724
F0.0063933333333333333
sS'rec_12'
p3725
F0.0056677777777777777
sS'rec_13'
p3726
F0.0050533333333333333
sS'rec_14'
p3727
F0.0049788888888888886
sS'rec_15'
p3728
F0.0061999999999999998
sS'rec_16'
p3729
F0.0061655555555555552
sS'rec_17'
p3730
F0.0059255555555555554
sS'rec_18'
p3731
F0.0053633333333333337
sS'rec_19'
p3732
F0.0055277777777777782
sS'rec_141'
p3733
F0.0038944444444444443
ssg3550
F0.76462333333333332
sstp3734
a(g11
(tRp3735
S'workload'
p3736
g11
(tRp3737
S'n_contents'
p3738
I300000
sS'name'
p3739
S'STATIONARY'
p3740
sS'n_warmup'
p3741
I300000
sS'rate'
p3742
F1
sS'n_measured'
p3743
I900000
sS'alpha'
p3744
F1
ssS'cache_policy'
p3745
g11
(tRp3746
g3739
S'LRU'
p3747
ssS'strategy'
p3748
g11
(tRp3749
g3739
S'C_LCF_P2P'
p3750
ssS'content_placement'
p3751
g11
(tRp3752
g3739
S'UNIFORM'
p3753
ssS'cache_placement'
p3754
g11
(tRp3755
S'network_cache'
p3756
F0.40000000000000002
sS'uCache_budget'
p3757
F120000
sg3739
S'UNIFORM_with_uCache'
p3758
sS'nCache_budget'
p3759
F0
ssS'desc'
p3760
S'strategy: C_LCF_P2P, network cache: 0.4'
p3761
sS'topology'
p3762
g11
(tRp3763
g3739
S'ROCKET_FUEL_with_uCache'
p3764
sS'asn'
p3765
I3257
ssg11
(tRp3766
S'LATENCY'
p3767
g11
(tRp3768
S'MEAN'
p3769
F31.704415555555556
ssS'CACHE_HIT_RATIO'
p3770
g11
(tRp3771
S'PER_NODE_SERVER_HIT_RATIO'
p3772
g11
(tRp3773
S'src_13'
p3774
F0.019836666666666666
sS'src_14'
p3775
F0.019008888888888888
sS'src_11'
p3776
F0.018759999999999999
sS'src_15'
p3777
F0.018434444444444444
sS'src_10'
p3778
F0.018811111111111112
sS'src_12'
p3779
F0.017423333333333332
sS'src_8'
p3780
F0.018976666666666666
sS'src_9'
p3781
F0.018886666666666666
sS'src_6'
p3782
F0.019957777777777779
sS'src_7'
p3783
F0.019970000000000002
sS'src_4'
p3784
F0.017222222222222222
sS'src_5'
p3785
F0.020386666666666668
sS'src_2'
p3786
F0.020709999999999999
sS'src_3'
p3787
F0.018214444444444443
sS'src_0'
p3788
F0.021532222222222223
sS'src_1'
p3789
F0.01963888888888889
ssS'PER_NODE_CACHE_HIT_RATIO'
p3790
g11
(tRp3791
S'rec_158'
p3792
F0.0033600000000000001
sS'rec_159'
p3793
F0.0032355555555555558
sS'rec_156'
p3794
F0.004112222222222222
sS'rec_157'
p3795
F0.0044422222222222224
sS'rec_154'
p3796
F0.0035122222222222221
sS'rec_155'
p3797
F0.0031177777777777779
sS'rec_152'
p3798
F0.0036700000000000001
sS'rec_153'
p3799
F0.0030066666666666666
sS'rec_150'
p3800
F0.0030811111111111113
sS'rec_151'
p3801
F0.003328888888888889
sS'rec_129'
p3802
F0.0036233333333333334
sS'rec_128'
p3803
F0.0038888888888888888
sS'rec_123'
p3804
F0.0040177777777777781
sS'rec_122'
p3805
F0.0031566666666666666
sS'rec_121'
p3806
F0.00331
sS'rec_120'
p3807
F0.0031555555555555555
sS'rec_127'
p3808
F0.0033922222222222223
sS'rec_126'
p3809
F0.0032622222222222223
sS'rec_125'
p3810
F0.0033488888888888891
sS'rec_124'
p3811
F0.0032455555555555553
sS'rec_78'
p3812
F0.0042488888888888889
sS'rec_79'
p3813
F0.0040077777777777776
sS'rec_72'
p3814
F0.0041244444444444445
sS'rec_73'
p3815
F0.0041633333333333331
sS'rec_70'
p3816
F0.0036555555555555556
sS'rec_71'
p3817
F0.0035288888888888887
sS'rec_76'
p3818
F0.0038255555555555556
sS'rec_77'
p3819
F0.0036977777777777777
sS'rec_74'
p3820
F0.0035866666666666668
sS'rec_75'
p3821
F0.0035799999999999998
sS'rec_87'
p3822
F0.0034299999999999999
sS'rec_86'
p3823
F0.0035033333333333331
sS'rec_85'
p3824
F0.0032966666666666665
sS'rec_84'
p3825
F0.0032344444444444443
sS'rec_83'
p3826
F0.0033755555555555557
sS'rec_82'
p3827
F0.0036722222222222221
sS'rec_81'
p3828
F0.0039399999999999999
sS'rec_80'
p3829
F0.0034566666666666665
sS'rec_89'
p3830
F0.0034144444444444443
sS'rec_88'
p3831
F0.0030888888888888888
sS'rec_138'
p3832
F0.0033600000000000001
sS'rec_139'
p3833
F0.00347
sS'rec_140'
p3834
F0.002971111111111111
sS'rec_130'
p3835
F0.0038444444444444446
sS'rec_131'
p3836
F0.0036711111111111111
sS'rec_132'
p3837
F0.0033233333333333335
sS'rec_133'
p3838
F0.0033033333333333335
sS'rec_134'
p3839
F0.0034533333333333334
sS'rec_135'
p3840
F0.0033166666666666665
sS'rec_136'
p3841
F0.0034122222222222223
sS'rec_137'
p3842
F0.0030699999999999998
sS'rec_69'
p3843
F0.0039044444444444443
sS'rec_68'
p3844
F0.0038433333333333332
sS'rec_61'
p3845
F0.0051055555555555559
sS'rec_60'
p3846
F0.005136666666666667
sS'rec_63'
p3847
F0.0046755555555555552
sS'rec_62'
p3848
F0.0043422222222222221
sS'rec_65'
p3849
F0.0041222222222222224
sS'rec_64'
p3850
F0.0040155555555555552
sS'rec_67'
p3851
F0.00382
sS'rec_66'
p3852
F0.0038277777777777776
sS'rec_90'
p3853
F0.0030966666666666668
sS'rec_148'
p3854
F0.0037277777777777778
sS'rec_54'
p3855
F0.0046911111111111112
sS'rec_55'
p3856
F0.0040866666666666664
sS'rec_56'
p3857
F0.004487777777777778
sS'rec_57'
p3858
F0.004628888888888889
sS'rec_50'
p3859
F0.0042077777777777782
sS'rec_51'
p3860
F0.0046322222222222225
sS'rec_52'
p3861
F0.0044722222222222221
sS'rec_53'
p3862
F0.0038422222222222221
sS'rec_58'
p3863
F0.0045633333333333333
sS'rec_59'
p3864
F0.0041444444444444445
sS'rec_43'
p3865
F0.0078322222222222231
sS'rec_42'
p3866
F0.0062755555555555559
sS'rec_41'
p3867
F0.0068333333333333336
sS'rec_40'
p3868
F0.0054711111111111115
sS'rec_47'
p3869
F0.0053833333333333337
sS'rec_46'
p3870
F0.004454444444444444
sS'rec_45'
p3871
F0.0059822222222222221
sS'rec_44'
p3872
F0.0059633333333333335
sS'rec_49'
p3873
F0.0049955555555555552
sS'rec_48'
p3874
F0.0047466666666666664
sS'rec_6'
p3875
F0.0079111111111111118
sS'rec_7'
p3876
F0.0087477777777777779
sS'rec_4'
p3877
F0.0099055555555555563
sS'rec_5'
p3878
F0.0082233333333333325
sS'rec_2'
p3879
F0.010303333333333333
sS'rec_3'
p3880
F0.007458888888888889
sS'rec_0'
p3881
F0.011432222222222222
sS'rec_1'
p3882
F0.0082511111111111118
sS'rec_8'
p3883
F0.0061288888888888886
sS'rec_9'
p3884
F0.0053699999999999998
sS'rec_105'
p3885
F0.00364
sS'rec_104'
p3886
F0.0034933333333333335
sS'rec_107'
p3887
F0.0035733333333333333
sS'rec_106'
p3888
F0.0033466666666666666
sS'rec_101'
p3889
F0.0035733333333333333
sS'rec_100'
p3890
F0.0038855555555555557
sS'rec_103'
p3891
F0.0032244444444444443
sS'rec_102'
p3892
F0.0034022222222222223
sS'rec_109'
p3893
F0.0031166666666666665
sS'rec_108'
p3894
F0.0031900000000000001
sS'rec_160'
p3895
F0.0030233333333333332
sS'rec_36'
p3896
F0.0049300000000000004
sS'rec_37'
p3897
F0.0044166666666666668
sS'rec_34'
p3898
F0.0039366666666666664
sS'rec_35'
p3899
F0.0041766666666666671
sS'rec_32'
p3900
F0.0040022222222222221
sS'rec_33'
p3901
F0.0037188888888888888
sS'rec_30'
p3902
F0.0042177777777777778
sS'rec_31'
p3903
F0.0036333333333333335
sS'rec_38'
p3904
F0.0036733333333333331
sS'rec_39'
p3905
F0.0033444444444444446
sS'rec_112'
p3906
F0.0034766666666666665
sS'rec_113'
p3907
F0.0037699999999999999
sS'rec_110'
p3908
F0.0032811111111111109
sS'rec_111'
p3909
F0.0034099999999999998
sS'rec_116'
p3910
F0.0036122222222222224
sS'rec_117'
p3911
F0.0032711111111111109
sS'rec_114'
p3912
F0.0033433333333333331
sS'rec_115'
p3913
F0.0032111111111111112
sS'rec_118'
p3914
F0.0031977777777777777
sS'rec_119'
p3915
F0.0028666666666666667
sS'rec_25'
p3916
F0.0058888888888888888
sS'rec_24'
p3917
F0.0060622222222222223
sS'rec_27'
p3918
F0.0067144444444444448
sS'rec_26'
p3919
F0.0048111111111111115
sS'rec_21'
p3920
F0.0053699999999999998
sS'rec_20'
p3921
F0.0052688888888888889
sS'rec_23'
p3922
F0.0048477777777777781
sS'rec_22'
p3923
F0.0053288888888888891
sS'rec_29'
p3924
F0.0042222222222222218
sS'rec_28'
p3925
F0.0043522222222222226
sS'rec_98'
p3926
F0.0049066666666666668
sS'rec_99'
p3927
F0.0045488888888888888
sS'rec_143'
p3928
F0.0037366666666666668
sS'rec_142'
p3929
F0.0034111111111111113
sS'rec_145'
p3930
F0.0033800000000000002
sS'rec_144'
p3931
F0.0032200000000000002
sS'rec_147'
p3932
F0.0034111111111111113
sS'rec_146'
p3933
F0.0033844444444444443
sS'rec_149'
p3934
F0.0031355555555555555
sS'rec_91'
p3935
F0.003311111111111111
sS'rec_92'
p3936
F0.0037311111111111113
sS'rec_93'
p3937
F0.0032644444444444444
sS'rec_94'
p3938
F0.0033811111111111112
sS'rec_95'
p3939
F0.0032233333333333333
sS'rec_96'
p3940
F0.0035899999999999999
sS'rec_97'
p3941
F0.0033966666666666668
sS'rec_10'
p3942
F0.0063933333333333333
sS'rec_11'
p3943
F0.0059433333333333335
sS'rec_12'
p3944
F0.0055144444444444442
sS'rec_13'
p3945
F0.0045533333333333337
sS'rec_14'
p3946
F0.0045544444444444443
sS'rec_15'
p3947
F0.0059955555555555552
sS'rec_16'
p3948
F0.0057544444444444448
sS'rec_17'
p3949
F0.0053988888888888888
sS'rec_18'
p3950
F0.0046566666666666666
sS'rec_19'
p3951
F0.004951111111111111
sS'rec_141'
p3952
F0.0033177777777777776
ssg3769
F0.69223000000000001
sstp3953
a(g11
(tRp3954
S'workload'
p3955
g11
(tRp3956
S'n_contents'
p3957
I300000
sS'name'
p3958
S'STATIONARY'
p3959
sS'n_warmup'
p3960
I300000
sS'rate'
p3961
F1
sS'n_measured'
p3962
I900000
sS'alpha'
p3963
F1
ssS'cache_policy'
p3964
g11
(tRp3965
g3958
S'LRU'
p3966
ssS'strategy'
p3967
g11
(tRp3968
g3958
S'C_LCF_P2P'
p3969
ssS'content_placement'
p3970
g11
(tRp3971
g3958
S'UNIFORM'
p3972
ssS'cache_placement'
p3973
g11
(tRp3974
S'network_cache'
p3975
F0.5
sS'uCache_budget'
p3976
F150000
sg3958
S'UNIFORM_with_uCache'
p3977
sS'nCache_budget'
p3978
F0
ssS'desc'
p3979
S'strategy: C_LCF_P2P, network cache: 0.5'
p3980
sS'topology'
p3981
g11
(tRp3982
g3958
S'ROCKET_FUEL_with_uCache'
p3983
sS'asn'
p3984
I3257
ssg11
(tRp3985
S'LATENCY'
p3986
g11
(tRp3987
S'MEAN'
p3988
F30.10444
ssS'CACHE_HIT_RATIO'
p3989
g11
(tRp3990
S'PER_NODE_SERVER_HIT_RATIO'
p3991
g11
(tRp3992
S'src_13'
p3993
F0.018296666666666666
sS'src_14'
p3994
F0.018077777777777779
sS'src_11'
p3995
F0.01767888888888889
sS'src_15'
p3996
F0.017112222222222223
sS'src_10'
p3997
F0.017337777777777778
sS'src_12'
p3998
F0.016506666666666666
sS'src_8'
p3999
F0.017664444444444444
sS'src_9'
p4000
F0.017923333333333333
sS'src_6'
p4001
F0.01844111111111111
sS'src_7'
p4002
F0.018676666666666668
sS'src_4'
p4003
F0.016027777777777776
sS'src_5'
p4004
F0.018883333333333332
sS'src_2'
p4005
F0.020192222222222223
sS'src_3'
p4006
F0.017654444444444445
sS'src_0'
p4007
F0.020715555555555556
sS'src_1'
p4008
F0.018957777777777778
ssS'PER_NODE_CACHE_HIT_RATIO'
p4009
g11
(tRp4010
S'rec_158'
p4011
F0.0033644444444444446
sS'rec_159'
p4012
F0.0033577777777777777
sS'rec_156'
p4013
F0.0044000000000000003
sS'rec_157'
p4014
F0.004467777777777778
sS'rec_154'
p4015
F0.0036077777777777779
sS'rec_155'
p4016
F0.0033033333333333335
sS'rec_152'
p4017
F0.0037200000000000002
sS'rec_153'
p4018
F0.0032233333333333333
sS'rec_150'
p4019
F0.0030833333333333333
sS'rec_151'
p4020
F0.0034144444444444443
sS'rec_129'
p4021
F0.0038144444444444445
sS'rec_128'
p4022
F0.0037833333333333334
sS'rec_123'
p4023
F0.0043877777777777778
sS'rec_122'
p4024
F0.003291111111111111
sS'rec_121'
p4025
F0.0034233333333333333
sS'rec_120'
p4026
F0.0031988888888888887
sS'rec_127'
p4027
F0.0036900000000000001
sS'rec_126'
p4028
F0.0032355555555555558
sS'rec_125'
p4029
F0.0034577777777777779
sS'rec_124'
p4030
F0.0031266666666666665
sS'rec_78'
p4031
F0.0041833333333333332
sS'rec_79'
p4032
F0.0043311111111111111
sS'rec_72'
p4033
F0.0041811111111111111
sS'rec_73'
p4034
F0.0041200000000000004
sS'rec_70'
p4035
F0.0037244444444444443
sS'rec_71'
p4036
F0.0038911111111111112
sS'rec_76'
p4037
F0.0040099999999999997
sS'rec_77'
p4038
F0.0037788888888888889
sS'rec_74'
p4039
F0.0036744444444444446
sS'rec_75'
p4040
F0.0038122222222222221
sS'rec_87'
p4041
F0.0036933333333333332
sS'rec_86'
p4042
F0.0035411111111111112
sS'rec_85'
p4043
F0.0034744444444444445
sS'rec_84'
p4044
F0.0034333333333333334
sS'rec_83'
p4045
F0.0034555555555555555
sS'rec_82'
p4046
F0.0036433333333333335
sS'rec_81'
p4047
F0.0041433333333333331
sS'rec_80'
p4048
F0.0035822222222222223
sS'rec_89'
p4049
F0.0033533333333333332
sS'rec_88'
p4050
F0.0033
sS'rec_138'
p4051
F0.0033400000000000001
sS'rec_139'
p4052
F0.003467777777777778
sS'rec_99'
p4053
F0.0047411111111111109
sS'rec_130'
p4054
F0.0040311111111111112
sS'rec_131'
p4055
F0.0037222222222222223
sS'rec_132'
p4056
F0.0036066666666666669
sS'rec_133'
p4057
F0.0034333333333333334
sS'rec_134'
p4058
F0.0033555555555555556
sS'rec_135'
p4059
F0.0032244444444444443
sS'rec_136'
p4060
F0.0034133333333333333
sS'rec_137'
p4061
F0.0031800000000000001
sS'rec_69'
p4062
F0.0039177777777777778
sS'rec_68'
p4063
F0.0039077777777777774
sS'rec_61'
p4064
F0.0052833333333333335
sS'rec_60'
p4065
F0.0052644444444444449
sS'rec_63'
p4066
F0.004792222222222222
sS'rec_62'
p4067
F0.0045244444444444447
sS'rec_65'
p4068
F0.0041944444444444442
sS'rec_64'
p4069
F0.0041522222222222221
sS'rec_67'
p4070
F0.0038911111111111112
sS'rec_66'
p4071
F0.0039655555555555555
sS'rec_149'
p4072
F0.0032822222222222224
sS'rec_148'
p4073
F0.0039699999999999996
sS'rec_54'
p4074
F0.0050933333333333334
sS'rec_55'
p4075
F0.0042177777777777778
sS'rec_56'
p4076
F0.0048933333333333337
sS'rec_57'
p4077
F0.0047422222222222223
sS'rec_50'
p4078
F0.0043355555555555552
sS'rec_51'
p4079
F0.0046622222222222221
sS'rec_52'
p4080
F0.0045511111111111108
sS'rec_53'
p4081
F0.004127777777777778
sS'rec_58'
p4082
F0.0046722222222222226
sS'rec_59'
p4083
F0.0042988888888888886
sS'rec_43'
p4084
F0.0079100000000000004
sS'rec_42'
p4085
F0.0063588888888888888
sS'rec_41'
p4086
F0.0070577777777777774
sS'rec_40'
p4087
F0.0056944444444444447
sS'rec_47'
p4088
F0.0052544444444444444
sS'rec_46'
p4089
F0.0044655555555555559
sS'rec_45'
p4090
F0.0060144444444444447
sS'rec_44'
p4091
F0.0059077777777777774
sS'rec_49'
p4092
F0.0050222222222222222
sS'rec_48'
p4093
F0.0048622222222222226
sS'rec_6'
p4094
F0.0080155555555555553
sS'rec_7'
p4095
F0.0086644444444444451
sS'rec_4'
p4096
F0.0097111111111111113
sS'rec_5'
p4097
F0.0083388888888888887
sS'rec_2'
p4098
F0.010507777777777777
sS'rec_3'
p4099
F0.0074022222222222224
sS'rec_0'
p4100
F0.011422222222222222
sS'rec_1'
p4101
F0.0083533333333333341
sS'rec_8'
p4102
F0.0062311111111111109
sS'rec_9'
p4103
F0.0054488888888888885
sS'rec_105'
p4104
F0.0037622222222222224
sS'rec_104'
p4105
F0.0035333333333333332
sS'rec_107'
p4106
F0.0037077777777777777
sS'rec_106'
p4107
F0.0034233333333333333
sS'rec_101'
p4108
F0.0036688888888888891
sS'rec_100'
p4109
F0.0040633333333333337
sS'rec_103'
p4110
F0.0033833333333333332
sS'rec_102'
p4111
F0.0035933333333333334
sS'rec_109'
p4112
F0.003298888888888889
sS'rec_108'
p4113
F0.0032755555555555554
sS'rec_160'
p4114
F0.0030855555555555554
sS'rec_36'
p4115
F0.0050533333333333333
sS'rec_37'
p4116
F0.0045255555555555552
sS'rec_34'
p4117
F0.0041444444444444445
sS'rec_35'
p4118
F0.0042777777777777779
sS'rec_32'
p4119
F0.0040600000000000002
sS'rec_33'
p4120
F0.0039455555555555554
sS'rec_30'
p4121
F0.0042444444444444448
sS'rec_31'
p4122
F0.0037688888888888889
sS'rec_38'
p4123
F0.0036788888888888891
sS'rec_39'
p4124
F0.0034366666666666669
sS'rec_112'
p4125
F0.0035811111111111113
sS'rec_113'
p4126
F0.0038855555555555557
sS'rec_110'
p4127
F0.0035055555555555556
sS'rec_111'
p4128
F0.0034533333333333334
sS'rec_116'
p4129
F0.0035911111111111113
sS'rec_117'
p4130
F0.003318888888888889
sS'rec_114'
p4131
F0.0034155555555555554
sS'rec_115'
p4132
F0.0033433333333333331
sS'rec_118'
p4133
F0.0031700000000000001
sS'rec_119'
p4134
F0.0029288888888888889
sS'rec_25'
p4135
F0.0059344444444444444
sS'rec_24'
p4136
F0.0061744444444444442
sS'rec_27'
p4137
F0.006772222222222222
sS'rec_26'
p4138
F0.0052388888888888893
sS'rec_21'
p4139
F0.0055211111111111112
sS'rec_20'
p4140
F0.0055399999999999998
sS'rec_23'
p4141
F0.0048566666666666663
sS'rec_22'
p4142
F0.0053011111111111115
sS'rec_29'
p4143
F0.0042655555555555554
sS'rec_28'
p4144
F0.004657777777777778
sS'rec_98'
p4145
F0.0050933333333333334
sS'rec_140'
p4146
F0.003137777777777778
sS'rec_143'
p4147
F0.0038488888888888887
sS'rec_142'
p4148
F0.0033133333333333335
sS'rec_145'
p4149
F0.0035044444444444446
sS'rec_144'
p4150
F0.0033766666666666667
sS'rec_147'
p4151
F0.0035722222222222223
sS'rec_146'
p4152
F0.0034244444444444444
sS'rec_90'
p4153
F0.0032055555555555557
sS'rec_91'
p4154
F0.0035300000000000002
sS'rec_92'
p4155
F0.0038344444444444446
sS'rec_93'
p4156
F0.0034477777777777779
sS'rec_94'
p4157
F0.0035933333333333334
sS'rec_95'
p4158
F0.0031722222222222221
sS'rec_96'
p4159
F0.003797777777777778
sS'rec_97'
p4160
F0.0035444444444444442
sS'rec_10'
p4161
F0.0065500000000000003
sS'rec_11'
p4162
F0.0058988888888888893
sS'rec_12'
p4163
F0.0056155555555555559
sS'rec_13'
p4164
F0.0047244444444444443
sS'rec_14'
p4165
F0.0046433333333333335
sS'rec_15'
p4166
F0.0062022222222222218
sS'rec_16'
p4167
F0.0059988888888888887
sS'rec_17'
p4168
F0.0054866666666666666
sS'rec_18'
p4169
F0.0049199999999999999
sS'rec_19'
p4170
F0.0051088888888888885
sS'rec_141'
p4171
F0.0033444444444444446
ssg3988
F0.70985333333333334
sstp4172
a(g11
(tRp4173
S'workload'
p4174
g11
(tRp4175
S'n_contents'
p4176
I300000
sS'name'
p4177
S'STATIONARY'
p4178
sS'n_warmup'
p4179
I300000
sS'rate'
p4180
F1
sS'n_measured'
p4181
I900000
sS'alpha'
p4182
F1
ssS'cache_policy'
p4183
g11
(tRp4184
g4177
S'LRU'
p4185
ssS'strategy'
p4186
g11
(tRp4187
g4177
S'C_LCF_P2P'
p4188
ssS'content_placement'
p4189
g11
(tRp4190
g4177
S'UNIFORM'
p4191
ssS'cache_placement'
p4192
g11
(tRp4193
S'network_cache'
p4194
F0.59999999999999998
sS'uCache_budget'
p4195
F180000
sg4177
S'UNIFORM_with_uCache'
p4196
sS'nCache_budget'
p4197
F0
ssS'desc'
p4198
S'strategy: C_LCF_P2P, network cache: 0.6'
p4199
sS'topology'
p4200
g11
(tRp4201
g4177
S'ROCKET_FUEL_with_uCache'
p4202
sS'asn'
p4203
I3257
ssg11
(tRp4204
S'LATENCY'
p4205
g11
(tRp4206
S'MEAN'
p4207
F28.719333333333335
ssS'CACHE_HIT_RATIO'
p4208
g11
(tRp4209
S'PER_NODE_SERVER_HIT_RATIO'
p4210
g11
(tRp4211
S'src_13'
p4212
F0.017307777777777776
sS'src_14'
p4213
F0.016846666666666666
sS'src_11'
p4214
F0.016847777777777777
sS'src_15'
p4215
F0.016321111111111113
sS'src_10'
p4216
F0.016284444444444445
sS'src_12'
p4217
F0.015665555555555554
sS'src_8'
p4218
F0.016698888888888888
sS'src_9'
p4219
F0.016842222222222224
sS'src_6'
p4220
F0.017718888888888888
sS'src_7'
p4221
F0.017927777777777779
sS'src_4'
p4222
F0.015502222222222223
sS'src_5'
p4223
F0.018022222222222221
sS'src_2'
p4224
F0.018921111111111111
sS'src_3'
p4225
F0.016331111111111112
sS'src_0'
p4226
F0.019154444444444446
sS'src_1'
p4227
F0.017862222222222224
ssS'PER_NODE_CACHE_HIT_RATIO'
p4228
g11
(tRp4229
S'rec_158'
p4230
F0.0035177777777777777
sS'rec_159'
p4231
F0.0034655555555555555
sS'rec_156'
p4232
F0.0044299999999999999
sS'rec_157'
p4233
F0.004624444444444444
sS'rec_154'
p4234
F0.0036633333333333335
sS'rec_155'
p4235
F0.0034199999999999999
sS'rec_152'
p4236
F0.0038800000000000002
sS'rec_153'
p4237
F0.0033133333333333335
sS'rec_150'
p4238
F0.0032688888888888889
sS'rec_151'
p4239
F0.0035833333333333333
sS'rec_129'
p4240
F0.0038033333333333335
sS'rec_128'
p4241
F0.0041555555555555556
sS'rec_123'
p4242
F0.0043755555555555553
sS'rec_122'
p4243
F0.0035266666666666667
sS'rec_121'
p4244
F0.0035244444444444446
sS'rec_120'
p4245
F0.0034322222222222224
sS'rec_127'
p4246
F0.003801111111111111
sS'rec_126'
p4247
F0.0034877777777777776
sS'rec_125'
p4248
F0.0035211111111111111
sS'rec_124'
p4249
F0.0033266666666666666
sS'rec_78'
p4250
F0.0043511111111111112
sS'rec_79'
p4251
F0.0042011111111111112
sS'rec_72'
p4252
F0.0044344444444444448
sS'rec_73'
p4253
F0.0043633333333333336
sS'rec_70'
p4254
F0.0038677777777777777
sS'rec_71'
p4255
F0.0040011111111111115
sS'rec_76'
p4256
F0.0040788888888888888
sS'rec_77'
p4257
F0.0039355555555555559
sS'rec_74'
p4258
F0.0036533333333333335
sS'rec_75'
p4259
F0.0037922222222222224
sS'rec_87'
p4260
F0.0037677777777777779
sS'rec_86'
p4261
F0.0037277777777777778
sS'rec_85'
p4262
F0.0033677777777777777
sS'rec_84'
p4263
F0.003648888888888889
sS'rec_83'
p4264
F0.0035188888888888887
sS'rec_82'
p4265
F0.0038855555555555557
sS'rec_81'
p4266
F0.0042766666666666665
sS'rec_80'
p4267
F0.0036055555555555554
sS'rec_89'
p4268
F0.0036977777777777777
sS'rec_88'
p4269
F0.0035011111111111111
sS'rec_138'
p4270
F0.0035100000000000001
sS'rec_139'
p4271
F0.00365
sS'rec_99'
p4272
F0.0047755555555555555
sS'rec_130'
p4273
F0.0040788888888888888
sS'rec_131'
p4274
F0.0038244444444444445
sS'rec_132'
p4275
F0.0037044444444444442
sS'rec_133'
p4276
F0.0034744444444444445
sS'rec_134'
p4277
F0.0035755555555555553
sS'rec_135'
p4278
F0.0035522222222222222
sS'rec_136'
p4279
F0.0035100000000000001
sS'rec_137'
p4280
F0.0033944444444444443
sS'rec_69'
p4281
F0.0041000000000000003
sS'rec_68'
p4282
F0.0039811111111111115
sS'rec_61'
p4283
F0.0054299999999999999
sS'rec_60'
p4284
F0.0051988888888888892
sS'rec_63'
p4285
F0.0047444444444444444
sS'rec_62'
p4286
F0.0045233333333333332
sS'rec_65'
p4287
F0.0043555555555555552
sS'rec_64'
p4288
F0.0042677777777777775
sS'rec_67'
p4289
F0.0041011111111111109
sS'rec_66'
p4290
F0.0041533333333333335
sS'rec_90'
p4291
F0.0035044444444444446
sS'rec_148'
p4292
F0.0039633333333333335
sS'rec_54'
p4293
F0.0050733333333333333
sS'rec_55'
p4294
F0.0042377777777777778
sS'rec_56'
p4295
F0.004977777777777778
sS'rec_57'
p4296
F0.0048544444444444442
sS'rec_50'
p4297
F0.0043499999999999997
sS'rec_51'
p4298
F0.0046277777777777775
sS'rec_52'
p4299
F0.0047555555555555554
sS'rec_53'
p4300
F0.0040411111111111108
sS'rec_58'
p4301
F0.0047622222222222224
sS'rec_59'
p4302
F0.0043733333333333332
sS'rec_43'
p4303
F0.0079588888888888886
sS'rec_42'
p4304
F0.0066233333333333335
sS'rec_41'
p4305
F0.0070433333333333337
sS'rec_40'
p4306
F0.0056499999999999996
sS'rec_47'
p4307
F0.005602222222222222
sS'rec_46'
p4308
F0.0046066666666666669
sS'rec_45'
p4309
F0.0060055555555555556
sS'rec_44'
p4310
F0.0059766666666666666
sS'rec_49'
p4311
F0.0051522222222222221
sS'rec_48'
p4312
F0.0048877777777777773
sS'rec_6'
p4313
F0.0080844444444444444
sS'rec_7'
p4314
F0.0088577777777777769
sS'rec_4'
p4315
F0.0096266666666666671
sS'rec_5'
p4316
F0.0085066666666666658
sS'rec_2'
p4317
F0.010405555555555555
sS'rec_3'
p4318
F0.0074099999999999999
sS'rec_0'
p4319
F0.011115555555555556
sS'rec_1'
p4320
F0.0082111111111111117
sS'rec_8'
p4321
F0.006465555555555556
sS'rec_9'
p4322
F0.0057777777777777775
sS'rec_105'
p4323
F0.0037511111111111113
sS'rec_104'
p4324
F0.0037699999999999999
sS'rec_107'
p4325
F0.003471111111111111
sS'rec_106'
p4326
F0.0034988888888888891
sS'rec_101'
p4327
F0.0037477777777777778
sS'rec_100'
p4328
F0.0040522222222222218
sS'rec_103'
p4329
F0.0035255555555555556
sS'rec_102'
p4330
F0.0036222222222222224
sS'rec_109'
p4331
F0.0033411111111111111
sS'rec_108'
p4332
F0.0034133333333333333
sS'rec_160'
p4333
F0.003137777777777778
sS'rec_36'
p4334
F0.0051855555555555552
sS'rec_37'
p4335
F0.0046144444444444445
sS'rec_34'
p4336
F0.0040377777777777782
sS'rec_35'
p4337
F0.0044144444444444448
sS'rec_32'
p4338
F0.0043233333333333335
sS'rec_33'
p4339
F0.0040699999999999998
sS'rec_30'
p4340
F0.0044466666666666665
sS'rec_31'
p4341
F0.0038122222222222221
sS'rec_38'
p4342
F0.0037777777777777779
sS'rec_39'
p4343
F0.0034299999999999999
sS'rec_112'
p4344
F0.0037033333333333332
sS'rec_113'
p4345
F0.0038244444444444445
sS'rec_110'
p4346
F0.0034922222222222221
sS'rec_111'
p4347
F0.0035477777777777777
sS'rec_116'
p4348
F0.0037655555555555554
sS'rec_117'
p4349
F0.003461111111111111
sS'rec_114'
p4350
F0.0035833333333333333
sS'rec_115'
p4351
F0.0033455555555555556
sS'rec_118'
p4352
F0.0033688888888888887
sS'rec_119'
p4353
F0.0032266666666666667
sS'rec_25'
p4354
F0.0059977777777777781
sS'rec_24'
p4355
F0.0060644444444444444
sS'rec_27'
p4356
F0.006781111111111111
sS'rec_26'
p4357
F0.0049133333333333329
sS'rec_21'
p4358
F0.0056055555555555555
sS'rec_20'
p4359
F0.0056333333333333331
sS'rec_23'
p4360
F0.0050000000000000001
sS'rec_22'
p4361
F0.0054744444444444441
sS'rec_29'
p4362
F0.0045633333333333333
sS'rec_28'
p4363
F0.0045477777777777782
sS'rec_98'
p4364
F0.0051588888888888891
sS'rec_140'
p4365
F0.0031711111111111111
sS'rec_143'
p4366
F0.0040266666666666662
sS'rec_142'
p4367
F0.0036277777777777779
sS'rec_145'
p4368
F0.0037155555555555557
sS'rec_144'
p4369
F0.0036277777777777779
sS'rec_147'
p4370
F0.003642222222222222
sS'rec_146'
p4371
F0.0034866666666666666
sS'rec_149'
p4372
F0.0033611111111111112
sS'rec_91'
p4373
F0.0036344444444444445
sS'rec_92'
p4374
F0.0039766666666666665
sS'rec_93'
p4375
F0.0035733333333333333
sS'rec_94'
p4376
F0.0036511111111111111
sS'rec_95'
p4377
F0.0032922222222222224
sS'rec_96'
p4378
F0.0039855555555555556
sS'rec_97'
p4379
F0.0036622222222222221
sS'rec_10'
p4380
F0.006604444444444444
sS'rec_11'
p4381
F0.0061022222222222224
sS'rec_12'
p4382
F0.005626666666666667
sS'rec_13'
p4383
F0.0047133333333333333
sS'rec_14'
p4384
F0.0048744444444444443
sS'rec_15'
p4385
F0.0062577777777777779
sS'rec_16'
p4386
F0.0062044444444444447
sS'rec_17'
p4387
F0.0056533333333333331
sS'rec_18'
p4388
F0.0050977777777777775
sS'rec_19'
p4389
F0.0050411111111111108
sS'rec_141'
p4390
F0.0034411111111111109
ssg4207
F0.72574555555555553
sstp4391
a(g11
(tRp4392
S'workload'
p4393
g11
(tRp4394
S'n_contents'
p4395
I300000
sS'name'
p4396
S'STATIONARY'
p4397
sS'n_warmup'
p4398
I300000
sS'rate'
p4399
F1
sS'n_measured'
p4400
I900000
sS'alpha'
p4401
F1
ssS'cache_policy'
p4402
g11
(tRp4403
g4396
S'LRU'
p4404
ssS'strategy'
p4405
g11
(tRp4406
g4396
S'C_LCF_P2P'
p4407
ssS'content_placement'
p4408
g11
(tRp4409
g4396
S'UNIFORM'
p4410
ssS'cache_placement'
p4411
g11
(tRp4412
S'network_cache'
p4413
F0.69999999999999996
sS'uCache_budget'
p4414
F210000
sg4396
S'UNIFORM_with_uCache'
p4415
sS'nCache_budget'
p4416
F0
ssS'desc'
p4417
S'strategy: C_LCF_P2P, network cache: 0.7'
p4418
sS'topology'
p4419
g11
(tRp4420
g4396
S'ROCKET_FUEL_with_uCache'
p4421
sS'asn'
p4422
I3257
ssg11
(tRp4423
S'LATENCY'
p4424
g11
(tRp4425
S'MEAN'
p4426
F27.564411111111109
ssS'CACHE_HIT_RATIO'
p4427
g11
(tRp4428
S'PER_NODE_SERVER_HIT_RATIO'
p4429
g11
(tRp4430
S'src_13'
p4431
F0.016694444444444446
sS'src_14'
p4432
F0.015715555555555556
sS'src_11'
p4433
F0.016289999999999999
sS'src_15'
p4434
F0.015131111111111111
sS'src_10'
p4435
F0.015827777777777777
sS'src_12'
p4436
F0.014641111111111112
sS'src_8'
p4437
F0.01596888888888889
sS'src_9'
p4438
F0.016081111111111112
sS'src_6'
p4439
F0.016719999999999999
sS'src_7'
p4440
F0.016953333333333334
sS'src_4'
p4441
F0.014513333333333333
sS'src_5'
p4442
F0.017962222222222223
sS'src_2'
p4443
F0.018291111111111112
sS'src_3'
p4444
F0.015555555555555555
sS'src_0'
p4445
F0.01851888888888889
sS'src_1'
p4446
F0.016823333333333333
ssS'PER_NODE_CACHE_HIT_RATIO'
p4447
g11
(tRp4448
S'rec_158'
p4449
F0.0035644444444444443
sS'rec_159'
p4450
F0.0036099999999999999
sS'rec_156'
p4451
F0.0044155555555555554
sS'rec_157'
p4452
F0.0049199999999999999
sS'rec_154'
p4453
F0.0037377777777777778
sS'rec_155'
p4454
F0.0034622222222222224
sS'rec_152'
p4455
F0.0039211111111111113
sS'rec_153'
p4456
F0.0034444444444444444
sS'rec_150'
p4457
F0.0033477777777777776
sS'rec_151'
p4458
F0.0035255555555555556
sS'rec_129'
p4459
F0.0040188888888888887
sS'rec_128'
p4460
F0.0041066666666666665
sS'rec_123'
p4461
F0.0042244444444444447
sS'rec_122'
p4462
F0.0035966666666666668
sS'rec_121'
p4463
F0.0035999999999999999
sS'rec_120'
p4464
F0.0035466666666666667
sS'rec_127'
p4465
F0.0039122222222222223
sS'rec_126'
p4466
F0.0033688888888888887
sS'rec_125'
p4467
F0.0035188888888888887
sS'rec_124'
p4468
F0.0034377777777777779
sS'rec_78'
p4469
F0.0044455555555555559
sS'rec_79'
p4470
F0.0043400000000000001
sS'rec_72'
p4471
F0.0045188888888888891
sS'rec_73'
p4472
F0.0043044444444444441
sS'rec_70'
p4473
F0.0040044444444444442
sS'rec_71'
p4474
F0.0040311111111111112
sS'rec_76'
p4475
F0.0040644444444444443
sS'rec_77'
p4476
F0.003971111111111111
sS'rec_74'
p4477
F0.00379
sS'rec_75'
p4478
F0.0039266666666666668
sS'rec_87'
p4479
F0.003801111111111111
sS'rec_86'
p4480
F0.0036644444444444446
sS'rec_85'
p4481
F0.003471111111111111
sS'rec_84'
p4482
F0.0037788888888888889
sS'rec_83'
p4483
F0.003642222222222222
sS'rec_82'
p4484
F0.0038555555555555556
sS'rec_81'
p4485
F0.0041833333333333332
sS'rec_80'
p4486
F0.0038711111111111112
sS'rec_89'
p4487
F0.003781111111111111
sS'rec_88'
p4488
F0.0034822222222222221
sS'rec_138'
p4489
F0.0035311111111111112
sS'rec_139'
p4490
F0.0036644444444444446
sS'rec_99'
p4491
F0.0048233333333333331
sS'rec_130'
p4492
F0.0042388888888888893
sS'rec_131'
p4493
F0.0038977777777777778
sS'rec_132'
p4494
F0.0037011111111111112
sS'rec_133'
p4495
F0.0037299999999999998
sS'rec_134'
p4496
F0.0036888888888888887
sS'rec_135'
p4497
F0.0036122222222222224
sS'rec_136'
p4498
F0.0035355555555555557
sS'rec_137'
p4499
F0.0034211111111111113
sS'rec_69'
p4500
F0.0041133333333333334
sS'rec_68'
p4501
F0.0042166666666666663
sS'rec_61'
p4502
F0.0054988888888888891
sS'rec_60'
p4503
F0.005452222222222222
sS'rec_63'
p4504
F0.0051133333333333334
sS'rec_62'
p4505
F0.0045411111111111112
sS'rec_65'
p4506
F0.0044488888888888885
sS'rec_64'
p4507
F0.0044244444444444444
sS'rec_67'
p4508
F0.0039911111111111111
sS'rec_66'
p4509
F0.0043688888888888892
sS'rec_90'
p4510
F0.0035477777777777777
sS'rec_91'
p4511
F0.0036844444444444446
sS'rec_54'
p4512
F0.0051411111111111111
sS'rec_55'
p4513
F0.0044299999999999999
sS'rec_56'
p4514
F0.0049144444444444444
sS'rec_57'
p4515
F0.0047344444444444448
sS'rec_50'
p4516
F0.0046177777777777779
sS'rec_51'
p4517
F0.00481
sS'rec_52'
p4518
F0.0046855555555555557
sS'rec_53'
p4519
F0.0041944444444444442
sS'rec_58'
p4520
F0.0049500000000000004
sS'rec_59'
p4521
F0.0044466666666666665
sS'rec_43'
p4522
F0.0079955555555555561
sS'rec_42'
p4523
F0.0065022222222222226
sS'rec_41'
p4524
F0.0071533333333333336
sS'rec_40'
p4525
F0.0058322222222222221
sS'rec_47'
p4526
F0.0055544444444444443
sS'rec_46'
p4527
F0.0046100000000000004
sS'rec_45'
p4528
F0.0060188888888888887
sS'rec_44'
p4529
F0.0060266666666666663
sS'rec_49'
p4530
F0.0051455555555555551
sS'rec_48'
p4531
F0.0048366666666666671
sS'rec_6'
p4532
F0.0079844444444444451
sS'rec_7'
p4533
F0.0089866666666666671
sS'rec_4'
p4534
F0.0094233333333333339
sS'rec_5'
p4535
F0.0084977777777777777
sS'rec_2'
p4536
F0.010267777777777778
sS'rec_3'
p4537
F0.0073788888888888888
sS'rec_0'
p4538
F0.011193333333333333
sS'rec_1'
p4539
F0.0085188888888888883
sS'rec_8'
p4540
F0.0063655555555555557
sS'rec_9'
p4541
F0.0056944444444444447
sS'rec_105'
p4542
F0.0038911111111111112
sS'rec_104'
p4543
F0.0037255555555555557
sS'rec_107'
p4544
F0.0038244444444444445
sS'rec_106'
p4545
F0.0036688888888888891
sS'rec_101'
p4546
F0.0038422222222222221
sS'rec_100'
p4547
F0.0042544444444444444
sS'rec_103'
p4548
F0.0035222222222222222
sS'rec_102'
p4549
F0.0037388888888888888
sS'rec_109'
p4550
F0.00347
sS'rec_108'
p4551
F0.003468888888888889
sS'rec_160'
p4552
F0.0033544444444444446
sS'rec_36'
p4553
F0.0052199999999999998
sS'rec_37'
p4554
F0.0047166666666666668
sS'rec_34'
p4555
F0.0042766666666666665
sS'rec_35'
p4556
F0.0045377777777777777
sS'rec_32'
p4557
F0.0042166666666666663
sS'rec_33'
p4558
F0.0040944444444444448
sS'rec_30'
p4559
F0.0045888888888888889
sS'rec_31'
p4560
F0.0041688888888888886
sS'rec_38'
p4561
F0.0039244444444444448
sS'rec_39'
p4562
F0.0036700000000000001
sS'rec_112'
p4563
F0.0038888888888888888
sS'rec_113'
p4564
F0.003986666666666667
sS'rec_110'
p4565
F0.0037744444444444444
sS'rec_111'
p4566
F0.0036077777777777779
sS'rec_116'
p4567
F0.0038411111111111111
sS'rec_117'
p4568
F0.0034755555555555555
sS'rec_114'
p4569
F0.0035266666666666667
sS'rec_115'
p4570
F0.0035344444444444447
sS'rec_118'
p4571
F0.0035011111111111111
sS'rec_119'
p4572
F0.003137777777777778
sS'rec_25'
p4573
F0.006136666666666667
sS'rec_24'
p4574
F0.0061966666666666663
sS'rec_27'
p4575
F0.0068222222222222226
sS'rec_26'
p4576
F0.0052644444444444449
sS'rec_21'
p4577
F0.0055611111111111113
sS'rec_20'
p4578
F0.0058188888888888891
sS'rec_23'
p4579
F0.0051666666666666666
sS'rec_22'
p4580
F0.0056600000000000001
sS'rec_29'
p4581
F0.0044377777777777775
sS'rec_28'
p4582
F0.00481
sS'rec_98'
p4583
F0.0052755555555555559
sS'rec_140'
p4584
F0.0033177777777777776
sS'rec_143'
p4585
F0.0040588888888888888
sS'rec_142'
p4586
F0.003631111111111111
sS'rec_145'
p4587
F0.0036822222222222221
sS'rec_144'
p4588
F0.0037477777777777778
sS'rec_147'
p4589
F0.0038211111111111111
sS'rec_146'
p4590
F0.0036577777777777776
sS'rec_149'
p4591
F0.0035033333333333331
sS'rec_148'
p4592
F0.0041644444444444446
sS'rec_92'
p4593
F0.0039955555555555551
sS'rec_93'
p4594
F0.0035722222222222223
sS'rec_94'
p4595
F0.0036600000000000001
sS'rec_95'
p4596
F0.0033755555555555557
sS'rec_96'
p4597
F0.0040255555555555557
sS'rec_97'
p4598
F0.0037466666666666668
sS'rec_10'
p4599
F0.0068911111111111109
sS'rec_11'
p4600
F0.0060811111111111109
sS'rec_12'
p4601
F0.0055399999999999998
sS'rec_13'
p4602
F0.0049877777777777776
sS'rec_14'
p4603
F0.0048177777777777776
sS'rec_15'
p4604
F0.0063588888888888888
sS'rec_16'
p4605
F0.006125555555555556
sS'rec_17'
p4606
F0.0057011111111111108
sS'rec_18'
p4607
F0.0050222222222222222
sS'rec_19'
p4608
F0.0053299999999999997
sS'rec_141'
p4609
F0.0035322222222222222
ssg4426
F0.73831222222222226
sstp4610
a(g11
(tRp4611
S'workload'
p4612
g11
(tRp4613
S'n_contents'
p4614
I300000
sS'name'
p4615
S'STATIONARY'
p4616
sS'n_warmup'
p4617
I300000
sS'rate'
p4618
F1
sS'n_measured'
p4619
I900000
sS'alpha'
p4620
F1
ssS'cache_policy'
p4621
g11
(tRp4622
g4615
S'LRU'
p4623
ssS'strategy'
p4624
g11
(tRp4625
g4615
S'C_LCF_P2P'
p4626
ssS'content_placement'
p4627
g11
(tRp4628
g4615
S'UNIFORM'
p4629
ssS'cache_placement'
p4630
g11
(tRp4631
S'network_cache'
p4632
F0.80000000000000004
sS'uCache_budget'
p4633
F240000
sg4615
S'UNIFORM_with_uCache'
p4634
sS'nCache_budget'
p4635
F0
ssS'desc'
p4636
S'strategy: C_LCF_P2P, network cache: 0.8'
p4637
sS'topology'
p4638
g11
(tRp4639
g4615
S'ROCKET_FUEL_with_uCache'
p4640
sS'asn'
p4641
I3257
ssg11
(tRp4642
S'LATENCY'
p4643
g11
(tRp4644
S'MEAN'
p4645
F26.689775555555556
ssS'CACHE_HIT_RATIO'
p4646
g11
(tRp4647
S'PER_NODE_SERVER_HIT_RATIO'
p4648
g11
(tRp4649
S'src_13'
p4650
F0.016001111111111112
sS'src_14'
p4651
F0.015673333333333334
sS'src_11'
p4652
F0.015175555555555555
sS'src_15'
p4653
F0.014737777777777778
sS'src_10'
p4654
F0.014733333333333333
sS'src_12'
p4655
F0.014281111111111111
sS'src_8'
p4656
F0.015494444444444444
sS'src_9'
p4657
F0.015548888888888888
sS'src_6'
p4658
F0.01639111111111111
sS'src_7'
p4659
F0.016564444444444444
sS'src_4'
p4660
F0.013966666666666667
sS'src_5'
p4661
F0.016928888888888889
sS'src_2'
p4662
F0.017116666666666665
sS'src_3'
p4663
F0.014840000000000001
sS'src_0'
p4664
F0.01791888888888889
sS'src_1'
p4665
F0.016372222222222222
ssS'PER_NODE_CACHE_HIT_RATIO'
p4666
g11
(tRp4667
S'rec_158'
p4668
F0.0036944444444444446
sS'rec_159'
p4669
F0.0035833333333333333
sS'rec_156'
p4670
F0.0044244444444444444
sS'rec_157'
p4671
F0.0050166666666666667
sS'rec_154'
p4672
F0.0039188888888888893
sS'rec_155'
p4673
F0.003628888888888889
sS'rec_152'
p4674
F0.0038566666666666667
sS'rec_153'
p4675
F0.0034011111111111113
sS'rec_150'
p4676
F0.0034311111111111109
sS'rec_151'
p4677
F0.0037522222222222223
sS'rec_129'
p4678
F0.0039399999999999999
sS'rec_128'
p4679
F0.0040833333333333329
sS'rec_123'
p4680
F0.0045611111111111113
sS'rec_122'
p4681
F0.0035855555555555554
sS'rec_121'
p4682
F0.0037322222222222223
sS'rec_120'
p4683
F0.0035744444444444443
sS'rec_127'
p4684
F0.0039455555555555554
sS'rec_126'
p4685
F0.0035266666666666667
sS'rec_125'
p4686
F0.0036511111111111111
sS'rec_124'
p4687
F0.0034288888888888889
sS'rec_78'
p4688
F0.0045777777777777778
sS'rec_79'
p4689
F0.0045166666666666671
sS'rec_72'
p4690
F0.00464
sS'rec_73'
p4691
F0.0044977777777777776
sS'rec_70'
p4692
F0.0040388888888888887
sS'rec_71'
p4693
F0.0040422222222222222
sS'rec_76'
p4694
F0.0041444444444444445
sS'rec_77'
p4695
F0.004123333333333333
sS'rec_74'
p4696
F0.0038488888888888887
sS'rec_75'
p4697
F0.003988888888888889
sS'rec_87'
p4698
F0.0039233333333333334
sS'rec_86'
p4699
F0.0038300000000000001
sS'rec_85'
p4700
F0.0035644444444444443
sS'rec_84'
p4701
F0.0037122222222222222
sS'rec_83'
p4702
F0.0037733333333333334
sS'rec_82'
p4703
F0.0039655555555555555
sS'rec_81'
p4704
F0.0043311111111111111
sS'rec_80'
p4705
F0.0037399999999999998
sS'rec_89'
p4706
F0.0037966666666666665
sS'rec_88'
p4707
F0.0036977777777777777
sS'rec_138'
p4708
F0.0037000000000000002
sS'rec_139'
p4709
F0.0038677777777777777
sS'rec_99'
p4710
F0.0048633333333333332
sS'rec_130'
p4711
F0.0043166666666666666
sS'rec_131'
p4712
F0.0041311111111111114
sS'rec_132'
p4713
F0.0037000000000000002
sS'rec_133'
p4714
F0.0038500000000000001
sS'rec_134'
p4715
F0.0037522222222222223
sS'rec_135'
p4716
F0.0036077777777777779
sS'rec_136'
p4717
F0.0037377777777777778
sS'rec_137'
p4718
F0.0033266666666666666
sS'rec_69'
p4719
F0.0041988888888888892
sS'rec_68'
p4720
F0.0042077777777777782
sS'rec_61'
p4721
F0.005441111111111111
sS'rec_60'
p4722
F0.0055466666666666668
sS'rec_63'
p4723
F0.005123333333333333
sS'rec_62'
p4724
F0.0047377777777777774
sS'rec_65'
p4725
F0.0045700000000000003
sS'rec_64'
p4726
F0.0045111111111111107
sS'rec_67'
p4727
F0.0042711111111111109
sS'rec_66'
p4728
F0.0042655555555555554
sS'rec_90'
p4729
F0.0035211111111111111
sS'rec_148'
p4730
F0.0041666666666666666
sS'rec_54'
p4731
F0.0051644444444444446
sS'rec_55'
p4732
F0.0044566666666666669
sS'rec_56'
p4733
F0.0050233333333333336
sS'rec_57'
p4734
F0.0049833333333333335
sS'rec_50'
p4735
F0.004602222222222222
sS'rec_51'
p4736
F0.0049833333333333335
sS'rec_52'
p4737
F0.0048500000000000001
sS'rec_53'
p4738
F0.0041866666666666667
sS'rec_58'
p4739
F0.0048355555555555556
sS'rec_59'
p4740
F0.0045488888888888888
sS'rec_43'
p4741
F0.0081588888888888891
sS'rec_42'
p4742
F0.0066855555555555557
sS'rec_41'
p4743
F0.0071444444444444446
sS'rec_40'
p4744
F0.0058344444444444442
sS'rec_47'
p4745
F0.0055622222222222219
sS'rec_46'
p4746
F0.0046699999999999997
sS'rec_45'
p4747
F0.0062466666666666669
sS'rec_44'
p4748
F0.0061733333333333336
sS'rec_49'
p4749
F0.0053033333333333335
sS'rec_48'
p4750
F0.0049377777777777779
sS'rec_6'
p4751
F0.0079522222222222216
sS'rec_7'
p4752
F0.0087866666666666666
sS'rec_4'
p4753
F0.009105555555555556
sS'rec_5'
p4754
F0.0085477777777777774
sS'rec_2'
p4755
F0.010277777777777778
sS'rec_3'
p4756
F0.0076333333333333331
sS'rec_0'
p4757
F0.011244444444444444
sS'rec_1'
p4758
F0.0085288888888888897
sS'rec_8'
p4759
F0.006467777777777778
sS'rec_9'
p4760
F0.0058599999999999998
sS'rec_105'
p4761
F0.0038388888888888891
sS'rec_104'
p4762
F0.0037711111111111109
sS'rec_107'
p4763
F0.0037766666666666665
sS'rec_106'
p4764
F0.0036255555555555555
sS'rec_101'
p4765
F0.0040266666666666662
sS'rec_100'
p4766
F0.004297777777777778
sS'rec_103'
p4767
F0.0035944444444444444
sS'rec_102'
p4768
F0.0037711111111111109
sS'rec_109'
p4769
F0.0035722222222222223
sS'rec_108'
p4770
F0.0035077777777777776
sS'rec_160'
p4771
F0.0032877777777777779
sS'rec_36'
p4772
F0.0053611111111111108
sS'rec_37'
p4773
F0.0048733333333333337
sS'rec_34'
p4774
F0.0043555555555555552
sS'rec_35'
p4775
F0.0046366666666666665
sS'rec_32'
p4776
F0.004302222222222222
sS'rec_33'
p4777
F0.0041522222222222221
sS'rec_30'
p4778
F0.0045877777777777774
sS'rec_31'
p4779
F0.0040344444444444447
sS'rec_38'
p4780
F0.0039922222222222225
sS'rec_39'
p4781
F0.0036855555555555556
sS'rec_112'
p4782
F0.0038688888888888887
sS'rec_113'
p4783
F0.0041844444444444446
sS'rec_110'
p4784
F0.0037599999999999999
sS'rec_111'
p4785
F0.0036266666666666665
sS'rec_116'
p4786
F0.0037655555555555554
sS'rec_117'
p4787
F0.0035711111111111113
sS'rec_114'
p4788
F0.0037311111111111113
sS'rec_115'
p4789
F0.0034833333333333335
sS'rec_118'
p4790
F0.0034377777777777779
sS'rec_119'
p4791
F0.0033044444444444445
sS'rec_25'
p4792
F0.0061922222222222222
sS'rec_24'
p4793
F0.0062388888888888893
sS'rec_27'
p4794
F0.0068011111111111111
sS'rec_26'
p4795
F0.0049922222222222225
sS'rec_21'
p4796
F0.0055877777777777774
sS'rec_20'
p4797
F0.0057733333333333334
sS'rec_23'
p4798
F0.0053288888888888891
sS'rec_22'
p4799
F0.0056488888888888891
sS'rec_29'
p4800
F0.0044999999999999997
sS'rec_28'
p4801
F0.0047322222222222219
sS'rec_98'
p4802
F0.0052255555555555553
sS'rec_140'
p4803
F0.0034099999999999998
sS'rec_143'
p4804
F0.0040711111111111113
sS'rec_142'
p4805
F0.0038266666666666666
sS'rec_145'
p4806
F0.0037588888888888889
sS'rec_144'
p4807
F0.0036955555555555557
sS'rec_147'
p4808
F0.003808888888888889
sS'rec_146'
p4809
F0.0037311111111111113
sS'rec_149'
p4810
F0.0037177777777777777
sS'rec_91'
p4811
F0.0037622222222222224
sS'rec_92'
p4812
F0.0040788888888888888
sS'rec_93'
p4813
F0.0038066666666666665
sS'rec_94'
p4814
F0.0038766666666666667
sS'rec_95'
p4815
F0.0034533333333333334
sS'rec_96'
p4816
F0.0040944444444444448
sS'rec_97'
p4817
F0.0039311111111111109
sS'rec_10'
p4818
F0.0067099999999999998
sS'rec_11'
p4819
F0.0062899999999999996
sS'rec_12'
p4820
F0.0055488888888888888
sS'rec_13'
p4821
F0.0048555555555555557
sS'rec_14'
p4822
F0.0047688888888888885
sS'rec_15'
p4823
F0.0063511111111111112
sS'rec_16'
p4824
F0.0061833333333333332
sS'rec_17'
p4825
F0.005931111111111111
sS'rec_18'
p4826
F0.0052044444444444447
sS'rec_19'
p4827
F0.0053411111111111107
sS'rec_141'
p4828
F0.0035822222222222223
ssg4645
F0.74825555555555556
sstp4829
a(g11
(tRp4830
S'workload'
p4831
g11
(tRp4832
S'n_contents'
p4833
I300000
sS'name'
p4834
S'STATIONARY'
p4835
sS'n_warmup'
p4836
I300000
sS'rate'
p4837
F1
sS'n_measured'
p4838
I900000
sS'alpha'
p4839
F1
ssS'cache_policy'
p4840
g11
(tRp4841
g4834
S'LRU'
p4842
ssS'strategy'
p4843
g11
(tRp4844
g4834
S'C_LCF_P2P'
p4845
ssS'content_placement'
p4846
g11
(tRp4847
g4834
S'UNIFORM'
p4848
ssS'cache_placement'
p4849
g11
(tRp4850
S'network_cache'
p4851
F0.90000000000000002
sS'uCache_budget'
p4852
F270000
sg4834
S'UNIFORM_with_uCache'
p4853
sS'nCache_budget'
p4854
F0
ssS'desc'
p4855
S'strategy: C_LCF_P2P, network cache: 0.9'
p4856
sS'topology'
p4857
g11
(tRp4858
g4834
S'ROCKET_FUEL_with_uCache'
p4859
sS'asn'
p4860
I3257
ssg11
(tRp4861
S'LATENCY'
p4862
g11
(tRp4863
S'MEAN'
p4864
F25.877393333333334
ssS'CACHE_HIT_RATIO'
p4865
g11
(tRp4866
S'PER_NODE_SERVER_HIT_RATIO'
p4867
g11
(tRp4868
S'src_13'
p4869
F0.015053333333333333
sS'src_14'
p4870
F0.014964444444444445
sS'src_11'
p4871
F0.014434444444444444
sS'src_15'
p4872
F0.013914444444444445
sS'src_10'
p4873
F0.014384444444444444
sS'src_12'
p4874
F0.013606666666666666
sS'src_8'
p4875
F0.014981111111111112
sS'src_9'
p4876
F0.014757777777777778
sS'src_6'
p4877
F0.015508888888888888
sS'src_7'
p4878
F0.015856666666666668
sS'src_4'
p4879
F0.013478888888888889
sS'src_5'
p4880
F0.016415555555555555
sS'src_2'
p4881
F0.016794444444444445
sS'src_3'
p4882
F0.014495555555555555
sS'src_0'
p4883
F0.017716666666666665
sS'src_1'
p4884
F0.015990000000000001
ssS'PER_NODE_CACHE_HIT_RATIO'
p4885
g11
(tRp4886
S'rec_158'
p4887
F0.0036344444444444445
sS'rec_159'
p4888
F0.0036555555555555556
sS'rec_156'
p4889
F0.004624444444444444
sS'rec_157'
p4890
F0.0050922222222222219
sS'rec_154'
p4891
F0.0038899999999999998
sS'rec_155'
p4892
F0.0036255555555555555
sS'rec_152'
p4893
F0.0041733333333333336
sS'rec_153'
p4894
F0.0035288888888888887
sS'rec_150'
p4895
F0.0034322222222222224
sS'rec_151'
p4896
F0.0037477777777777778
sS'rec_129'
p4897
F0.0040711111111111113
sS'rec_128'
p4898
F0.0041377777777777775
sS'rec_123'
p4899
F0.0045477777777777782
sS'rec_122'
p4900
F0.0037266666666666668
sS'rec_121'
p4901
F0.0037344444444444443
sS'rec_120'
p4902
F0.003658888888888889
sS'rec_127'
p4903
F0.0041377777777777775
sS'rec_126'
p4904
F0.0035222222222222222
sS'rec_125'
p4905
F0.0037177777777777777
sS'rec_124'
p4906
F0.0035311111111111112
sS'rec_78'
p4907
F0.0046944444444444447
sS'rec_79'
p4908
F0.00447
sS'rec_72'
p4909
F0.0046511111111111111
sS'rec_73'
p4910
F0.0045311111111111108
sS'rec_70'
p4911
F0.0039833333333333335
sS'rec_71'
p4912
F0.0041511111111111115
sS'rec_76'
p4913
F0.0042688888888888889
sS'rec_77'
p4914
F0.0041888888888888887
sS'rec_74'
p4915
F0.0038955555555555558
sS'rec_75'
p4916
F0.0040877777777777779
sS'rec_87'
p4917
F0.0041722222222222221
sS'rec_86'
p4918
F0.0039199999999999999
sS'rec_85'
p4919
F0.0036722222222222221
sS'rec_84'
p4920
F0.0039100000000000003
sS'rec_83'
p4921
F0.0037511111111111113
sS'rec_82'
p4922
F0.0040044444444444442
sS'rec_81'
p4923
F0.004454444444444444
sS'rec_80'
p4924
F0.0038588888888888887
sS'rec_89'
p4925
F0.003968888888888889
sS'rec_88'
p4926
F0.0036111111111111109
sS'rec_138'
p4927
F0.0037622222222222224
sS'rec_139'
p4928
F0.0039322222222222224
sS'rec_140'
p4929
F0.0033522222222222221
sS'rec_130'
p4930
F0.004311111111111111
sS'rec_131'
p4931
F0.0041144444444444449
sS'rec_132'
p4932
F0.0038433333333333332
sS'rec_133'
p4933
F0.0037088888888888887
sS'rec_134'
p4934
F0.0039177777777777778
sS'rec_135'
p4935
F0.00363
sS'rec_136'
p4936
F0.0037000000000000002
sS'rec_137'
p4937
F0.0035000000000000001
sS'rec_69'
p4938
F0.0043166666666666666
sS'rec_68'
p4939
F0.0043299999999999996
sS'rec_61'
p4940
F0.0055633333333333333
sS'rec_60'
p4941
F0.0054933333333333336
sS'rec_63'
p4942
F0.0051544444444444441
sS'rec_62'
p4943
F0.0047999999999999996
sS'rec_65'
p4944
F0.004613333333333333
sS'rec_64'
p4945
F0.0043711111111111112
sS'rec_67'
p4946
F0.0041722222222222221
sS'rec_66'
p4947
F0.0043955555555555553
sS'rec_90'
p4948
F0.0036344444444444445
sS'rec_148'
p4949
F0.0042700000000000004
sS'rec_54'
p4950
F0.0053022222222222221
sS'rec_55'
p4951
F0.0043955555555555553
sS'rec_56'
p4952
F0.0051222222222222225
sS'rec_57'
p4953
F0.0050566666666666668
sS'rec_50'
p4954
F0.0047233333333333337
sS'rec_51'
p4955
F0.0050277777777777777
sS'rec_52'
p4956
F0.0048633333333333332
sS'rec_53'
p4957
F0.0044844444444444445
sS'rec_58'
p4958
F0.0049944444444444446
sS'rec_59'
p4959
F0.0047099999999999998
sS'rec_43'
p4960
F0.0080199999999999994
sS'rec_42'
p4961
F0.0066588888888888887
sS'rec_41'
p4962
F0.0073022222222222221
sS'rec_40'
p4963
F0.0059199999999999999
sS'rec_47'
p4964
F0.0057344444444444448
sS'rec_46'
p4965
F0.004628888888888889
sS'rec_45'
p4966
F0.0062211111111111113
sS'rec_44'
p4967
F0.0061911111111111108
sS'rec_49'
p4968
F0.0054177777777777774
sS'rec_48'
p4969
F0.0049933333333333331
sS'rec_6'
p4970
F0.0080499999999999999
sS'rec_7'
p4971
F0.0087044444444444452
sS'rec_4'
p4972
F0.0089188888888888894
sS'rec_5'
p4973
F0.0081844444444444438
sS'rec_2'
p4974
F0.010114444444444445
sS'rec_3'
p4975
F0.0074955555555555557
sS'rec_0'
p4976
F0.011033333333333332
sS'rec_1'
p4977
F0.0082111111111111117
sS'rec_8'
p4978
F0.0063488888888888892
sS'rec_9'
p4979
F0.0058199999999999997
sS'rec_105'
p4980
F0.0041444444444444445
sS'rec_104'
p4981
F0.0038222222222222221
sS'rec_107'
p4982
F0.0037355555555555558
sS'rec_106'
p4983
F0.0036933333333333332
sS'rec_101'
p4984
F0.0040088888888888891
sS'rec_100'
p4985
F0.0045611111111111113
sS'rec_103'
p4986
F0.0035511111111111112
sS'rec_102'
p4987
F0.0039022222222222223
sS'rec_109'
p4988
F0.0036255555555555555
sS'rec_108'
p4989
F0.0036344444444444445
sS'rec_160'
p4990
F0.0034444444444444444
sS'rec_36'
p4991
F0.0054188888888888889
sS'rec_37'
p4992
F0.0049255555555555554
sS'rec_34'
p4993
F0.0044466666666666665
sS'rec_35'
p4994
F0.0045677777777777774
sS'rec_32'
p4995
F0.0043611111111111107
sS'rec_33'
p4996
F0.0041611111111111111
sS'rec_30'
p4997
F0.004792222222222222
sS'rec_31'
p4998
F0.0041933333333333336
sS'rec_38'
p4999
F0.0041355555555555555
sS'rec_39'
p5000
F0.0037544444444444444
sS'rec_112'
p5001
F0.003975555555555556
sS'rec_113'
p5002
F0.0041966666666666663
sS'rec_110'
p5003
F0.003807777777777778
sS'rec_111'
p5004
F0.0038144444444444445
sS'rec_116'
p5005
F0.0040377777777777782
sS'rec_117'
p5006
F0.003621111111111111
sS'rec_114'
p5007
F0.0036733333333333331
sS'rec_115'
p5008
F0.0036700000000000001
sS'rec_118'
p5009
F0.003641111111111111
sS'rec_119'
p5010
F0.0033300000000000001
sS'rec_25'
p5011
F0.0061877777777777782
sS'rec_24'
p5012
F0.0063266666666666671
sS'rec_27'
p5013
F0.0068811111111111113
sS'rec_26'
p5014
F0.0052866666666666669
sS'rec_21'
p5015
F0.0056911111111111112
sS'rec_20'
p5016
F0.0057644444444444444
sS'rec_23'
p5017
F0.0052444444444444448
sS'rec_22'
p5018
F0.0056388888888888886
sS'rec_29'
p5019
F0.0047055555555555557
sS'rec_28'
p5020
F0.0049544444444444445
sS'rec_98'
p5021
F0.0052744444444444444
sS'rec_99'
p5022
F0.0050422222222222222
sS'rec_143'
p5023
F0.0040922222222222219
sS'rec_142'
p5024
F0.0037755555555555554
sS'rec_145'
p5025
F0.0038933333333333333
sS'rec_144'
p5026
F0.0038044444444444445
sS'rec_147'
p5027
F0.0039255555555555554
sS'rec_146'
p5028
F0.0037688888888888889
sS'rec_149'
p5029
F0.0036344444444444445
sS'rec_91'
p5030
F0.0036733333333333331
sS'rec_92'
p5031
F0.0041988888888888892
sS'rec_93'
p5032
F0.0037522222222222223
sS'rec_94'
p5033
F0.0039288888888888889
sS'rec_95'
p5034
F0.0036133333333333334
sS'rec_96'
p5035
F0.004112222222222222
sS'rec_97'
p5036
F0.003942222222222222
sS'rec_10'
p5037
F0.0068199999999999997
sS'rec_11'
p5038
F0.0061577777777777776
sS'rec_12'
p5039
F0.0060877777777777779
sS'rec_13'
p5040
F0.0050966666666666669
sS'rec_14'
p5041
F0.0049911111111111111
sS'rec_15'
p5042
F0.0063833333333333337
sS'rec_16'
p5043
F0.0062366666666666664
sS'rec_17'
p5044
F0.0058655555555555553
sS'rec_18'
p5045
F0.0052355555555555558
sS'rec_19'
p5046
F0.0054488888888888885
sS'rec_141'
p5047
F0.0035911111111111113
ssg4864
F0.75764666666666669
sstp5048
a(g11
(tRp5049
S'workload'
p5050
g11
(tRp5051
S'n_contents'
p5052
I300000
sS'name'
p5053
S'STATIONARY'
p5054
sS'n_warmup'
p5055
I300000
sS'rate'
p5056
F1
sS'n_measured'
p5057
I900000
sS'alpha'
p5058
F1
ssS'cache_policy'
p5059
g11
(tRp5060
g5053
S'LRU'
p5061
ssS'strategy'
p5062
g11
(tRp5063
g5053
S'C_LCF_P2P'
p5064
ssS'content_placement'
p5065
g11
(tRp5066
g5053
S'UNIFORM'
p5067
ssS'cache_placement'
p5068
g11
(tRp5069
S'network_cache'
p5070
F1
sS'uCache_budget'
p5071
F300000
sg5053
S'UNIFORM_with_uCache'
p5072
sS'nCache_budget'
p5073
F0
ssS'desc'
p5074
S'strategy: C_LCF_P2P, network cache: 1.0'
p5075
sS'topology'
p5076
g11
(tRp5077
g5053
S'ROCKET_FUEL_with_uCache'
p5078
sS'asn'
p5079
I3257
ssg11
(tRp5080
S'LATENCY'
p5081
g11
(tRp5082
S'MEAN'
p5083
F25.285428888888887
ssS'CACHE_HIT_RATIO'
p5084
g11
(tRp5085
S'PER_NODE_SERVER_HIT_RATIO'
p5086
g11
(tRp5087
S'src_13'
p5088
F0.015266666666666666
sS'src_14'
p5089
F0.014434444444444444
sS'src_11'
p5090
F0.014261111111111112
sS'src_15'
p5091
F0.013933333333333334
sS'src_10'
p5092
F0.013788888888888889
sS'src_12'
p5093
F0.013066666666666667
sS'src_8'
p5094
F0.014535555555555555
sS'src_9'
p5095
F0.014415555555555555
sS'src_6'
p5096
F0.015052222222222222
sS'src_7'
p5097
F0.016111111111111111
sS'src_4'
p5098
F0.012762222222222222
sS'src_5'
p5099
F0.015773333333333334
sS'src_2'
p5100
F0.016321111111111113
sS'src_3'
p5101
F0.014087777777777777
sS'src_0'
p5102
F0.016644444444444444
sS'src_1'
p5103
F0.015604444444444445
ssS'PER_NODE_CACHE_HIT_RATIO'
p5104
g11
(tRp5105
S'rec_158'
p5106
F0.0037577777777777779
sS'rec_159'
p5107
F0.003781111111111111
sS'rec_156'
p5108
F0.0046600000000000001
sS'rec_157'
p5109
F0.0052266666666666668
sS'rec_154'
p5110
F0.0039577777777777779
sS'rec_155'
p5111
F0.0037855555555555555
sS'rec_152'
p5112
F0.0040299999999999997
sS'rec_153'
p5113
F0.0035844444444444444
sS'rec_150'
p5114
F0.0034211111111111113
sS'rec_151'
p5115
F0.0037533333333333333
sS'rec_129'
p5116
F0.004136666666666667
sS'rec_128'
p5117
F0.004326666666666667
sS'rec_123'
p5118
F0.0046299999999999996
sS'rec_122'
p5119
F0.0036166666666666665
sS'rec_121'
p5120
F0.00381
sS'rec_120'
p5121
F0.0036722222222222221
sS'rec_127'
p5122
F0.0041622222222222225
sS'rec_126'
p5123
F0.0035566666666666667
sS'rec_125'
p5124
F0.0037455555555555554
sS'rec_124'
p5125
F0.0036111111111111109
sS'rec_78'
p5126
F0.0045222222222222226
sS'rec_79'
p5127
F0.0046088888888888889
sS'rec_72'
p5128
F0.0046677777777777776
sS'rec_73'
p5129
F0.0045688888888888888
sS'rec_70'
p5130
F0.0040722222222222219
sS'rec_71'
p5131
F0.0041999999999999997
sS'rec_76'
p5132
F0.0042111111111111108
sS'rec_77'
p5133
F0.0041988888888888892
sS'rec_74'
p5134
F0.004123333333333333
sS'rec_75'
p5135
F0.0041555555555555556
sS'rec_87'
p5136
F0.0041011111111111109
sS'rec_86'
p5137
F0.0038811111111111112
sS'rec_85'
p5138
F0.003802222222222222
sS'rec_84'
p5139
F0.0036933333333333332
sS'rec_83'
p5140
F0.0038666666666666667
sS'rec_82'
p5141
F0.0039677777777777775
sS'rec_81'
p5142
F0.0043122222222222225
sS'rec_80'
p5143
F0.0039066666666666668
sS'rec_89'
p5144
F0.0038533333333333332
sS'rec_88'
p5145
F0.0038300000000000001
sS'rec_138'
p5146
F0.0037877777777777779
sS'rec_139'
p5147
F0.0038844444444444443
sS'rec_140'
p5148
F0.0037066666666666667
sS'rec_130'
p5149
F0.0044277777777777779
sS'rec_131'
p5150
F0.0040677777777777778
sS'rec_132'
p5151
F0.0040277777777777777
sS'rec_133'
p5152
F0.0038833333333333333
sS'rec_134'
p5153
F0.0038266666666666666
sS'rec_135'
p5154
F0.0037833333333333334
sS'rec_136'
p5155
F0.0037111111111111112
sS'rec_137'
p5156
F0.0035277777777777777
sS'rec_69'
p5157
F0.0043777777777777782
sS'rec_68'
p5158
F0.0044366666666666669
sS'rec_61'
p5159
F0.0054944444444444442
sS'rec_60'
p5160
F0.0055888888888888889
sS'rec_63'
p5161
F0.0051200000000000004
sS'rec_62'
p5162
F0.0048444444444444446
sS'rec_65'
p5163
F0.0045788888888888893
sS'rec_64'
p5164
F0.0045377777777777777
sS'rec_67'
p5165
F0.0043722222222222227
sS'rec_66'
p5166
F0.0043644444444444442
sS'rec_90'
p5167
F0.0036155555555555554
sS'rec_91'
p5168
F0.0038855555555555557
sS'rec_54'
p5169
F0.0052688888888888889
sS'rec_55'
p5170
F0.0046811111111111107
sS'rec_56'
p5171
F0.0051399999999999996
sS'rec_57'
p5172
F0.0050888888888888893
sS'rec_50'
p5173
F0.004646666666666667
sS'rec_51'
p5174
F0.0049455555555555555
sS'rec_52'
p5175
F0.0049399999999999999
sS'rec_53'
p5176
F0.0043933333333333333
sS'rec_58'
p5177
F0.0049800000000000001
sS'rec_59'
p5178
F0.0045822222222222219
sS'rec_43'
p5179
F0.0081577777777777777
sS'rec_42'
p5180
F0.0068044444444444446
sS'rec_41'
p5181
F0.0070477777777777778
sS'rec_40'
p5182
F0.0058277777777777781
sS'rec_47'
p5183
F0.0057844444444444445
sS'rec_46'
p5184
F0.0047133333333333333
sS'rec_45'
p5185
F0.0061233333333333331
sS'rec_44'
p5186
F0.0060066666666666671
sS'rec_49'
p5187
F0.0053633333333333337
sS'rec_48'
p5188
F0.0051877777777777781
sS'rec_6'
p5189
F0.0081700000000000002
sS'rec_7'
p5190
F0.0086755555555555561
sS'rec_4'
p5191
F0.008893333333333333
sS'rec_5'
p5192
F0.008398888888888888
sS'rec_2'
p5193
F0.0097833333333333331
sS'rec_3'
p5194
F0.0075566666666666664
sS'rec_0'
p5195
F0.01115
sS'rec_1'
p5196
F0.0082244444444444439
sS'rec_8'
p5197
F0.0065811111111111114
sS'rec_9'
p5198
F0.0060222222222222222
sS'rec_105'
p5199
F0.0041788888888888891
sS'rec_104'
p5200
F0.0039022222222222223
sS'rec_107'
p5201
F0.0038788888888888888
sS'rec_106'
p5202
F0.0037799999999999999
sS'rec_101'
p5203
F0.0040855555555555558
sS'rec_100'
p5204
F0.0045266666666666667
sS'rec_103'
p5205
F0.0036777777777777776
sS'rec_102'
p5206
F0.0040344444444444447
sS'rec_109'
p5207
F0.0037288888888888888
sS'rec_108'
p5208
F0.0036133333333333334
sS'rec_160'
p5209
F0.0035188888888888887
sS'rec_36'
p5210
F0.0055366666666666663
sS'rec_37'
p5211
F0.0049933333333333331
sS'rec_34'
p5212
F0.0044922222222222221
sS'rec_35'
p5213
F0.0046699999999999997
sS'rec_32'
p5214
F0.004467777777777778
sS'rec_33'
p5215
F0.0041911111111111107
sS'rec_30'
p5216
F0.0048022222222222225
sS'rec_31'
p5217
F0.0041911111111111107
sS'rec_38'
p5218
F0.0042444444444444448
sS'rec_39'
p5219
F0.0037866666666666665
sS'rec_112'
p5220
F0.0039177777777777778
sS'rec_113'
p5221
F0.0041700000000000001
sS'rec_110'
p5222
F0.0036877777777777777
sS'rec_111'
p5223
F0.0037833333333333334
sS'rec_116'
p5224
F0.0040666666666666663
sS'rec_117'
p5225
F0.0036688888888888891
sS'rec_114'
p5226
F0.0037933333333333335
sS'rec_115'
p5227
F0.0037344444444444443
sS'rec_118'
p5228
F0.003641111111111111
sS'rec_119'
p5229
F0.0035100000000000001
sS'rec_25'
p5230
F0.0063044444444444441
sS'rec_24'
p5231
F0.00628
sS'rec_27'
p5232
F0.006948888888888889
sS'rec_26'
p5233
F0.0052366666666666664
sS'rec_21'
p5234
F0.0055633333333333333
sS'rec_20'
p5235
F0.0059933333333333332
sS'rec_23'
p5236
F0.0055255555555555553
sS'rec_22'
p5237
F0.0057344444444444448
sS'rec_29'
p5238
F0.0047244444444444443
sS'rec_28'
p5239
F0.0048544444444444442
sS'rec_98'
p5240
F0.0052544444444444444
sS'rec_99'
p5241
F0.0051155555555555555
sS'rec_143'
p5242
F0.0041766666666666671
sS'rec_142'
p5243
F0.003971111111111111
sS'rec_145'
p5244
F0.0038855555555555557
sS'rec_144'
p5245
F0.0039144444444444444
sS'rec_147'
p5246
F0.0038144444444444445
sS'rec_146'
p5247
F0.0038844444444444443
sS'rec_149'
p5248
F0.0035733333333333333
sS'rec_148'
p5249
F0.0043533333333333332
sS'rec_92'
p5250
F0.0043122222222222225
sS'rec_93'
p5251
F0.0037344444444444443
sS'rec_94'
p5252
F0.0037399999999999998
sS'rec_95'
p5253
F0.0035266666666666667
sS'rec_96'
p5254
F0.0043666666666666663
sS'rec_97'
p5255
F0.0040155555555555552
sS'rec_10'
p5256
F0.0068622222222222218
sS'rec_11'
p5257
F0.0064111111111111114
sS'rec_12'
p5258
F0.0058044444444444445
sS'rec_13'
p5259
F0.005295555555555556
sS'rec_14'
p5260
F0.0048900000000000002
sS'rec_15'
p5261
F0.006456666666666667
sS'rec_16'
p5262
F0.0062199999999999998
sS'rec_17'
p5263
F0.0057822222222222225
sS'rec_18'
p5264
F0.0051344444444444441
sS'rec_19'
p5265
F0.0055622222222222219
sS'rec_141'
p5266
F0.0036844444444444446
ssg5083
F0.76394111111111107
sstp5267
atRp5268
sb.