ccopy_reg
_reconstructor
p1
(cicarus.results.readwrite
ResultSet
p2
c__builtin__
object
p3
NtRp4
(dp5
S'attr'
p6
(dp7
sS'_results'
p8
ccollections
deque
p9
((lp10
(cicarus.util
Tree
p11
(tRp12
S'workload'
p13
g11
(tRp14
S'time_interval'
p15
I5
sS'n_contents'
p16
I10000
sS'name'
p17
S'STATIONARY'
p18
sS'n_warmup'
p19
I20000
sS'rate'
p20
F1000
sS'n_measured'
p21
I20000
sS'alpha'
p22
F1
sS'n_segments'
p23
I100
ssS'cache_policy'
p24
g11
(tRp25
g17
S'LRU'
p26
ssS'strategy'
p27
g11
(tRp28
g17
S'C_LFR_UM'
p29
ssS'content_placement'
p30
g11
(tRp31
g16
I10000
sg17
S'UNIFORM'
p32
sg23
I100
ssS'cache_placement'
p33
g11
(tRp34
S'network_cache'
p35
F0.001
sS'uCache_budget'
p36
F10
sg17
S'UNIFORM_WITH_UCACHE'
p37
sS'nCache_budget'
p38
F0
ssS'desc'
p39
S'C_LFR_UM|LRU|5s, network cache: 0.001'
p40
sS'topology'
p41
g11
(tRp42
S'asn'
p43
I3257
sg17
S'ROCKET_FUEL_WITH_UCACHE'
p44
ssg11
(tRp45
S'OVERHEAD_DISTRIBUTION'
p46
g11
(tRp47
S'CV'
p48
cnumpy.core.multiarray
scalar
p49
(cnumpy
dtype
p50
(S'f8'
I0
I1
tRp51
(I3
S'<'
NNNI-1
I-1
I0
tbS'F\xdf\xceu\xe5\xbc\xeb?'
tRp52
ssS'CACHE_HIT_RATIO'
p53
g11
(tRp54
S'MEAN'
p55
F0.004117
sstp56
a(g11
(tRp57
S'workload'
p58
g11
(tRp59
S'time_interval'
p60
I5
sS'n_contents'
p61
I10000
sS'name'
p62
S'STATIONARY'
p63
sS'n_warmup'
p64
I20000
sS'rate'
p65
F1000
sS'n_measured'
p66
I20000
sS'alpha'
p67
F1
sS'n_segments'
p68
I100
ssS'cache_policy'
p69
g11
(tRp70
g62
S'LRU'
p71
ssS'strategy'
p72
g11
(tRp73
g62
S'C_LFR_UM'
p74
ssS'content_placement'
p75
g11
(tRp76
g61
I10000
sg62
S'UNIFORM'
p77
sg68
I100
ssS'cache_placement'
p78
g11
(tRp79
S'network_cache'
p80
F0.10000000000000001
sS'uCache_budget'
p81
F1000
sg62
S'UNIFORM_WITH_UCACHE'
p82
sS'nCache_budget'
p83
F0
ssS'desc'
p84
S'C_LFR_UM|LRU|5s, network cache: 0.1'
p85
sS'topology'
p86
g11
(tRp87
S'asn'
p88
I3257
sg62
S'ROCKET_FUEL_WITH_UCACHE'
p89
ssg11
(tRp90
S'OVERHEAD_DISTRIBUTION'
p91
g11
(tRp92
S'CV'
p93
g49
(g51
S'\xf4\x88|\xc18\xdc\xe4?'
tRp94
ssS'CACHE_HIT_RATIO'
p95
g11
(tRp96
S'MEAN'
p97
F0.0221055
sstp98
a(g11
(tRp99
S'workload'
p100
g11
(tRp101
S'time_interval'
p102
I5
sS'n_contents'
p103
I10000
sS'name'
p104
S'STATIONARY'
p105
sS'n_warmup'
p106
I20000
sS'rate'
p107
F1000
sS'n_measured'
p108
I20000
sS'alpha'
p109
F1
sS'n_segments'
p110
I100
ssS'cache_policy'
p111
g11
(tRp112
g104
S'LRU'
p113
ssS'strategy'
p114
g11
(tRp115
g104
S'C_LFR_UM'
p116
ssS'content_placement'
p117
g11
(tRp118
g103
I10000
sg104
S'UNIFORM'
p119
sg110
I100
ssS'cache_placement'
p120
g11
(tRp121
S'network_cache'
p122
F0.20000000000000001
sS'uCache_budget'
p123
F2000
sg104
S'UNIFORM_WITH_UCACHE'
p124
sS'nCache_budget'
p125
F0
ssS'desc'
p126
S'C_LFR_UM|LRU|5s, network cache: 0.2'
p127
sS'topology'
p128
g11
(tRp129
S'asn'
p130
I3257
sg104
S'ROCKET_FUEL_WITH_UCACHE'
p131
ssg11
(tRp132
S'OVERHEAD_DISTRIBUTION'
p133
g11
(tRp134
S'CV'
p135
g49
(g51
S'\xb3\xa1\x8d\xeez\xa5\xe2?'
tRp136
ssS'CACHE_HIT_RATIO'
p137
g11
(tRp138
S'MEAN'
p139
F0.045259000000000001
sstp140
a(g11
(tRp141
S'workload'
p142
g11
(tRp143
S'time_interval'
p144
I5
sS'n_contents'
p145
I10000
sS'name'
p146
S'STATIONARY'
p147
sS'n_warmup'
p148
I20000
sS'rate'
p149
F1000
sS'n_measured'
p150
I20000
sS'alpha'
p151
F1
sS'n_segments'
p152
I100
ssS'cache_policy'
p153
g11
(tRp154
g146
S'LRU'
p155
ssS'strategy'
p156
g11
(tRp157
g146
S'C_LFR_UM'
p158
ssS'content_placement'
p159
g11
(tRp160
g145
I10000
sg146
S'UNIFORM'
p161
sg152
I100
ssS'cache_placement'
p162
g11
(tRp163
S'network_cache'
p164
F0.29999999999999999
sS'uCache_budget'
p165
F3000
sg146
S'UNIFORM_WITH_UCACHE'
p166
sS'nCache_budget'
p167
F0
ssS'desc'
p168
S'C_LFR_UM|LRU|5s, network cache: 0.3'
p169
sS'topology'
p170
g11
(tRp171
S'asn'
p172
I3257
sg146
S'ROCKET_FUEL_WITH_UCACHE'
p173
ssg11
(tRp174
S'OVERHEAD_DISTRIBUTION'
p175
g11
(tRp176
S'CV'
p177
g49
(g51
S'\x0c\xa9\xc5\x88\x9f?\xe4?'
tRp178
ssS'CACHE_HIT_RATIO'
p179
g11
(tRp180
S'MEAN'
p181
F0.074344499999999994
sstp182
a(g11
(tRp183
S'workload'
p184
g11
(tRp185
S'time_interval'
p186
I5
sS'n_contents'
p187
I10000
sS'name'
p188
S'STATIONARY'
p189
sS'n_warmup'
p190
I20000
sS'rate'
p191
F1000
sS'n_measured'
p192
I20000
sS'alpha'
p193
F1
sS'n_segments'
p194
I100
ssS'cache_policy'
p195
g11
(tRp196
g188
S'LRU'
p197
ssS'strategy'
p198
g11
(tRp199
g188
S'C_LFR_UM'
p200
ssS'content_placement'
p201
g11
(tRp202
g187
I10000
sg188
S'UNIFORM'
p203
sg194
I100
ssS'cache_placement'
p204
g11
(tRp205
S'network_cache'
p206
F0.40000000000000002
sS'uCache_budget'
p207
F4000
sg188
S'UNIFORM_WITH_UCACHE'
p208
sS'nCache_budget'
p209
F0
ssS'desc'
p210
S'C_LFR_UM|LRU|5s, network cache: 0.4'
p211
sS'topology'
p212
g11
(tRp213
S'asn'
p214
I3257
sg188
S'ROCKET_FUEL_WITH_UCACHE'
p215
ssg11
(tRp216
S'OVERHEAD_DISTRIBUTION'
p217
g11
(tRp218
S'CV'
p219
g49
(g51
S'\xe6\x1d?\x9c\x98\xf1\xe2?'
tRp220
ssS'CACHE_HIT_RATIO'
p221
g11
(tRp222
S'MEAN'
p223
F0.13456599999999999
sstp224
a(g11
(tRp225
S'workload'
p226
g11
(tRp227
S'time_interval'
p228
I5
sS'n_contents'
p229
I10000
sS'name'
p230
S'STATIONARY'
p231
sS'n_warmup'
p232
I20000
sS'rate'
p233
F1000
sS'n_measured'
p234
I20000
sS'alpha'
p235
F1
sS'n_segments'
p236
I100
ssS'cache_policy'
p237
g11
(tRp238
g230
S'LRU'
p239
ssS'strategy'
p240
g11
(tRp241
g230
S'C_LFR_UM'
p242
ssS'content_placement'
p243
g11
(tRp244
g229
I10000
sg230
S'UNIFORM'
p245
sg236
I100
ssS'cache_placement'
p246
g11
(tRp247
S'network_cache'
p248
F0.5
sS'uCache_budget'
p249
F5000
sg230
S'UNIFORM_WITH_UCACHE'
p250
sS'nCache_budget'
p251
F0
ssS'desc'
p252
S'C_LFR_UM|LRU|5s, network cache: 0.5'
p253
sS'topology'
p254
g11
(tRp255
S'asn'
p256
I3257
sg230
S'ROCKET_FUEL_WITH_UCACHE'
p257
ssg11
(tRp258
S'OVERHEAD_DISTRIBUTION'
p259
g11
(tRp260
S'CV'
p261
g49
(g51
S'\x96H\x83\xf5\x02\xfa\xe2?'
tRp262
ssS'CACHE_HIT_RATIO'
p263
g11
(tRp264
S'MEAN'
p265
F0.13820199999999999
sstp266
a(g11
(tRp267
S'workload'
p268
g11
(tRp269
S'time_interval'
p270
I5
sS'n_contents'
p271
I10000
sS'name'
p272
S'STATIONARY'
p273
sS'n_warmup'
p274
I20000
sS'rate'
p275
F1000
sS'n_measured'
p276
I20000
sS'alpha'
p277
F1
sS'n_segments'
p278
I100
ssS'cache_policy'
p279
g11
(tRp280
g272
S'LRU'
p281
ssS'strategy'
p282
g11
(tRp283
g272
S'C_LFR_UM'
p284
ssS'content_placement'
p285
g11
(tRp286
g271
I10000
sg272
S'UNIFORM'
p287
sg278
I100
ssS'cache_placement'
p288
g11
(tRp289
S'network_cache'
p290
F0.59999999999999998
sS'uCache_budget'
p291
F6000
sg272
S'UNIFORM_WITH_UCACHE'
p292
sS'nCache_budget'
p293
F0
ssS'desc'
p294
S'C_LFR_UM|LRU|5s, network cache: 0.6'
p295
sS'topology'
p296
g11
(tRp297
S'asn'
p298
I3257
sg272
S'ROCKET_FUEL_WITH_UCACHE'
p299
ssg11
(tRp300
S'OVERHEAD_DISTRIBUTION'
p301
g11
(tRp302
S'CV'
p303
g49
(g51
S'\x14\xbd\x88<\xba\xf9\xe1?'
tRp304
ssS'CACHE_HIT_RATIO'
p305
g11
(tRp306
S'MEAN'
p307
F0.157165
sstp308
a(g11
(tRp309
S'workload'
p310
g11
(tRp311
S'time_interval'
p312
I5
sS'n_contents'
p313
I10000
sS'name'
p314
S'STATIONARY'
p315
sS'n_warmup'
p316
I20000
sS'rate'
p317
F1000
sS'n_measured'
p318
I20000
sS'alpha'
p319
F1
sS'n_segments'
p320
I100
ssS'cache_policy'
p321
g11
(tRp322
g314
S'LRU'
p323
ssS'strategy'
p324
g11
(tRp325
g314
S'C_LFR_UM'
p326
ssS'content_placement'
p327
g11
(tRp328
g313
I10000
sg314
S'UNIFORM'
p329
sg320
I100
ssS'cache_placement'
p330
g11
(tRp331
S'network_cache'
p332
F0.69999999999999996
sS'uCache_budget'
p333
F7000
sg314
S'UNIFORM_WITH_UCACHE'
p334
sS'nCache_budget'
p335
F0
ssS'desc'
p336
S'C_LFR_UM|LRU|5s, network cache: 0.7'
p337
sS'topology'
p338
g11
(tRp339
S'asn'
p340
I3257
sg314
S'ROCKET_FUEL_WITH_UCACHE'
p341
ssg11
(tRp342
S'OVERHEAD_DISTRIBUTION'
p343
g11
(tRp344
S'CV'
p345
g49
(g51
S'\xd9[\xee\xcao\xd8\xe3?'
tRp346
ssS'CACHE_HIT_RATIO'
p347
g11
(tRp348
S'MEAN'
p349
F0.19964499999999999
sstp350
a(g11
(tRp351
S'workload'
p352
g11
(tRp353
S'time_interval'
p354
I5
sS'n_contents'
p355
I10000
sS'name'
p356
S'STATIONARY'
p357
sS'n_warmup'
p358
I20000
sS'rate'
p359
F1000
sS'n_measured'
p360
I20000
sS'alpha'
p361
F1
sS'n_segments'
p362
I100
ssS'cache_policy'
p363
g11
(tRp364
g356
S'LRU'
p365
ssS'strategy'
p366
g11
(tRp367
g356
S'C_LCF_UM'
p368
ssS'content_placement'
p369
g11
(tRp370
g355
I10000
sg356
S'UNIFORM'
p371
sg362
I100
ssS'cache_placement'
p372
g11
(tRp373
S'network_cache'
p374
F0.001
sS'uCache_budget'
p375
F10
sg356
S'UNIFORM_WITH_UCACHE'
p376
sS'nCache_budget'
p377
F0
ssS'desc'
p378
S'C_LCF_UM|LRU|5s, network cache: 0.001'
p379
sS'topology'
p380
g11
(tRp381
S'asn'
p382
I3257
sg356
S'ROCKET_FUEL_WITH_UCACHE'
p383
ssg11
(tRp384
S'OVERHEAD_DISTRIBUTION'
p385
g11
(tRp386
S'CV'
p387
g49
(g51
S'\x1e\xc4\x95[\x91-\xe2?'
tRp388
ssS'CACHE_HIT_RATIO'
p389
g11
(tRp390
S'MEAN'
p391
F0.017721000000000001
sstp392
a(g11
(tRp393
S'workload'
p394
g11
(tRp395
S'time_interval'
p396
I5
sS'n_contents'
p397
I10000
sS'name'
p398
S'STATIONARY'
p399
sS'n_warmup'
p400
I20000
sS'rate'
p401
F1000
sS'n_measured'
p402
I20000
sS'alpha'
p403
F1
sS'n_segments'
p404
I100
ssS'cache_policy'
p405
g11
(tRp406
g398
S'LRU'
p407
ssS'strategy'
p408
g11
(tRp409
g398
S'C_LCF_UM'
p410
ssS'content_placement'
p411
g11
(tRp412
g397
I10000
sg398
S'UNIFORM'
p413
sg404
I100
ssS'cache_placement'
p414
g11
(tRp415
S'network_cache'
p416
F0.10000000000000001
sS'uCache_budget'
p417
F1000
sg398
S'UNIFORM_WITH_UCACHE'
p418
sS'nCache_budget'
p419
F0
ssS'desc'
p420
S'C_LCF_UM|LRU|5s, network cache: 0.1'
p421
sS'topology'
p422
g11
(tRp423
S'asn'
p424
I3257
sg398
S'ROCKET_FUEL_WITH_UCACHE'
p425
ssg11
(tRp426
S'OVERHEAD_DISTRIBUTION'
p427
g11
(tRp428
S'CV'
p429
g49
(g51
S'\xabt\x00\xdd\xe6\xe3\xe1?'
tRp430
ssS'CACHE_HIT_RATIO'
p431
g11
(tRp432
S'MEAN'
p433
F0.027879999999999999
sstp434
a(g11
(tRp435
S'workload'
p436
g11
(tRp437
S'time_interval'
p438
I5
sS'n_contents'
p439
I10000
sS'name'
p440
S'STATIONARY'
p441
sS'n_warmup'
p442
I20000
sS'rate'
p443
F1000
sS'n_measured'
p444
I20000
sS'alpha'
p445
F1
sS'n_segments'
p446
I100
ssS'cache_policy'
p447
g11
(tRp448
g440
S'LRU'
p449
ssS'strategy'
p450
g11
(tRp451
g440
S'C_LFR_UM'
p452
ssS'content_placement'
p453
g11
(tRp454
g439
I10000
sg440
S'UNIFORM'
p455
sg446
I100
ssS'cache_placement'
p456
g11
(tRp457
S'network_cache'
p458
F0.80000000000000004
sS'uCache_budget'
p459
F8000
sg440
S'UNIFORM_WITH_UCACHE'
p460
sS'nCache_budget'
p461
F0
ssS'desc'
p462
S'C_LFR_UM|LRU|5s, network cache: 0.8'
p463
sS'topology'
p464
g11
(tRp465
S'asn'
p466
I3257
sg440
S'ROCKET_FUEL_WITH_UCACHE'
p467
ssg11
(tRp468
S'OVERHEAD_DISTRIBUTION'
p469
g11
(tRp470
S'CV'
p471
g49
(g51
S'\xbfaB\x1e!\x98\xe3?'
tRp472
ssS'CACHE_HIT_RATIO'
p473
g11
(tRp474
S'MEAN'
p475
F0.24570649999999999
sstp476
a(g11
(tRp477
S'workload'
p478
g11
(tRp479
S'time_interval'
p480
I5
sS'n_contents'
p481
I10000
sS'name'
p482
S'STATIONARY'
p483
sS'n_warmup'
p484
I20000
sS'rate'
p485
F1000
sS'n_measured'
p486
I20000
sS'alpha'
p487
F1
sS'n_segments'
p488
I100
ssS'cache_policy'
p489
g11
(tRp490
g482
S'LRU'
p491
ssS'strategy'
p492
g11
(tRp493
g482
S'C_LCF_UM'
p494
ssS'content_placement'
p495
g11
(tRp496
g481
I10000
sg482
S'UNIFORM'
p497
sg488
I100
ssS'cache_placement'
p498
g11
(tRp499
S'network_cache'
p500
F0.20000000000000001
sS'uCache_budget'
p501
F2000
sg482
S'UNIFORM_WITH_UCACHE'
p502
sS'nCache_budget'
p503
F0
ssS'desc'
p504
S'C_LCF_UM|LRU|5s, network cache: 0.2'
p505
sS'topology'
p506
g11
(tRp507
S'asn'
p508
I3257
sg482
S'ROCKET_FUEL_WITH_UCACHE'
p509
ssg11
(tRp510
S'OVERHEAD_DISTRIBUTION'
p511
g11
(tRp512
S'CV'
p513
g49
(g51
S'\xf8\x94=\xce(\x97\xe1?'
tRp514
ssS'CACHE_HIT_RATIO'
p515
g11
(tRp516
S'MEAN'
p517
F0.057924000000000003
sstp518
a(g11
(tRp519
S'workload'
p520
g11
(tRp521
S'time_interval'
p522
I5
sS'n_contents'
p523
I10000
sS'name'
p524
S'STATIONARY'
p525
sS'n_warmup'
p526
I20000
sS'rate'
p527
F1000
sS'n_measured'
p528
I20000
sS'alpha'
p529
F1
sS'n_segments'
p530
I100
ssS'cache_policy'
p531
g11
(tRp532
g524
S'LRU'
p533
ssS'strategy'
p534
g11
(tRp535
g524
S'C_LFR_UM'
p536
ssS'content_placement'
p537
g11
(tRp538
g523
I10000
sg524
S'UNIFORM'
p539
sg530
I100
ssS'cache_placement'
p540
g11
(tRp541
S'network_cache'
p542
F0.90000000000000002
sS'uCache_budget'
p543
F9000
sg524
S'UNIFORM_WITH_UCACHE'
p544
sS'nCache_budget'
p545
F0
ssS'desc'
p546
S'C_LFR_UM|LRU|5s, network cache: 0.9'
p547
sS'topology'
p548
g11
(tRp549
S'asn'
p550
I3257
sg524
S'ROCKET_FUEL_WITH_UCACHE'
p551
ssg11
(tRp552
S'OVERHEAD_DISTRIBUTION'
p553
g11
(tRp554
S'CV'
p555
g49
(g51
S'A\x07\x1c\t\xe2C\xe1?'
tRp556
ssS'CACHE_HIT_RATIO'
p557
g11
(tRp558
S'MEAN'
p559
F0.27745449999999999
sstp560
a(g11
(tRp561
S'workload'
p562
g11
(tRp563
S'time_interval'
p564
I5
sS'n_contents'
p565
I10000
sS'name'
p566
S'STATIONARY'
p567
sS'n_warmup'
p568
I20000
sS'rate'
p569
F1000
sS'n_measured'
p570
I20000
sS'alpha'
p571
F1
sS'n_segments'
p572
I100
ssS'cache_policy'
p573
g11
(tRp574
g566
S'LRU'
p575
ssS'strategy'
p576
g11
(tRp577
g566
S'C_LCF_UM'
p578
ssS'content_placement'
p579
g11
(tRp580
g565
I10000
sg566
S'UNIFORM'
p581
sg572
I100
ssS'cache_placement'
p582
g11
(tRp583
S'network_cache'
p584
F0.29999999999999999
sS'uCache_budget'
p585
F3000
sg566
S'UNIFORM_WITH_UCACHE'
p586
sS'nCache_budget'
p587
F0
ssS'desc'
p588
S'C_LCF_UM|LRU|5s, network cache: 0.3'
p589
sS'topology'
p590
g11
(tRp591
S'asn'
p592
I3257
sg566
S'ROCKET_FUEL_WITH_UCACHE'
p593
ssg11
(tRp594
S'OVERHEAD_DISTRIBUTION'
p595
g11
(tRp596
S'CV'
p597
g49
(g51
S'\x03Y\xe7=\xe4\xf1\xe3?'
tRp598
ssS'CACHE_HIT_RATIO'
p599
g11
(tRp600
S'MEAN'
p601
F0.1145485
sstp602
a(g11
(tRp603
S'workload'
p604
g11
(tRp605
S'time_interval'
p606
I5
sS'n_contents'
p607
I10000
sS'name'
p608
S'STATIONARY'
p609
sS'n_warmup'
p610
I20000
sS'rate'
p611
F1000
sS'n_measured'
p612
I20000
sS'alpha'
p613
F1
sS'n_segments'
p614
I100
ssS'cache_policy'
p615
g11
(tRp616
g608
S'LRU'
p617
ssS'strategy'
p618
g11
(tRp619
g608
S'C_LCF_UM'
p620
ssS'content_placement'
p621
g11
(tRp622
g607
I10000
sg608
S'UNIFORM'
p623
sg614
I100
ssS'cache_placement'
p624
g11
(tRp625
S'network_cache'
p626
F0.40000000000000002
sS'uCache_budget'
p627
F4000
sg608
S'UNIFORM_WITH_UCACHE'
p628
sS'nCache_budget'
p629
F0
ssS'desc'
p630
S'C_LCF_UM|LRU|5s, network cache: 0.4'
p631
sS'topology'
p632
g11
(tRp633
S'asn'
p634
I3257
sg608
S'ROCKET_FUEL_WITH_UCACHE'
p635
ssg11
(tRp636
S'OVERHEAD_DISTRIBUTION'
p637
g11
(tRp638
S'CV'
p639
g49
(g51
S'[\x16Gd?\\\xe4?'
tRp640
ssS'CACHE_HIT_RATIO'
p641
g11
(tRp642
S'MEAN'
p643
F0.12586900000000001
sstp644
a(g11
(tRp645
S'workload'
p646
g11
(tRp647
S'time_interval'
p648
I5
sS'n_contents'
p649
I10000
sS'name'
p650
S'STATIONARY'
p651
sS'n_warmup'
p652
I20000
sS'rate'
p653
F1000
sS'n_measured'
p654
I20000
sS'alpha'
p655
F1
sS'n_segments'
p656
I100
ssS'cache_policy'
p657
g11
(tRp658
g650
S'LRU'
p659
ssS'strategy'
p660
g11
(tRp661
g650
S'C_LFR_UM'
p662
ssS'content_placement'
p663
g11
(tRp664
g649
I10000
sg650
S'UNIFORM'
p665
sg656
I100
ssS'cache_placement'
p666
g11
(tRp667
S'network_cache'
p668
F1
sS'uCache_budget'
p669
F10000
sg650
S'UNIFORM_WITH_UCACHE'
p670
sS'nCache_budget'
p671
F0
ssS'desc'
p672
S'C_LFR_UM|LRU|5s, network cache: 1.0'
p673
sS'topology'
p674
g11
(tRp675
S'asn'
p676
I3257
sg650
S'ROCKET_FUEL_WITH_UCACHE'
p677
ssg11
(tRp678
S'OVERHEAD_DISTRIBUTION'
p679
g11
(tRp680
S'CV'
p681
g49
(g51
S'\xd4^\tulR\xe3?'
tRp682
ssS'CACHE_HIT_RATIO'
p683
g11
(tRp684
S'MEAN'
p685
F0.34281349999999999
sstp686
a(g11
(tRp687
S'workload'
p688
g11
(tRp689
S'time_interval'
p690
I5
sS'n_contents'
p691
I10000
sS'name'
p692
S'STATIONARY'
p693
sS'n_warmup'
p694
I20000
sS'rate'
p695
F1000
sS'n_measured'
p696
I20000
sS'alpha'
p697
F1
sS'n_segments'
p698
I100
ssS'cache_policy'
p699
g11
(tRp700
g692
S'LRU'
p701
ssS'strategy'
p702
g11
(tRp703
g692
S'C_LCF_UM'
p704
ssS'content_placement'
p705
g11
(tRp706
g691
I10000
sg692
S'UNIFORM'
p707
sg698
I100
ssS'cache_placement'
p708
g11
(tRp709
S'network_cache'
p710
F0.5
sS'uCache_budget'
p711
F5000
sg692
S'UNIFORM_WITH_UCACHE'
p712
sS'nCache_budget'
p713
F0
ssS'desc'
p714
S'C_LCF_UM|LRU|5s, network cache: 0.5'
p715
sS'topology'
p716
g11
(tRp717
S'asn'
p718
I3257
sg692
S'ROCKET_FUEL_WITH_UCACHE'
p719
ssg11
(tRp720
S'OVERHEAD_DISTRIBUTION'
p721
g11
(tRp722
S'CV'
p723
g49
(g51
S'\x08\xc8\xecrck\xe2?'
tRp724
ssS'CACHE_HIT_RATIO'
p725
g11
(tRp726
S'MEAN'
p727
F0.16167500000000001
sstp728
a(g11
(tRp729
S'workload'
p730
g11
(tRp731
S'time_interval'
p732
I5
sS'n_contents'
p733
I10000
sS'name'
p734
S'STATIONARY'
p735
sS'n_warmup'
p736
I20000
sS'rate'
p737
F1000
sS'n_measured'
p738
I20000
sS'alpha'
p739
F1
sS'n_segments'
p740
I100
ssS'cache_policy'
p741
g11
(tRp742
g734
S'LRU'
p743
ssS'strategy'
p744
g11
(tRp745
g734
S'C_LCF_UM'
p746
ssS'content_placement'
p747
g11
(tRp748
g733
I10000
sg734
S'UNIFORM'
p749
sg740
I100
ssS'cache_placement'
p750
g11
(tRp751
S'network_cache'
p752
F0.59999999999999998
sS'uCache_budget'
p753
F6000
sg734
S'UNIFORM_WITH_UCACHE'
p754
sS'nCache_budget'
p755
F0
ssS'desc'
p756
S'C_LCF_UM|LRU|5s, network cache: 0.6'
p757
sS'topology'
p758
g11
(tRp759
S'asn'
p760
I3257
sg734
S'ROCKET_FUEL_WITH_UCACHE'
p761
ssg11
(tRp762
S'OVERHEAD_DISTRIBUTION'
p763
g11
(tRp764
S'CV'
p765
g49
(g51
S's\xb8\x89\xfb\xd2H\xe1?'
tRp766
ssS'CACHE_HIT_RATIO'
p767
g11
(tRp768
S'MEAN'
p769
F0.207955
sstp770
a(g11
(tRp771
S'workload'
p772
g11
(tRp773
S'time_interval'
p774
I5
sS'n_contents'
p775
I10000
sS'name'
p776
S'STATIONARY'
p777
sS'n_warmup'
p778
I20000
sS'rate'
p779
F1000
sS'n_measured'
p780
I20000
sS'alpha'
p781
F1
sS'n_segments'
p782
I100
ssS'cache_policy'
p783
g11
(tRp784
g776
S'LRU'
p785
ssS'strategy'
p786
g11
(tRp787
g776
S'C_LCF_UM'
p788
ssS'content_placement'
p789
g11
(tRp790
g775
I10000
sg776
S'UNIFORM'
p791
sg782
I100
ssS'cache_placement'
p792
g11
(tRp793
S'network_cache'
p794
F0.69999999999999996
sS'uCache_budget'
p795
F7000
sg776
S'UNIFORM_WITH_UCACHE'
p796
sS'nCache_budget'
p797
F0
ssS'desc'
p798
S'C_LCF_UM|LRU|5s, network cache: 0.7'
p799
sS'topology'
p800
g11
(tRp801
S'asn'
p802
I3257
sg776
S'ROCKET_FUEL_WITH_UCACHE'
p803
ssg11
(tRp804
S'OVERHEAD_DISTRIBUTION'
p805
g11
(tRp806
S'CV'
p807
g49
(g51
S'\xeboZ\x86\xfbv\xe1?'
tRp808
ssS'CACHE_HIT_RATIO'
p809
g11
(tRp810
S'MEAN'
p811
F0.208091
sstp812
a(g11
(tRp813
S'workload'
p814
g11
(tRp815
S'time_interval'
p816
I5
sS'n_contents'
p817
I10000
sS'name'
p818
S'STATIONARY'
p819
sS'n_warmup'
p820
I20000
sS'rate'
p821
F1000
sS'n_measured'
p822
I20000
sS'alpha'
p823
F1
sS'n_segments'
p824
I100
ssS'cache_policy'
p825
g11
(tRp826
g818
S'LRU'
p827
ssS'strategy'
p828
g11
(tRp829
g818
S'C_LCF_UM'
p830
ssS'content_placement'
p831
g11
(tRp832
g817
I10000
sg818
S'UNIFORM'
p833
sg824
I100
ssS'cache_placement'
p834
g11
(tRp835
S'network_cache'
p836
F0.80000000000000004
sS'uCache_budget'
p837
F8000
sg818
S'UNIFORM_WITH_UCACHE'
p838
sS'nCache_budget'
p839
F0
ssS'desc'
p840
S'C_LCF_UM|LRU|5s, network cache: 0.8'
p841
sS'topology'
p842
g11
(tRp843
S'asn'
p844
I3257
sg818
S'ROCKET_FUEL_WITH_UCACHE'
p845
ssg11
(tRp846
S'OVERHEAD_DISTRIBUTION'
p847
g11
(tRp848
S'CV'
p849
g49
(g51
S'#K\x01\x94\x0c"\xe3?'
tRp850
ssS'CACHE_HIT_RATIO'
p851
g11
(tRp852
S'MEAN'
p853
F0.25527349999999999
sstp854
a(g11
(tRp855
S'workload'
p856
g11
(tRp857
S'time_interval'
p858
I5
sS'n_contents'
p859
I10000
sS'name'
p860
S'STATIONARY'
p861
sS'n_warmup'
p862
I20000
sS'rate'
p863
F1000
sS'n_measured'
p864
I20000
sS'alpha'
p865
F1
sS'n_segments'
p866
I100
ssS'cache_policy'
p867
g11
(tRp868
g860
S'LRU'
p869
ssS'strategy'
p870
g11
(tRp871
g860
S'C_LCF_UM'
p872
ssS'content_placement'
p873
g11
(tRp874
g859
I10000
sg860
S'UNIFORM'
p875
sg866
I100
ssS'cache_placement'
p876
g11
(tRp877
S'network_cache'
p878
F0.90000000000000002
sS'uCache_budget'
p879
F9000
sg860
S'UNIFORM_WITH_UCACHE'
p880
sS'nCache_budget'
p881
F0
ssS'desc'
p882
S'C_LCF_UM|LRU|5s, network cache: 0.9'
p883
sS'topology'
p884
g11
(tRp885
S'asn'
p886
I3257
sg860
S'ROCKET_FUEL_WITH_UCACHE'
p887
ssg11
(tRp888
S'OVERHEAD_DISTRIBUTION'
p889
g11
(tRp890
S'CV'
p891
g49
(g51
S'j\x06\x19P\xfd\xe2\xe0?'
tRp892
ssS'CACHE_HIT_RATIO'
p893
g11
(tRp894
S'MEAN'
p895
F0.27041949999999998
sstp896
a(g11
(tRp897
S'workload'
p898
g11
(tRp899
S'time_interval'
p900
I5
sS'n_contents'
p901
I10000
sS'name'
p902
S'STATIONARY'
p903
sS'n_warmup'
p904
I20000
sS'rate'
p905
F1000
sS'n_measured'
p906
I20000
sS'alpha'
p907
F1
sS'n_segments'
p908
I100
ssS'cache_policy'
p909
g11
(tRp910
g902
S'LRU'
p911
ssS'strategy'
p912
g11
(tRp913
g902
S'C_LCF_UM'
p914
ssS'content_placement'
p915
g11
(tRp916
g901
I10000
sg902
S'UNIFORM'
p917
sg908
I100
ssS'cache_placement'
p918
g11
(tRp919
S'network_cache'
p920
F1
sS'uCache_budget'
p921
F10000
sg902
S'UNIFORM_WITH_UCACHE'
p922
sS'nCache_budget'
p923
F0
ssS'desc'
p924
S'C_LCF_UM|LRU|5s, network cache: 1.0'
p925
sS'topology'
p926
g11
(tRp927
S'asn'
p928
I3257
sg902
S'ROCKET_FUEL_WITH_UCACHE'
p929
ssg11
(tRp930
S'OVERHEAD_DISTRIBUTION'
p931
g11
(tRp932
S'CV'
p933
g49
(g51
S'\xb2\xb9L\xff\xd7\xd6\xe2?'
tRp934
ssS'CACHE_HIT_RATIO'
p935
g11
(tRp936
S'MEAN'
p937
F0.35783999999999999
sstp938
atRp939
sb.