ccopy_reg
_reconstructor
p1
(cicarus.results.readwrite
ResultSet
p2
c__builtin__
object
p3
NtRp4
(dp5
S'attr'
p6
(dp7
sS'_results'
p8
ccollections
deque
p9
((lp10
(cicarus.util
Tree
p11
(tRp12
S'workload'
p13
g11
(tRp14
S'n_contents'
p15
I500
sS'name'
p16
S'STATIONARY'
p17
sS'n_warmup'
p18
I100
sS'rate'
p19
F1
sS'n_measured'
p20
I300
sS'alpha'
p21
F1
sS'n_segments'
p22
I5
ssS'cache_policy'
p23
g11
(tRp24
g16
S'LRU'
p25
ssS'strategy'
p26
g11
(tRp27
g16
S'C_RANDOM_UM'
p28
ssS'content_placement'
p29
g11
(tRp30
g15
I500
sg16
S'UNIFORM'
p31
sg22
I5
ssS'cache_placement'
p32
g11
(tRp33
S'network_cache'
p34
F0.29999999999999999
sS'uCache_budget'
p35
F750
sg16
S'UNIFORM_WITH_UCACHE'
p36
sS'nCache_budget'
p37
F0
ssS'desc'
p38
S'strategy: C_RANDOM_UM, network cache: 0.3'
p39
sS'topology'
p40
g11
(tRp41
S'asn'
p42
I3257
sg16
S'ROCKET_FUEL_WITH_UCACHE'
p43
ssg11
(tRp44
S'OVERHEAD_DISTRIBUTION'
p45
g11
(tRp46
S'CV'
p47
cnumpy.core.multiarray
scalar
p48
(cnumpy
dtype
p49
(S'f8'
I0
I1
tRp50
(I3
S'<'
NNNI-1
I-1
I0
tbS"p\x8b\x81\xab'\xaa\xed?"
tRp51
ssS'LATENCY'
p52
g11
(tRp53
S'MEAN'
p54
F23.227329192546584
ssS'CACHE_HIT_RATIO'
p55
g11
(tRp56
g54
F0.58129584352078245
ssS'CACHING_EFFICIENCY'
p57
g11
(tRp58
g54
F0.60037878787878785
ssS'CACHE_EVICTION'
p59
g11
(tRp60
g54
g48
(g50
S'\xc5_\xe4\x0c\x0b.!@'
tRp61
sstp62
atRp63
sb.