ccopy_reg
_reconstructor
p1
(cicarus.results.readwrite
ResultSet
p2
c__builtin__
object
p3
NtRp4
(dp5
S'attr'
p6
(dp7
sS'_results'
p8
ccollections
deque
p9
((lp10
(cicarus.util
Tree
p11
(tRp12
S'workload'
p13
g11
(tRp14
S'n_contents'
p15
I1000
sS'name'
p16
S'STATIONARY'
p17
sS'n_warmup'
p18
I100
sS'rate'
p19
F1
sS'n_measured'
p20
I300
sS'alpha'
p21
F1
sS'n_segments'
p22
I10
ssS'cache_policy'
p23
g11
(tRp24
g16
S'LRU'
p25
ssS'strategy'
p26
g11
(tRp27
g16
S'C_LFR_UM'
p28
ssS'content_placement'
p29
g11
(tRp30
g15
I1000
sg16
S'UNIFORM'
p31
sg22
I10
ssS'cache_placement'
p32
g11
(tRp33
S'network_cache'
p34
F0.001
sS'uCache_budget'
p35
F1
sg16
S'UNIFORM_WITH_UCACHE'
p36
sS'nCache_budget'
p37
F0
ssS'desc'
p38
S'strategy: C_LFR_UM, network cache: 0.001'
p39
sS'topology'
p40
g11
(tRp41
S'asn'
p42
I3257
sg16
S'ROCKET_FUEL_WITH_UCACHE'
p43
ssg11
(tRp44
S'OVERHEAD_DISTRIBUTION'
p45
g11
(tRp46
S'CV'
p47
cnumpy.core.multiarray
scalar
p48
(cnumpy
dtype
p49
(S'f8'
I0
I1
tRp50
(I3
S'<'
NNNI-1
I-1
I0
tbS'\xbc\x9b6.\xbb\x95\xe7?'
tRp51
ssS'LATENCY'
p52
g11
(tRp53
S'MEAN'
p54
F43.690657439446369
ssS'CACHE_HIT_RATIO'
p55
g11
(tRp56
g54
F0.050999999999999997
ssS'CACHING_EFFICIENCY'
p57
g11
(tRp58
g54
F0.055035971223021583
ssS'CACHE_EVICTION'
p59
g11
(tRp60
g54
g48
(g50
S'W\xab\xd5j\xb5Z5@'
tRp61
sstp62
a(g11
(tRp63
S'workload'
p64
g11
(tRp65
S'n_contents'
p66
I1000
sS'name'
p67
S'STATIONARY'
p68
sS'n_warmup'
p69
I100
sS'rate'
p70
F1
sS'n_measured'
p71
I300
sS'alpha'
p72
F1
sS'n_segments'
p73
I10
ssS'cache_policy'
p74
g11
(tRp75
g67
S'LRU'
p76
ssS'strategy'
p77
g11
(tRp78
g67
S'C_LFR_UM'
p79
ssS'content_placement'
p80
g11
(tRp81
g66
I1000
sg67
S'UNIFORM'
p82
sg73
I10
ssS'cache_placement'
p83
g11
(tRp84
S'network_cache'
p85
F0.01
sS'uCache_budget'
p86
F10
sg67
S'UNIFORM_WITH_UCACHE'
p87
sS'nCache_budget'
p88
F0
ssS'desc'
p89
S'strategy: C_LFR_UM, network cache: 0.01'
p90
sS'topology'
p91
g11
(tRp92
S'asn'
p93
I3257
sg67
S'ROCKET_FUEL_WITH_UCACHE'
p94
ssg11
(tRp95
S'OVERHEAD_DISTRIBUTION'
p96
g11
(tRp97
S'CV'
p98
g48
(g50
S'\x87J\x93\x99\xa4\x1d\xe7?'
tRp99
ssS'LATENCY'
p100
g11
(tRp101
S'MEAN'
p102
F43.993835616438353
ssS'CACHE_HIT_RATIO'
p103
g11
(tRp104
g102
F0.053666666666666668
ssS'CACHING_EFFICIENCY'
p105
g11
(tRp106
g102
F0.056690140845070423
ssS'CACHE_EVICTION'
p107
g11
(tRp108
g102
g48
(g50
S'\x1b\xa6\xb9\x0b\xfe*5@'
tRp109
sstp110
a(g11
(tRp111
S'workload'
p112
g11
(tRp113
S'n_contents'
p114
I1000
sS'name'
p115
S'STATIONARY'
p116
sS'n_warmup'
p117
I100
sS'rate'
p118
F1
sS'n_measured'
p119
I300
sS'alpha'
p120
F1
sS'n_segments'
p121
I10
ssS'cache_policy'
p122
g11
(tRp123
g115
S'LRU'
p124
ssS'strategy'
p125
g11
(tRp126
g115
S'C_LFR_UM'
p127
ssS'content_placement'
p128
g11
(tRp129
g114
I1000
sg115
S'UNIFORM'
p130
sg121
I10
ssS'cache_placement'
p131
g11
(tRp132
S'network_cache'
p133
F0.29999999999999999
sS'uCache_budget'
p134
F300
sg115
S'UNIFORM_WITH_UCACHE'
p135
sS'nCache_budget'
p136
F0
ssS'desc'
p137
S'strategy: C_LFR_UM, network cache: 0.3'
p138
sS'topology'
p139
g11
(tRp140
S'asn'
p141
I3257
sg115
S'ROCKET_FUEL_WITH_UCACHE'
p142
ssg11
(tRp143
S'OVERHEAD_DISTRIBUTION'
p144
g11
(tRp145
S'CV'
p146
g48
(g50
S'd3\xf3\x87\xb9(\xf0?'
tRp147
ssS'LATENCY'
p148
g11
(tRp149
S'MEAN'
p150
F39.632737276478679
ssS'CACHE_HIT_RATIO'
p151
g11
(tRp152
g150
F0.13272849462365591
ssS'CACHING_EFFICIENCY'
p153
g11
(tRp154
g150
F0.13908450704225353
ssS'CACHE_EVICTION'
p155
g11
(tRp156
g150
g48
(g50
S'\xfcE\xce\xb0\xe0R3@'
tRp157
sstp158
a(g11
(tRp159
S'workload'
p160
g11
(tRp161
S'n_contents'
p162
I1000
sS'name'
p163
S'STATIONARY'
p164
sS'n_warmup'
p165
I100
sS'rate'
p166
F1
sS'n_measured'
p167
I300
sS'alpha'
p168
F1
sS'n_segments'
p169
I10
ssS'cache_policy'
p170
g11
(tRp171
g163
S'LRU'
p172
ssS'strategy'
p173
g11
(tRp174
g163
S'C_LFR_UM'
p175
ssS'content_placement'
p176
g11
(tRp177
g162
I1000
sg163
S'UNIFORM'
p178
sg169
I10
ssS'cache_placement'
p179
g11
(tRp180
S'network_cache'
p181
F0.20000000000000001
sS'uCache_budget'
p182
F200
sg163
S'UNIFORM_WITH_UCACHE'
p183
sS'nCache_budget'
p184
F0
ssS'desc'
p185
S'strategy: C_LFR_UM, network cache: 0.2'
p186
sS'topology'
p187
g11
(tRp188
S'asn'
p189
I3257
sg163
S'ROCKET_FUEL_WITH_UCACHE'
p190
ssg11
(tRp191
S'OVERHEAD_DISTRIBUTION'
p192
g11
(tRp193
S'CV'
p194
g48
(g50
S'\x9bI\x04\xb3u\xdf\xec?'
tRp195
ssS'LATENCY'
p196
g11
(tRp197
S'MEAN'
p198
F45.605163511187605
ssS'CACHE_HIT_RATIO'
p199
g11
(tRp200
g198
F0.049000000000000002
ssS'CACHING_EFFICIENCY'
p201
g11
(tRp202
g198
F0.052313167259786478
ssS'CACHE_EVICTION'
p203
g11
(tRp204
g198
g48
(g50
S'\xbe\xb5a\x9a\xbb\xe04@'
tRp205
sstp206
a(g11
(tRp207
S'workload'
p208
g11
(tRp209
S'n_contents'
p210
I1000
sS'name'
p211
S'STATIONARY'
p212
sS'n_warmup'
p213
I100
sS'rate'
p214
F1
sS'n_measured'
p215
I300
sS'alpha'
p216
F1
sS'n_segments'
p217
I10
ssS'cache_policy'
p218
g11
(tRp219
g211
S'LRU'
p220
ssS'strategy'
p221
g11
(tRp222
g211
S'C_LFR_UM'
p223
ssS'content_placement'
p224
g11
(tRp225
g210
I1000
sg211
S'UNIFORM'
p226
sg217
I10
ssS'cache_placement'
p227
g11
(tRp228
S'network_cache'
p229
F0.050000000000000003
sS'uCache_budget'
p230
F50
sg211
S'UNIFORM_WITH_UCACHE'
p231
sS'nCache_budget'
p232
F0
ssS'desc'
p233
S'strategy: C_LFR_UM, network cache: 0.05'
p234
sS'topology'
p235
g11
(tRp236
S'asn'
p237
I3257
sg211
S'ROCKET_FUEL_WITH_UCACHE'
p238
ssg11
(tRp239
S'OVERHEAD_DISTRIBUTION'
p240
g11
(tRp241
S'CV'
p242
g48
(g50
S'\xa0p_l+\xf6\xe5?'
tRp243
ssS'LATENCY'
p244
g11
(tRp245
S'MEAN'
p246
F44.556081081081082
ssS'CACHE_HIT_RATIO'
p247
g11
(tRp248
g246
F0.048666666666666664
ssS'CACHING_EFFICIENCY'
p249
g11
(tRp250
g246
F0.050000000000000003
ssS'CACHE_EVICTION'
p251
g11
(tRp252
g246
g48
(g50
S'%I\x92$IR4@'
tRp253
sstp254
a(g11
(tRp255
S'workload'
p256
g11
(tRp257
S'n_contents'
p258
I1000
sS'name'
p259
S'STATIONARY'
p260
sS'n_warmup'
p261
I100
sS'rate'
p262
F1
sS'n_measured'
p263
I300
sS'alpha'
p264
F1
sS'n_segments'
p265
I10
ssS'cache_policy'
p266
g11
(tRp267
g259
S'LRU'
p268
ssS'strategy'
p269
g11
(tRp270
g259
S'C_LFR_UM'
p271
ssS'content_placement'
p272
g11
(tRp273
g258
I1000
sg259
S'UNIFORM'
p274
sg265
I10
ssS'cache_placement'
p275
g11
(tRp276
S'network_cache'
p277
F0.10000000000000001
sS'uCache_budget'
p278
F100
sg259
S'UNIFORM_WITH_UCACHE'
p279
sS'nCache_budget'
p280
F0
ssS'desc'
p281
S'strategy: C_LFR_UM, network cache: 0.1'
p282
sS'topology'
p283
g11
(tRp284
S'asn'
p285
I3257
sg259
S'ROCKET_FUEL_WITH_UCACHE'
p286
ssg11
(tRp287
S'OVERHEAD_DISTRIBUTION'
p288
g11
(tRp289
S'CV'
p290
g48
(g50
S'\x90\xe7M\x1eC\x87\xe9?'
tRp291
ssS'LATENCY'
p292
g11
(tRp293
S'MEAN'
p294
F43.544709897610922
ssS'CACHE_HIT_RATIO'
p295
g11
(tRp296
g294
F0.051999999999999998
ssS'CACHING_EFFICIENCY'
p297
g11
(tRp298
g294
F0.054545454545454543
ssS'CACHE_EVICTION'
p299
g11
(tRp300
g294
g48
(g50
S'\x1e\x1e\x1e\x1e\x1e~4@'
tRp301
sstp302
a(g11
(tRp303
S'workload'
p304
g11
(tRp305
S'n_contents'
p306
I1000
sS'name'
p307
S'STATIONARY'
p308
sS'n_warmup'
p309
I100
sS'rate'
p310
F1
sS'n_measured'
p311
I300
sS'alpha'
p312
F1
sS'n_segments'
p313
I10
ssS'cache_policy'
p314
g11
(tRp315
g307
S'LRU'
p316
ssS'strategy'
p317
g11
(tRp318
g307
S'C_LFR_UM'
p319
ssS'content_placement'
p320
g11
(tRp321
g306
I1000
sg307
S'UNIFORM'
p322
sg313
I10
ssS'cache_placement'
p323
g11
(tRp324
S'network_cache'
p325
F0.40000000000000002
sS'uCache_budget'
p326
F400
sg307
S'UNIFORM_WITH_UCACHE'
p327
sS'nCache_budget'
p328
F0
ssS'desc'
p329
S'strategy: C_LFR_UM, network cache: 0.4'
p330
sS'topology'
p331
g11
(tRp332
S'asn'
p333
I3257
sg307
S'ROCKET_FUEL_WITH_UCACHE'
p334
ssg11
(tRp335
S'OVERHEAD_DISTRIBUTION'
p336
g11
(tRp337
S'CV'
p338
g48
(g50
S'M\xb6o\xf3(\xbf\xe9?'
tRp339
ssS'LATENCY'
p340
g11
(tRp341
S'MEAN'
p342
F40.892844916124616
ssS'CACHE_HIT_RATIO'
p343
g11
(tRp344
g342
F0.12709590878604962
ssS'CACHING_EFFICIENCY'
p345
g11
(tRp346
g342
F0.13251748251748252
ssS'CACHE_EVICTION'
p347
g11
(tRp348
g342
g48
(g50
S'\x7f&\xfc\x99\xf0g4@'
tRp349
sstp350
a(g11
(tRp351
S'workload'
p352
g11
(tRp353
S'n_contents'
p354
I1000
sS'name'
p355
S'STATIONARY'
p356
sS'n_warmup'
p357
I100
sS'rate'
p358
F1
sS'n_measured'
p359
I300
sS'alpha'
p360
F1
sS'n_segments'
p361
I10
ssS'cache_policy'
p362
g11
(tRp363
g355
S'LRU'
p364
ssS'strategy'
p365
g11
(tRp366
g355
S'C_LFR_UM'
p367
ssS'content_placement'
p368
g11
(tRp369
g354
I1000
sg355
S'UNIFORM'
p370
sg361
I10
ssS'cache_placement'
p371
g11
(tRp372
S'network_cache'
p373
F0.5
sS'uCache_budget'
p374
F500
sg355
S'UNIFORM_WITH_UCACHE'
p375
sS'nCache_budget'
p376
F0
ssS'desc'
p377
S'strategy: C_LFR_UM, network cache: 0.5'
p378
sS'topology'
p379
g11
(tRp380
S'asn'
p381
I3257
sg355
S'ROCKET_FUEL_WITH_UCACHE'
p382
ssg11
(tRp383
S'OVERHEAD_DISTRIBUTION'
p384
g11
(tRp385
S'CV'
p386
g48
(g50
S'\x863\x97\x02\x00\x1d\xe9?'
tRp387
ssS'LATENCY'
p388
g11
(tRp389
S'MEAN'
p390
F37.18930041152263
ssS'CACHE_HIT_RATIO'
p391
g11
(tRp392
g390
F0.21742066171505739
ssS'CACHING_EFFICIENCY'
p393
g11
(tRp394
g390
F0.22439024390243903
ssS'CACHE_EVICTION'
p395
g11
(tRp396
g390
g48
(g50
S'XqBJ\x9ee4@'
tRp397
sstp398
a(g11
(tRp399
S'workload'
p400
g11
(tRp401
S'n_contents'
p402
I1000
sS'name'
p403
S'STATIONARY'
p404
sS'n_warmup'
p405
I100
sS'rate'
p406
F1
sS'n_measured'
p407
I300
sS'alpha'
p408
F1
sS'n_segments'
p409
I10
ssS'cache_policy'
p410
g11
(tRp411
g403
S'LRU'
p412
ssS'strategy'
p413
g11
(tRp414
g403
S'C_LFR_UM'
p415
ssS'content_placement'
p416
g11
(tRp417
g402
I1000
sg403
S'UNIFORM'
p418
sg409
I10
ssS'cache_placement'
p419
g11
(tRp420
S'network_cache'
p421
F0.59999999999999998
sS'uCache_budget'
p422
F600
sg403
S'UNIFORM_WITH_UCACHE'
p423
sS'nCache_budget'
p424
F0
ssS'desc'
p425
S'strategy: C_LFR_UM, network cache: 0.6'
p426
sS'topology'
p427
g11
(tRp428
S'asn'
p429
I3257
sg403
S'ROCKET_FUEL_WITH_UCACHE'
p430
ssg11
(tRp431
S'OVERHEAD_DISTRIBUTION'
p432
g11
(tRp433
S'CV'
p434
g48
(g50
S'\xe1\xae\x9c\xac%\xb6\xec?'
tRp435
ssS'LATENCY'
p436
g11
(tRp437
S'MEAN'
p438
F36.915637860082306
ssS'CACHE_HIT_RATIO'
p439
g11
(tRp440
g438
F0.23238482384823847
ssS'CACHING_EFFICIENCY'
p441
g11
(tRp442
g438
F0.23819444444444443
ssS'CACHE_EVICTION'
p443
g11
(tRp444
g438
g48
(g50
S'\xf1\xf0\xf0\xf0\xf0\xf02@'
tRp445
sstp446
a(g11
(tRp447
S'workload'
p448
g11
(tRp449
S'n_contents'
p450
I1000
sS'name'
p451
S'STATIONARY'
p452
sS'n_warmup'
p453
I100
sS'rate'
p454
F1
sS'n_measured'
p455
I300
sS'alpha'
p456
F1
sS'n_segments'
p457
I10
ssS'cache_policy'
p458
g11
(tRp459
g451
S'LRU'
p460
ssS'strategy'
p461
g11
(tRp462
g451
S'C_LFR_UM'
p463
ssS'content_placement'
p464
g11
(tRp465
g450
I1000
sg451
S'UNIFORM'
p466
sg457
I10
ssS'cache_placement'
p467
g11
(tRp468
S'network_cache'
p469
F0.80000000000000004
sS'uCache_budget'
p470
F800
sg451
S'UNIFORM_WITH_UCACHE'
p471
sS'nCache_budget'
p472
F0
ssS'desc'
p473
S'strategy: C_LFR_UM, network cache: 0.8'
p474
sS'topology'
p475
g11
(tRp476
S'asn'
p477
I3257
sg451
S'ROCKET_FUEL_WITH_UCACHE'
p478
ssg11
(tRp479
S'OVERHEAD_DISTRIBUTION'
p480
g11
(tRp481
S'CV'
p482
g48
(g50
S'\xa5]4\xe8\\:\xf0?'
tRp483
ssS'LATENCY'
p484
g11
(tRp485
S'MEAN'
p486
F32.552664188351919
ssS'CACHE_HIT_RATIO'
p487
g11
(tRp488
g486
F0.37950332284015392
ssS'CACHING_EFFICIENCY'
p489
g11
(tRp490
g486
F0.3888888888888889
ssS'CACHE_EVICTION'
p491
g11
(tRp492
g486
g48
(g50
S'\xb7m\xdb\xb6m[1@'
tRp493
sstp494
a(g11
(tRp495
S'workload'
p496
g11
(tRp497
S'n_contents'
p498
I1000
sS'name'
p499
S'STATIONARY'
p500
sS'n_warmup'
p501
I100
sS'rate'
p502
F1
sS'n_measured'
p503
I300
sS'alpha'
p504
F1
sS'n_segments'
p505
I10
ssS'cache_policy'
p506
g11
(tRp507
g499
S'LRU'
p508
ssS'strategy'
p509
g11
(tRp510
g499
S'C_LFR_UM'
p511
ssS'content_placement'
p512
g11
(tRp513
g498
I1000
sg499
S'UNIFORM'
p514
sg505
I10
ssS'cache_placement'
p515
g11
(tRp516
S'network_cache'
p517
F1
sS'uCache_budget'
p518
F1000
sg499
S'UNIFORM_WITH_UCACHE'
p519
sS'nCache_budget'
p520
F0
ssS'desc'
p521
S'strategy: C_LFR_UM, network cache: 1.0'
p522
sS'topology'
p523
g11
(tRp524
S'asn'
p525
I3257
sg499
S'ROCKET_FUEL_WITH_UCACHE'
p526
ssg11
(tRp527
S'OVERHEAD_DISTRIBUTION'
p528
g11
(tRp529
S'CV'
p530
g48
(g50
S'\xd44\x87\x92\xf8\xd7\xe7?'
tRp531
ssS'LATENCY'
p532
g11
(tRp533
S'MEAN'
p534
F30.849183147033536
ssS'CACHE_HIT_RATIO'
p535
g11
(tRp536
g534
F0.40102564102564103
ssS'CACHING_EFFICIENCY'
p537
g11
(tRp538
g534
F0.40588235294117647
ssS'CACHE_EVICTION'
p539
g11
(tRp540
g534
g48
(g50
S'\xd0\x84?\x13\xfeL2@'
tRp541
sstp542
a(g11
(tRp543
S'workload'
p544
g11
(tRp545
S'n_contents'
p546
I1000
sS'name'
p547
S'STATIONARY'
p548
sS'n_warmup'
p549
I100
sS'rate'
p550
F1
sS'n_measured'
p551
I300
sS'alpha'
p552
F1
sS'n_segments'
p553
I10
ssS'cache_policy'
p554
g11
(tRp555
g547
S'LRU'
p556
ssS'strategy'
p557
g11
(tRp558
g547
S'C_LCF_UM'
p559
ssS'content_placement'
p560
g11
(tRp561
g546
I1000
sg547
S'UNIFORM'
p562
sg553
I10
ssS'cache_placement'
p563
g11
(tRp564
S'network_cache'
p565
F0.01
sS'uCache_budget'
p566
F10
sg547
S'UNIFORM_WITH_UCACHE'
p567
sS'nCache_budget'
p568
F0
ssS'desc'
p569
S'strategy: C_LCF_UM, network cache: 0.01'
p570
sS'topology'
p571
g11
(tRp572
S'asn'
p573
I3257
sg547
S'ROCKET_FUEL_WITH_UCACHE'
p574
ssg11
(tRp575
S'OVERHEAD_DISTRIBUTION'
p576
g11
(tRp577
S'CV'
p578
g48
(g50
S'\x06\xd7h\x98.\x10\xef?'
tRp579
ssS'LATENCY'
p580
g11
(tRp581
S'MEAN'
p582
F44.295138888888886
ssS'CACHE_HIT_RATIO'
p583
g11
(tRp584
g582
F0.051999999999999998
ssS'CACHING_EFFICIENCY'
p585
g11
(tRp586
g582
F0.056521739130434782
ssS'CACHE_EVICTION'
p587
g11
(tRp588
g582
g48
(g50
S'\xb5R+\xb5R\xab4@'
tRp589
sstp590
a(g11
(tRp591
S'workload'
p592
g11
(tRp593
S'n_contents'
p594
I1000
sS'name'
p595
S'STATIONARY'
p596
sS'n_warmup'
p597
I100
sS'rate'
p598
F1
sS'n_measured'
p599
I300
sS'alpha'
p600
F1
sS'n_segments'
p601
I10
ssS'cache_policy'
p602
g11
(tRp603
g595
S'LRU'
p604
ssS'strategy'
p605
g11
(tRp606
g595
S'C_LFR_UM'
p607
ssS'content_placement'
p608
g11
(tRp609
g594
I1000
sg595
S'UNIFORM'
p610
sg601
I10
ssS'cache_placement'
p611
g11
(tRp612
S'network_cache'
p613
F0.69999999999999996
sS'uCache_budget'
p614
F700
sg595
S'UNIFORM_WITH_UCACHE'
p615
sS'nCache_budget'
p616
F0
ssS'desc'
p617
S'strategy: C_LFR_UM, network cache: 0.7'
p618
sS'topology'
p619
g11
(tRp620
S'asn'
p621
I3257
sg595
S'ROCKET_FUEL_WITH_UCACHE'
p622
ssg11
(tRp623
S'OVERHEAD_DISTRIBUTION'
p624
g11
(tRp625
S'CV'
p626
g48
(g50
S'X\x0cr\x9eF\xbf\xeb?'
tRp627
ssS'LATENCY'
p628
g11
(tRp629
S'MEAN'
p630
F34.485685071574643
ssS'CACHE_HIT_RATIO'
p631
g11
(tRp632
g630
F0.26977687626774849
ssS'CACHING_EFFICIENCY'
p633
g11
(tRp634
g630
F0.27422680412371137
ssS'CACHE_EVICTION'
p635
g11
(tRp636
g630
g48
(g50
S'V\xc2\xd8,\xa8\xf62@'
tRp637
sstp638
a(g11
(tRp639
S'workload'
p640
g11
(tRp641
S'n_contents'
p642
I1000
sS'name'
p643
S'STATIONARY'
p644
sS'n_warmup'
p645
I100
sS'rate'
p646
F1
sS'n_measured'
p647
I300
sS'alpha'
p648
F1
sS'n_segments'
p649
I10
ssS'cache_policy'
p650
g11
(tRp651
g643
S'LRU'
p652
ssS'strategy'
p653
g11
(tRp654
g643
S'C_LCF_UM'
p655
ssS'content_placement'
p656
g11
(tRp657
g642
I1000
sg643
S'UNIFORM'
p658
sg649
I10
ssS'cache_placement'
p659
g11
(tRp660
S'network_cache'
p661
F0.050000000000000003
sS'uCache_budget'
p662
F50
sg643
S'UNIFORM_WITH_UCACHE'
p663
sS'nCache_budget'
p664
F0
ssS'desc'
p665
S'strategy: C_LCF_UM, network cache: 0.05'
p666
sS'topology'
p667
g11
(tRp668
S'asn'
p669
I3257
sg643
S'ROCKET_FUEL_WITH_UCACHE'
p670
ssg11
(tRp671
S'OVERHEAD_DISTRIBUTION'
p672
g11
(tRp673
S'CV'
p674
g48
(g50
S'\xd5\x08\xcb=\x8d\xb0\xec?'
tRp675
ssS'LATENCY'
p676
g11
(tRp677
S'MEAN'
p678
F43.267008547008544
ssS'CACHE_HIT_RATIO'
p679
g11
(tRp680
g678
F0.058000000000000003
ssS'CACHING_EFFICIENCY'
p681
g11
(tRp682
g678
F0.061052631578947365
ssS'CACHE_EVICTION'
p683
g11
(tRp684
g678
g48
(g50
S'\x00\x00\x00\x00\x00\xbc5@'
tRp685
sstp686
a(g11
(tRp687
S'workload'
p688
g11
(tRp689
S'n_contents'
p690
I1000
sS'name'
p691
S'STATIONARY'
p692
sS'n_warmup'
p693
I100
sS'rate'
p694
F1
sS'n_measured'
p695
I300
sS'alpha'
p696
F1
sS'n_segments'
p697
I10
ssS'cache_policy'
p698
g11
(tRp699
g691
S'LRU'
p700
ssS'strategy'
p701
g11
(tRp702
g691
S'C_LFR_UM'
p703
ssS'content_placement'
p704
g11
(tRp705
g690
I1000
sg691
S'UNIFORM'
p706
sg697
I10
ssS'cache_placement'
p707
g11
(tRp708
S'network_cache'
p709
F0.90000000000000002
sS'uCache_budget'
p710
F900
sg691
S'UNIFORM_WITH_UCACHE'
p711
sS'nCache_budget'
p712
F0
ssS'desc'
p713
S'strategy: C_LFR_UM, network cache: 0.9'
p714
sS'topology'
p715
g11
(tRp716
S'asn'
p717
I3257
sg691
S'ROCKET_FUEL_WITH_UCACHE'
p718
ssg11
(tRp719
S'OVERHEAD_DISTRIBUTION'
p720
g11
(tRp721
S'CV'
p722
g48
(g50
S'\xb6\x02\x9b\x1f\x07 \xe4?'
tRp723
ssS'LATENCY'
p724
g11
(tRp725
S'MEAN'
p726
F32.964738103389251
ssS'CACHE_HIT_RATIO'
p727
g11
(tRp728
g726
F0.32630863358259687
ssS'CACHING_EFFICIENCY'
p729
g11
(tRp730
g726
F0.33103448275862069
ssS'CACHE_EVICTION'
p731
g11
(tRp732
g726
g48
(g50
S'UUUUUU1@'
tRp733
sstp734
a(g11
(tRp735
S'workload'
p736
g11
(tRp737
S'n_contents'
p738
I1000
sS'name'
p739
S'STATIONARY'
p740
sS'n_warmup'
p741
I100
sS'rate'
p742
F1
sS'n_measured'
p743
I300
sS'alpha'
p744
F1
sS'n_segments'
p745
I10
ssS'cache_policy'
p746
g11
(tRp747
g739
S'LRU'
p748
ssS'strategy'
p749
g11
(tRp750
g739
S'C_LCF_UM'
p751
ssS'content_placement'
p752
g11
(tRp753
g738
I1000
sg739
S'UNIFORM'
p754
sg745
I10
ssS'cache_placement'
p755
g11
(tRp756
S'network_cache'
p757
F0.001
sS'uCache_budget'
p758
F1
sg739
S'UNIFORM_WITH_UCACHE'
p759
sS'nCache_budget'
p760
F0
ssS'desc'
p761
S'strategy: C_LCF_UM, network cache: 0.001'
p762
sS'topology'
p763
g11
(tRp764
S'asn'
p765
I3257
sg739
S'ROCKET_FUEL_WITH_UCACHE'
p766
ssg11
(tRp767
S'OVERHEAD_DISTRIBUTION'
p768
g11
(tRp769
S'CV'
p770
g48
(g50
S'J)+\x9e\xff\x07\xe8?'
tRp771
ssS'LATENCY'
p772
g11
(tRp773
S'MEAN'
p774
F43.761224489795921
ssS'CACHE_HIT_RATIO'
p775
g11
(tRp776
g774
F0.054333333333333331
ssS'CACHING_EFFICIENCY'
p777
g11
(tRp778
g774
F0.056597222222222222
ssS'CACHE_EVICTION'
p779
g11
(tRp780
g774
g48
(g50
S'\x00\x00\x00\x00\x00\xa04@'
tRp781
sstp782
a(g11
(tRp783
S'workload'
p784
g11
(tRp785
S'n_contents'
p786
I1000
sS'name'
p787
S'STATIONARY'
p788
sS'n_warmup'
p789
I100
sS'rate'
p790
F1
sS'n_measured'
p791
I300
sS'alpha'
p792
F1
sS'n_segments'
p793
I10
ssS'cache_policy'
p794
g11
(tRp795
g787
S'LRU'
p796
ssS'strategy'
p797
g11
(tRp798
g787
S'C_LCF_UM'
p799
ssS'content_placement'
p800
g11
(tRp801
g786
I1000
sg787
S'UNIFORM'
p802
sg793
I10
ssS'cache_placement'
p803
g11
(tRp804
S'network_cache'
p805
F0.10000000000000001
sS'uCache_budget'
p806
F100
sg787
S'UNIFORM_WITH_UCACHE'
p807
sS'nCache_budget'
p808
F0
ssS'desc'
p809
S'strategy: C_LCF_UM, network cache: 0.1'
p810
sS'topology'
p811
g11
(tRp812
S'asn'
p813
I3257
sg787
S'ROCKET_FUEL_WITH_UCACHE'
p814
ssg11
(tRp815
S'OVERHEAD_DISTRIBUTION'
p816
g11
(tRp817
S'CV'
p818
g48
(g50
S'\xed\x187=\xb43\xe9?'
tRp819
ssS'LATENCY'
p820
g11
(tRp821
S'MEAN'
p822
F43.875085324232082
ssS'CACHE_HIT_RATIO'
p823
g11
(tRp824
g822
F0.052666666666666667
ssS'CACHING_EFFICIENCY'
p825
g11
(tRp826
g822
F0.055244755244755243
ssS'CACHE_EVICTION'
p827
g11
(tRp828
g822
g48
(g50
S'\xe7\xca\x03\x92u\xae4@'
tRp829
sstp830
a(g11
(tRp831
S'workload'
p832
g11
(tRp833
S'n_contents'
p834
I1000
sS'name'
p835
S'STATIONARY'
p836
sS'n_warmup'
p837
I100
sS'rate'
p838
F1
sS'n_measured'
p839
I300
sS'alpha'
p840
F1
sS'n_segments'
p841
I10
ssS'cache_policy'
p842
g11
(tRp843
g835
S'LRU'
p844
ssS'strategy'
p845
g11
(tRp846
g835
S'C_LCF_UM'
p847
ssS'content_placement'
p848
g11
(tRp849
g834
I1000
sg835
S'UNIFORM'
p850
sg841
I10
ssS'cache_placement'
p851
g11
(tRp852
S'network_cache'
p853
F0.20000000000000001
sS'uCache_budget'
p854
F200
sg835
S'UNIFORM_WITH_UCACHE'
p855
sS'nCache_budget'
p856
F0
ssS'desc'
p857
S'strategy: C_LCF_UM, network cache: 0.2'
p858
sS'topology'
p859
g11
(tRp860
S'asn'
p861
I3257
sg835
S'ROCKET_FUEL_WITH_UCACHE'
p862
ssg11
(tRp863
S'OVERHEAD_DISTRIBUTION'
p864
g11
(tRp865
S'CV'
p866
g48
(g50
S'f\x07!p\x04V\xe7?'
tRp867
ssS'LATENCY'
p868
g11
(tRp869
S'MEAN'
p870
F44.16558773424191
ssS'CACHE_HIT_RATIO'
p871
g11
(tRp872
g870
F0.052666666666666667
ssS'CACHING_EFFICIENCY'
p873
g11
(tRp874
g870
F0.055052264808362367
ssS'CACHE_EVICTION'
p875
g11
(tRp876
g870
g48
(g50
S'\xee\x88;\xe2\x8e\xb85@'
tRp877
sstp878
a(g11
(tRp879
S'workload'
p880
g11
(tRp881
S'n_contents'
p882
I1000
sS'name'
p883
S'STATIONARY'
p884
sS'n_warmup'
p885
I100
sS'rate'
p886
F1
sS'n_measured'
p887
I300
sS'alpha'
p888
F1
sS'n_segments'
p889
I10
ssS'cache_policy'
p890
g11
(tRp891
g883
S'LRU'
p892
ssS'strategy'
p893
g11
(tRp894
g883
S'C_LCF_UM'
p895
ssS'content_placement'
p896
g11
(tRp897
g882
I1000
sg883
S'UNIFORM'
p898
sg889
I10
ssS'cache_placement'
p899
g11
(tRp900
S'network_cache'
p901
F0.5
sS'uCache_budget'
p902
F500
sg883
S'UNIFORM_WITH_UCACHE'
p903
sS'nCache_budget'
p904
F0
ssS'desc'
p905
S'strategy: C_LCF_UM, network cache: 0.5'
p906
sS'topology'
p907
g11
(tRp908
S'asn'
p909
I3257
sg883
S'ROCKET_FUEL_WITH_UCACHE'
p910
ssg11
(tRp911
S'OVERHEAD_DISTRIBUTION'
p912
g11
(tRp913
S'CV'
p914
g48
(g50
S'\xd1l\x00\tp\xab\xf0?'
tRp915
ssS'LATENCY'
p916
g11
(tRp917
S'MEAN'
p918
F40.344534962661236
ssS'CACHE_HIT_RATIO'
p919
g11
(tRp920
g918
F0.14989939637826963
ssS'CACHING_EFFICIENCY'
p921
g11
(tRp922
g918
F0.15360824742268042
ssS'CACHE_EVICTION'
p923
g11
(tRp924
g918
g48
(g50
S'\xd9\xce\xf7S\xe3\xa55@'
tRp925
sstp926
a(g11
(tRp927
S'workload'
p928
g11
(tRp929
S'n_contents'
p930
I1000
sS'name'
p931
S'STATIONARY'
p932
sS'n_warmup'
p933
I100
sS'rate'
p934
F1
sS'n_measured'
p935
I300
sS'alpha'
p936
F1
sS'n_segments'
p937
I10
ssS'cache_policy'
p938
g11
(tRp939
g931
S'LRU'
p940
ssS'strategy'
p941
g11
(tRp942
g931
S'C_LCF_UM'
p943
ssS'content_placement'
p944
g11
(tRp945
g930
I1000
sg931
S'UNIFORM'
p946
sg937
I10
ssS'cache_placement'
p947
g11
(tRp948
S'network_cache'
p949
F0.29999999999999999
sS'uCache_budget'
p950
F300
sg931
S'UNIFORM_WITH_UCACHE'
p951
sS'nCache_budget'
p952
F0
ssS'desc'
p953
S'strategy: C_LCF_UM, network cache: 0.3'
p954
sS'topology'
p955
g11
(tRp956
S'asn'
p957
I3257
sg931
S'ROCKET_FUEL_WITH_UCACHE'
p958
ssg11
(tRp959
S'OVERHEAD_DISTRIBUTION'
p960
g11
(tRp961
S'CV'
p962
g48
(g50
S'\xec\xbf]`\xcc\xa9\xea?'
tRp963
ssS'LATENCY'
p964
g11
(tRp965
S'MEAN'
p966
F41.631239388794569
ssS'CACHE_HIT_RATIO'
p967
g11
(tRp968
g966
F0.10100334448160535
ssS'CACHING_EFFICIENCY'
p969
g11
(tRp970
g966
F0.10413793103448275
ssS'CACHE_EVICTION'
p971
g11
(tRp972
g966
g48
(g50
S'r#7r#75@'
tRp973
sstp974
a(g11
(tRp975
S'workload'
p976
g11
(tRp977
S'n_contents'
p978
I1000
sS'name'
p979
S'STATIONARY'
p980
sS'n_warmup'
p981
I100
sS'rate'
p982
F1
sS'n_measured'
p983
I300
sS'alpha'
p984
F1
sS'n_segments'
p985
I10
ssS'cache_policy'
p986
g11
(tRp987
g979
S'LRU'
p988
ssS'strategy'
p989
g11
(tRp990
g979
S'C_LCF_UM'
p991
ssS'content_placement'
p992
g11
(tRp993
g978
I1000
sg979
S'UNIFORM'
p994
sg985
I10
ssS'cache_placement'
p995
g11
(tRp996
S'network_cache'
p997
F0.69999999999999996
sS'uCache_budget'
p998
F700
sg979
S'UNIFORM_WITH_UCACHE'
p999
sS'nCache_budget'
p1000
F0
ssS'desc'
p1001
S'strategy: C_LCF_UM, network cache: 0.7'
p1002
sS'topology'
p1003
g11
(tRp1004
S'asn'
p1005
I3257
sg979
S'ROCKET_FUEL_WITH_UCACHE'
p1006
ssg11
(tRp1007
S'OVERHEAD_DISTRIBUTION'
p1008
g11
(tRp1009
S'CV'
p1010
g48
(g50
S'\x1e\xd4]M\xcc\x9e\xe6?'
tRp1011
ssS'LATENCY'
p1012
g11
(tRp1013
S'MEAN'
p1014
F39.499912694255279
ssS'CACHE_HIT_RATIO'
p1015
g11
(tRp1016
g1014
F0.18964930200885258
ssS'CACHING_EFFICIENCY'
p1017
g11
(tRp1018
g1014
F0.19964157706093191
ssS'CACHE_EVICTION'
p1019
g11
(tRp1020
g1014
g48
(g50
S'n\xe4Fn\xe4F3@'
tRp1021
sstp1022
a(g11
(tRp1023
S'workload'
p1024
g11
(tRp1025
S'n_contents'
p1026
I1000
sS'name'
p1027
S'STATIONARY'
p1028
sS'n_warmup'
p1029
I100
sS'rate'
p1030
F1
sS'n_measured'
p1031
I300
sS'alpha'
p1032
F1
sS'n_segments'
p1033
I10
ssS'cache_policy'
p1034
g11
(tRp1035
g1027
S'LRU'
p1036
ssS'strategy'
p1037
g11
(tRp1038
g1027
S'C_LCF_UM'
p1039
ssS'content_placement'
p1040
g11
(tRp1041
g1026
I1000
sg1027
S'UNIFORM'
p1042
sg1033
I10
ssS'cache_placement'
p1043
g11
(tRp1044
S'network_cache'
p1045
F0.80000000000000004
sS'uCache_budget'
p1046
F800
sg1027
S'UNIFORM_WITH_UCACHE'
p1047
sS'nCache_budget'
p1048
F0
ssS'desc'
p1049
S'strategy: C_LCF_UM, network cache: 0.8'
p1050
sS'topology'
p1051
g11
(tRp1052
S'asn'
p1053
I3257
sg1027
S'ROCKET_FUEL_WITH_UCACHE'
p1054
ssg11
(tRp1055
S'OVERHEAD_DISTRIBUTION'
p1056
g11
(tRp1057
S'CV'
p1058
g48
(g50
S'\xfb,\xc0\x04Y\x13\xee?'
tRp1059
ssS'LATENCY'
p1060
g11
(tRp1061
S'MEAN'
p1062
F37.431447414092332
ssS'CACHE_HIT_RATIO'
p1063
g11
(tRp1064
g1062
F0.24283765347885403
ssS'CACHING_EFFICIENCY'
p1065
g11
(tRp1066
g1062
F0.25159010600706716
ssS'CACHE_EVICTION'
p1067
g11
(tRp1068
g1062
g48
(g50
S'\xd8\xeb\xf5z\xbd^3@'
tRp1069
sstp1070
a(g11
(tRp1071
S'workload'
p1072
g11
(tRp1073
S'n_contents'
p1074
I1000
sS'name'
p1075
S'STATIONARY'
p1076
sS'n_warmup'
p1077
I100
sS'rate'
p1078
F1
sS'n_measured'
p1079
I300
sS'alpha'
p1080
F1
sS'n_segments'
p1081
I10
ssS'cache_policy'
p1082
g11
(tRp1083
g1075
S'LRU'
p1084
ssS'strategy'
p1085
g11
(tRp1086
g1075
S'C_LCF_UM'
p1087
ssS'content_placement'
p1088
g11
(tRp1089
g1074
I1000
sg1075
S'UNIFORM'
p1090
sg1081
I10
ssS'cache_placement'
p1091
g11
(tRp1092
S'network_cache'
p1093
F0.59999999999999998
sS'uCache_budget'
p1094
F600
sg1075
S'UNIFORM_WITH_UCACHE'
p1095
sS'nCache_budget'
p1096
F0
ssS'desc'
p1097
S'strategy: C_LCF_UM, network cache: 0.6'
p1098
sS'topology'
p1099
g11
(tRp1100
S'asn'
p1101
I3257
sg1075
S'ROCKET_FUEL_WITH_UCACHE'
p1102
ssg11
(tRp1103
S'OVERHEAD_DISTRIBUTION'
p1104
g11
(tRp1105
S'CV'
p1106
g48
(g50
S'\xcd\xf5e\x85\x11\xa4\xe7?'
tRp1107
ssS'LATENCY'
p1108
g11
(tRp1109
S'MEAN'
p1110
F39.525469622609577
ssS'CACHE_HIT_RATIO'
p1111
g11
(tRp1112
g1110
F0.2091305807317892
ssS'CACHING_EFFICIENCY'
p1113
g11
(tRp1114
g1110
F0.21262798634812285
ssS'CACHE_EVICTION'
p1115
g11
(tRp1116
g1110
g48
(g50
S'\xd4A\x1d\xd4A\x9d2@'
tRp1117
sstp1118
a(g11
(tRp1119
S'workload'
p1120
g11
(tRp1121
S'n_contents'
p1122
I1000
sS'name'
p1123
S'STATIONARY'
p1124
sS'n_warmup'
p1125
I100
sS'rate'
p1126
F1
sS'n_measured'
p1127
I300
sS'alpha'
p1128
F1
sS'n_segments'
p1129
I10
ssS'cache_policy'
p1130
g11
(tRp1131
g1123
S'LRU'
p1132
ssS'strategy'
p1133
g11
(tRp1134
g1123
S'C_LCF_UM'
p1135
ssS'content_placement'
p1136
g11
(tRp1137
g1122
I1000
sg1123
S'UNIFORM'
p1138
sg1129
I10
ssS'cache_placement'
p1139
g11
(tRp1140
S'network_cache'
p1141
F0.90000000000000002
sS'uCache_budget'
p1142
F900
sg1123
S'UNIFORM_WITH_UCACHE'
p1143
sS'nCache_budget'
p1144
F0
ssS'desc'
p1145
S'strategy: C_LCF_UM, network cache: 0.9'
p1146
sS'topology'
p1147
g11
(tRp1148
S'asn'
p1149
I3257
sg1123
S'ROCKET_FUEL_WITH_UCACHE'
p1150
ssg11
(tRp1151
S'OVERHEAD_DISTRIBUTION'
p1152
g11
(tRp1153
S'CV'
p1154
g48
(g50
S'O\x8f\xd5\xc7\xaeF\xe7?'
tRp1155
ssS'LATENCY'
p1156
g11
(tRp1157
S'MEAN'
p1158
F35.076288659793818
ssS'CACHE_HIT_RATIO'
p1159
g11
(tRp1160
g1158
F0.29591836734693877
ssS'CACHING_EFFICIENCY'
p1161
g11
(tRp1162
g1158
F0.30208333333333331
ssS'CACHE_EVICTION'
p1163
g11
(tRp1164
g1158
g48
(g50
S'G\xdc\x11w\xc4\x1d3@'
tRp1165
sstp1166
a(g11
(tRp1167
S'workload'
p1168
g11
(tRp1169
S'n_contents'
p1170
I1000
sS'name'
p1171
S'STATIONARY'
p1172
sS'n_warmup'
p1173
I100
sS'rate'
p1174
F1
sS'n_measured'
p1175
I300
sS'alpha'
p1176
F1
sS'n_segments'
p1177
I10
ssS'cache_policy'
p1178
g11
(tRp1179
g1171
S'LRU'
p1180
ssS'strategy'
p1181
g11
(tRp1182
g1171
S'C_RANDOM_UM'
p1183
ssS'content_placement'
p1184
g11
(tRp1185
g1170
I1000
sg1171
S'UNIFORM'
p1186
sg1177
I10
ssS'cache_placement'
p1187
g11
(tRp1188
S'network_cache'
p1189
F0.001
sS'uCache_budget'
p1190
F1
sg1171
S'UNIFORM_WITH_UCACHE'
p1191
sS'nCache_budget'
p1192
F0
ssS'desc'
p1193
S'strategy: C_RANDOM_UM, network cache: 0.001'
p1194
sS'topology'
p1195
g11
(tRp1196
S'asn'
p1197
I3257
sg1171
S'ROCKET_FUEL_WITH_UCACHE'
p1198
ssg11
(tRp1199
S'OVERHEAD_DISTRIBUTION'
p1200
g11
(tRp1201
S'CV'
p1202
g48
(g50
S'[\\\xd3\xc7\x06\xca\xe9?'
tRp1203
ssS'LATENCY'
p1204
g11
(tRp1205
S'MEAN'
p1206
F41.678571428571431
ssS'CACHE_HIT_RATIO'
p1207
g11
(tRp1208
g1206
F0.10000000000000001
ssS'CACHING_EFFICIENCY'
p1209
g11
(tRp1210
g1206
F0.10136986301369863
ssS'CACHE_EVICTION'
p1211
g11
(tRp1212
g1206
g48
(g50
S'\x00\x00\x00\x00\x00\xc03@'
tRp1213
sstp1214
a(g11
(tRp1215
S'workload'
p1216
g11
(tRp1217
S'n_contents'
p1218
I1000
sS'name'
p1219
S'STATIONARY'
p1220
sS'n_warmup'
p1221
I100
sS'rate'
p1222
F1
sS'n_measured'
p1223
I300
sS'alpha'
p1224
F1
sS'n_segments'
p1225
I10
ssS'cache_policy'
p1226
g11
(tRp1227
g1219
S'LRU'
p1228
ssS'strategy'
p1229
g11
(tRp1230
g1219
S'C_LCF_UM'
p1231
ssS'content_placement'
p1232
g11
(tRp1233
g1218
I1000
sg1219
S'UNIFORM'
p1234
sg1225
I10
ssS'cache_placement'
p1235
g11
(tRp1236
S'network_cache'
p1237
F1
sS'uCache_budget'
p1238
F1000
sg1219
S'UNIFORM_WITH_UCACHE'
p1239
sS'nCache_budget'
p1240
F0
ssS'desc'
p1241
S'strategy: C_LCF_UM, network cache: 1.0'
p1242
sS'topology'
p1243
g11
(tRp1244
S'asn'
p1245
I3257
sg1219
S'ROCKET_FUEL_WITH_UCACHE'
p1246
ssg11
(tRp1247
S'OVERHEAD_DISTRIBUTION'
p1248
g11
(tRp1249
S'CV'
p1250
g48
(g50
S'r\xec\xd4\xa2P\xb0\xe6?'
tRp1251
ssS'LATENCY'
p1252
g11
(tRp1253
S'MEAN'
p1254
F36.05360824742268
ssS'CACHE_HIT_RATIO'
p1255
g11
(tRp1256
g1254
F0.28775510204081634
ssS'CACHING_EFFICIENCY'
p1257
g11
(tRp1258
g1254
F0.29375000000000001
ssS'CACHE_EVICTION'
p1259
g11
(tRp1260
g1254
g48
(g50
S'\xf9\x8a\xaf\xf8\x8a/1@'
tRp1261
sstp1262
a(g11
(tRp1263
S'workload'
p1264
g11
(tRp1265
S'n_contents'
p1266
I1000
sS'name'
p1267
S'STATIONARY'
p1268
sS'n_warmup'
p1269
I100
sS'rate'
p1270
F1
sS'n_measured'
p1271
I300
sS'alpha'
p1272
F1
sS'n_segments'
p1273
I10
ssS'cache_policy'
p1274
g11
(tRp1275
g1267
S'LRU'
p1276
ssS'strategy'
p1277
g11
(tRp1278
g1267
S'C_RANDOM_UM'
p1279
ssS'content_placement'
p1280
g11
(tRp1281
g1266
I1000
sg1267
S'UNIFORM'
p1282
sg1273
I10
ssS'cache_placement'
p1283
g11
(tRp1284
S'network_cache'
p1285
F0.01
sS'uCache_budget'
p1286
F10
sg1267
S'UNIFORM_WITH_UCACHE'
p1287
sS'nCache_budget'
p1288
F0
ssS'desc'
p1289
S'strategy: C_RANDOM_UM, network cache: 0.01'
p1290
sS'topology'
p1291
g11
(tRp1292
S'asn'
p1293
I3257
sg1267
S'ROCKET_FUEL_WITH_UCACHE'
p1294
ssg11
(tRp1295
S'OVERHEAD_DISTRIBUTION'
p1296
g11
(tRp1297
S'CV'
p1298
g48
(g50
S"T\xf9?\x1f+'\xf1?"
tRp1299
ssS'LATENCY'
p1300
g11
(tRp1301
S'MEAN'
p1302
F39.336943231441047
ssS'CACHE_HIT_RATIO'
p1303
g11
(tRp1304
g1302
F0.15231560891938251
ssS'CACHING_EFFICIENCY'
p1305
g11
(tRp1306
g1302
F0.15800711743772242
ssS'CACHE_EVICTION'
p1307
g11
(tRp1308
g1302
g48
(g50
S'\xe2p8\x1c\x0e\x875@'
tRp1309
sstp1310
a(g11
(tRp1311
S'workload'
p1312
g11
(tRp1313
S'n_contents'
p1314
I1000
sS'name'
p1315
S'STATIONARY'
p1316
sS'n_warmup'
p1317
I100
sS'rate'
p1318
F1
sS'n_measured'
p1319
I300
sS'alpha'
p1320
F1
sS'n_segments'
p1321
I10
ssS'cache_policy'
p1322
g11
(tRp1323
g1315
S'LRU'
p1324
ssS'strategy'
p1325
g11
(tRp1326
g1315
S'C_RANDOM_UM'
p1327
ssS'content_placement'
p1328
g11
(tRp1329
g1314
I1000
sg1315
S'UNIFORM'
p1330
sg1321
I10
ssS'cache_placement'
p1331
g11
(tRp1332
S'network_cache'
p1333
F0.050000000000000003
sS'uCache_budget'
p1334
F50
sg1315
S'UNIFORM_WITH_UCACHE'
p1335
sS'nCache_budget'
p1336
F0
ssS'desc'
p1337
S'strategy: C_RANDOM_UM, network cache: 0.05'
p1338
sS'topology'
p1339
g11
(tRp1340
S'asn'
p1341
I3257
sg1315
S'ROCKET_FUEL_WITH_UCACHE'
p1342
ssg11
(tRp1343
S'OVERHEAD_DISTRIBUTION'
p1344
g11
(tRp1345
S'CV'
p1346
g48
(g50
S'\xe9\x18\xf5ef\xd8\xef?'
tRp1347
ssS'LATENCY'
p1348
g11
(tRp1349
S'MEAN'
p1350
F39.986752658183718
ssS'CACHE_HIT_RATIO'
p1351
g11
(tRp1352
g1350
F0.17895097703119645
ssS'CACHING_EFFICIENCY'
p1353
g11
(tRp1354
g1350
F0.18510638297872339
ssS'CACHE_EVICTION'
p1355
g11
(tRp1356
g1350
g48
(g50
S'V\xc2\xd8,\xa8\xf63@'
tRp1357
sstp1358
a(g11
(tRp1359
S'workload'
p1360
g11
(tRp1361
S'n_contents'
p1362
I1000
sS'name'
p1363
S'STATIONARY'
p1364
sS'n_warmup'
p1365
I100
sS'rate'
p1366
F1
sS'n_measured'
p1367
I300
sS'alpha'
p1368
F1
sS'n_segments'
p1369
I10
ssS'cache_policy'
p1370
g11
(tRp1371
g1363
S'LRU'
p1372
ssS'strategy'
p1373
g11
(tRp1374
g1363
S'C_RANDOM_UM'
p1375
ssS'content_placement'
p1376
g11
(tRp1377
g1362
I1000
sg1363
S'UNIFORM'
p1378
sg1369
I10
ssS'cache_placement'
p1379
g11
(tRp1380
S'network_cache'
p1381
F0.29999999999999999
sS'uCache_budget'
p1382
F300
sg1363
S'UNIFORM_WITH_UCACHE'
p1383
sS'nCache_budget'
p1384
F0
ssS'desc'
p1385
S'strategy: C_RANDOM_UM, network cache: 0.3'
p1386
sS'topology'
p1387
g11
(tRp1388
S'asn'
p1389
I3257
sg1363
S'ROCKET_FUEL_WITH_UCACHE'
p1390
ssg11
(tRp1391
S'OVERHEAD_DISTRIBUTION'
p1392
g11
(tRp1393
S'CV'
p1394
g48
(g50
S'\xcc[\x15\x08\x1eY\xec?'
tRp1395
ssS'LATENCY'
p1396
g11
(tRp1397
S'MEAN'
p1398
F35.058967629046371
ssS'CACHE_HIT_RATIO'
p1399
g11
(tRp1400
g1398
F0.30606585788561524
ssS'CACHING_EFFICIENCY'
p1401
g11
(tRp1402
g1398
F0.31201413427561836
ssS'CACHE_EVICTION'
p1403
g11
(tRp1404
g1398
g48
(g50
S'\x00\x00\x00\x00\x00\x005@'
tRp1405
sstp1406
a(g11
(tRp1407
S'workload'
p1408
g11
(tRp1409
S'n_contents'
p1410
I1000
sS'name'
p1411
S'STATIONARY'
p1412
sS'n_warmup'
p1413
I100
sS'rate'
p1414
F1
sS'n_measured'
p1415
I300
sS'alpha'
p1416
F1
sS'n_segments'
p1417
I10
ssS'cache_policy'
p1418
g11
(tRp1419
g1411
S'LRU'
p1420
ssS'strategy'
p1421
g11
(tRp1422
g1411
S'C_RANDOM_UM'
p1423
ssS'content_placement'
p1424
g11
(tRp1425
g1410
I1000
sg1411
S'UNIFORM'
p1426
sg1417
I10
ssS'cache_placement'
p1427
g11
(tRp1428
S'network_cache'
p1429
F0.20000000000000001
sS'uCache_budget'
p1430
F200
sg1411
S'UNIFORM_WITH_UCACHE'
p1431
sS'nCache_budget'
p1432
F0
ssS'desc'
p1433
S'strategy: C_RANDOM_UM, network cache: 0.2'
p1434
sS'topology'
p1435
g11
(tRp1436
S'asn'
p1437
I3257
sg1411
S'ROCKET_FUEL_WITH_UCACHE'
p1438
ssg11
(tRp1439
S'OVERHEAD_DISTRIBUTION'
p1440
g11
(tRp1441
S'CV'
p1442
g48
(g50
S'\xd4*\xa8\x16\x90\x80\xef?'
tRp1443
ssS'LATENCY'
p1444
g11
(tRp1445
S'MEAN'
p1446
F40.76068812808721
ssS'CACHE_HIT_RATIO'
p1447
g11
(tRp1448
g1446
F0.14353259034110097
ssS'CACHING_EFFICIENCY'
p1449
g11
(tRp1450
g1446
F0.14604810996563575
ssS'CACHE_EVICTION'
p1451
g11
(tRp1452
g1446
g48
(g50
S'\x81\xea\xd8[\x1b\xa65@'
tRp1453
sstp1454
a(g11
(tRp1455
S'workload'
p1456
g11
(tRp1457
S'n_contents'
p1458
I1000
sS'name'
p1459
S'STATIONARY'
p1460
sS'n_warmup'
p1461
I100
sS'rate'
p1462
F1
sS'n_measured'
p1463
I300
sS'alpha'
p1464
F1
sS'n_segments'
p1465
I10
ssS'cache_policy'
p1466
g11
(tRp1467
g1459
S'LRU'
p1468
ssS'strategy'
p1469
g11
(tRp1470
g1459
S'C_RANDOM_UM'
p1471
ssS'content_placement'
p1472
g11
(tRp1473
g1458
I1000
sg1459
S'UNIFORM'
p1474
sg1465
I10
ssS'cache_placement'
p1475
g11
(tRp1476
S'network_cache'
p1477
F0.10000000000000001
sS'uCache_budget'
p1478
F100
sg1459
S'UNIFORM_WITH_UCACHE'
p1479
sS'nCache_budget'
p1480
F0
ssS'desc'
p1481
S'strategy: C_RANDOM_UM, network cache: 0.1'
p1482
sS'topology'
p1483
g11
(tRp1484
S'asn'
p1485
I3257
sg1459
S'ROCKET_FUEL_WITH_UCACHE'
p1486
ssg11
(tRp1487
S'OVERHEAD_DISTRIBUTION'
p1488
g11
(tRp1489
S'CV'
p1490
g48
(g50
S'`\xea\x88Zg3\xea?'
tRp1491
ssS'LATENCY'
p1492
g11
(tRp1493
S'MEAN'
p1494
F41.577626764244641
ssS'CACHE_HIT_RATIO'
p1495
g11
(tRp1496
g1494
F0.16088002750085939
ssS'CACHING_EFFICIENCY'
p1497
g11
(tRp1498
g1494
F0.16537102473498233
ssS'CACHE_EVICTION'
p1499
g11
(tRp1500
g1494
g48
(g50
S'\xfe6\xc5\xa8\xe1o4@'
tRp1501
sstp1502
a(g11
(tRp1503
S'workload'
p1504
g11
(tRp1505
S'n_contents'
p1506
I1000
sS'name'
p1507
S'STATIONARY'
p1508
sS'n_warmup'
p1509
I100
sS'rate'
p1510
F1
sS'n_measured'
p1511
I300
sS'alpha'
p1512
F1
sS'n_segments'
p1513
I10
ssS'cache_policy'
p1514
g11
(tRp1515
g1507
S'LRU'
p1516
ssS'strategy'
p1517
g11
(tRp1518
g1507
S'C_RANDOM_UM'
p1519
ssS'content_placement'
p1520
g11
(tRp1521
g1506
I1000
sg1507
S'UNIFORM'
p1522
sg1513
I10
ssS'cache_placement'
p1523
g11
(tRp1524
S'network_cache'
p1525
F0.40000000000000002
sS'uCache_budget'
p1526
F400
sg1507
S'UNIFORM_WITH_UCACHE'
p1527
sS'nCache_budget'
p1528
F0
ssS'desc'
p1529
S'strategy: C_RANDOM_UM, network cache: 0.4'
p1530
sS'topology'
p1531
g11
(tRp1532
S'asn'
p1533
I3257
sg1507
S'ROCKET_FUEL_WITH_UCACHE'
p1534
ssg11
(tRp1535
S'OVERHEAD_DISTRIBUTION'
p1536
g11
(tRp1537
S'CV'
p1538
g48
(g50
S'\xd8\xa2`%\x0c\xb0\xea?'
tRp1539
ssS'LATENCY'
p1540
g11
(tRp1541
S'MEAN'
p1542
F35.077802807139143
ssS'CACHE_HIT_RATIO'
p1543
g11
(tRp1544
g1542
F0.27859841978701477
ssS'CACHING_EFFICIENCY'
p1545
g11
(tRp1546
g1542
F0.28356643356643357
ssS'CACHE_EVICTION'
p1547
g11
(tRp1548
g1542
g48
(g50
S'\xe5\x01\xc9:W\x1e4@'
tRp1549
sstp1550
a(g11
(tRp1551
S'workload'
p1552
g11
(tRp1553
S'n_contents'
p1554
I1000
sS'name'
p1555
S'STATIONARY'
p1556
sS'n_warmup'
p1557
I100
sS'rate'
p1558
F1
sS'n_measured'
p1559
I300
sS'alpha'
p1560
F1
sS'n_segments'
p1561
I10
ssS'cache_policy'
p1562
g11
(tRp1563
g1555
S'LRU'
p1564
ssS'strategy'
p1565
g11
(tRp1566
g1555
S'C_RANDOM_UM'
p1567
ssS'content_placement'
p1568
g11
(tRp1569
g1554
I1000
sg1555
S'UNIFORM'
p1570
sg1561
I10
ssS'cache_placement'
p1571
g11
(tRp1572
S'network_cache'
p1573
F0.5
sS'uCache_budget'
p1574
F500
sg1555
S'UNIFORM_WITH_UCACHE'
p1575
sS'nCache_budget'
p1576
F0
ssS'desc'
p1577
S'strategy: C_RANDOM_UM, network cache: 0.5'
p1578
sS'topology'
p1579
g11
(tRp1580
S'asn'
p1581
I3257
sg1555
S'ROCKET_FUEL_WITH_UCACHE'
p1582
ssg11
(tRp1583
S'OVERHEAD_DISTRIBUTION'
p1584
g11
(tRp1585
S'CV'
p1586
g48
(g50
S'\xd7>\xd0 e\xab\xf1?'
tRp1587
ssS'LATENCY'
p1588
g11
(tRp1589
S'MEAN'
p1590
F34.381679389312978
ssS'CACHE_HIT_RATIO'
p1591
g11
(tRp1592
g1590
F0.29651776292648613
ssS'CACHING_EFFICIENCY'
p1593
g11
(tRp1594
g1590
F0.30215053763440858
ssS'CACHE_EVICTION'
p1595
g11
(tRp1596
g1590
g48
(g50
S'J\x9f\xf4I\x9f\xf42@'
tRp1597
sstp1598
a(g11
(tRp1599
S'workload'
p1600
g11
(tRp1601
S'n_contents'
p1602
I1000
sS'name'
p1603
S'STATIONARY'
p1604
sS'n_warmup'
p1605
I100
sS'rate'
p1606
F1
sS'n_measured'
p1607
I300
sS'alpha'
p1608
F1
sS'n_segments'
p1609
I10
ssS'cache_policy'
p1610
g11
(tRp1611
g1603
S'LRU'
p1612
ssS'strategy'
p1613
g11
(tRp1614
g1603
S'C_RANDOM_UM'
p1615
ssS'content_placement'
p1616
g11
(tRp1617
g1602
I1000
sg1603
S'UNIFORM'
p1618
sg1609
I10
ssS'cache_placement'
p1619
g11
(tRp1620
S'network_cache'
p1621
F0.69999999999999996
sS'uCache_budget'
p1622
F700
sg1603
S'UNIFORM_WITH_UCACHE'
p1623
sS'nCache_budget'
p1624
F0
ssS'desc'
p1625
S'strategy: C_RANDOM_UM, network cache: 0.7'
p1626
sS'topology'
p1627
g11
(tRp1628
S'asn'
p1629
I3257
sg1603
S'ROCKET_FUEL_WITH_UCACHE'
p1630
ssg11
(tRp1631
S'OVERHEAD_DISTRIBUTION'
p1632
g11
(tRp1633
S'CV'
p1634
g48
(g50
S'cV\x0c)an\xeb?'
tRp1635
ssS'LATENCY'
p1636
g11
(tRp1637
S'MEAN'
p1638
F31.783423865428421
ssS'CACHE_HIT_RATIO'
p1639
g11
(tRp1640
g1638
F0.37983955354028603
ssS'CACHING_EFFICIENCY'
p1641
g11
(tRp1642
g1638
F0.3834507042253521
ssS'CACHE_EVICTION'
p1643
g11
(tRp1644
g1638
g48
(g50
S'\xc5\xcf(\xf13J2@'
tRp1645
sstp1646
a(g11
(tRp1647
S'workload'
p1648
g11
(tRp1649
S'n_contents'
p1650
I1000
sS'name'
p1651
S'STATIONARY'
p1652
sS'n_warmup'
p1653
I100
sS'rate'
p1654
F1
sS'n_measured'
p1655
I300
sS'alpha'
p1656
F1
sS'n_segments'
p1657
I10
ssS'cache_policy'
p1658
g11
(tRp1659
g1651
S'LRU'
p1660
ssS'strategy'
p1661
g11
(tRp1662
g1651
S'C_RANDOM_UM'
p1663
ssS'content_placement'
p1664
g11
(tRp1665
g1650
I1000
sg1651
S'UNIFORM'
p1666
sg1657
I10
ssS'cache_placement'
p1667
g11
(tRp1668
S'network_cache'
p1669
F0.80000000000000004
sS'uCache_budget'
p1670
F800
sg1651
S'UNIFORM_WITH_UCACHE'
p1671
sS'nCache_budget'
p1672
F0
ssS'desc'
p1673
S'strategy: C_RANDOM_UM, network cache: 0.8'
p1674
sS'topology'
p1675
g11
(tRp1676
S'asn'
p1677
I3257
sg1651
S'ROCKET_FUEL_WITH_UCACHE'
p1678
ssg11
(tRp1679
S'OVERHEAD_DISTRIBUTION'
p1680
g11
(tRp1681
S'CV'
p1682
g48
(g50
S'\xe6\xf9\xe8\xe5\xcc[\xef?'
tRp1683
ssS'LATENCY'
p1684
g11
(tRp1685
S'MEAN'
p1686
F29.625314635023372
ssS'CACHE_HIT_RATIO'
p1687
g11
(tRp1688
g1686
F0.43397573162027125
ssS'CACHING_EFFICIENCY'
p1689
g11
(tRp1690
g1686
F0.44057971014492753
ssS'CACHE_EVICTION'
p1691
g11
(tRp1692
g1686
g48
(g50
S'\xe9\x81\xca\xd9-\xfc1@'
tRp1693
sstp1694
a(g11
(tRp1695
S'workload'
p1696
g11
(tRp1697
S'n_contents'
p1698
I1000
sS'name'
p1699
S'STATIONARY'
p1700
sS'n_warmup'
p1701
I100
sS'rate'
p1702
F1
sS'n_measured'
p1703
I300
sS'alpha'
p1704
F1
sS'n_segments'
p1705
I10
ssS'cache_policy'
p1706
g11
(tRp1707
g1699
S'LRU'
p1708
ssS'strategy'
p1709
g11
(tRp1710
g1699
S'C_RANDOM_UM'
p1711
ssS'content_placement'
p1712
g11
(tRp1713
g1698
I1000
sg1699
S'UNIFORM'
p1714
sg1705
I10
ssS'cache_placement'
p1715
g11
(tRp1716
S'network_cache'
p1717
F1
sS'uCache_budget'
p1718
F1000
sg1699
S'UNIFORM_WITH_UCACHE'
p1719
sS'nCache_budget'
p1720
F0
ssS'desc'
p1721
S'strategy: C_RANDOM_UM, network cache: 1.0'
p1722
sS'topology'
p1723
g11
(tRp1724
S'asn'
p1725
I3257
sg1699
S'ROCKET_FUEL_WITH_UCACHE'
p1726
ssg11
(tRp1727
S'OVERHEAD_DISTRIBUTION'
p1728
g11
(tRp1729
S'CV'
p1730
g48
(g50
S'8Cw\xd2\xcdI\xed?'
tRp1731
ssS'LATENCY'
p1732
g11
(tRp1733
S'MEAN'
p1734
F30.298071912454404
ssS'CACHE_HIT_RATIO'
p1735
g11
(tRp1736
g1734
F0.4225839972289574
ssS'CACHING_EFFICIENCY'
p1737
g11
(tRp1738
g1734
F0.42508710801393729
ssS'CACHE_EVICTION'
p1739
g11
(tRp1740
g1734
g48
(g50
S'iiiii\xa91@'
tRp1741
sstp1742
a(g11
(tRp1743
S'workload'
p1744
g11
(tRp1745
S'n_contents'
p1746
I1000
sS'name'
p1747
S'STATIONARY'
p1748
sS'n_warmup'
p1749
I100
sS'rate'
p1750
F1
sS'n_measured'
p1751
I300
sS'alpha'
p1752
F1
sS'n_segments'
p1753
I10
ssS'cache_policy'
p1754
g11
(tRp1755
g1747
S'LRU'
p1756
ssS'strategy'
p1757
g11
(tRp1758
g1747
S'C_RANDOM_UM'
p1759
ssS'content_placement'
p1760
g11
(tRp1761
g1746
I1000
sg1747
S'UNIFORM'
p1762
sg1753
I10
ssS'cache_placement'
p1763
g11
(tRp1764
S'network_cache'
p1765
F0.59999999999999998
sS'uCache_budget'
p1766
F600
sg1747
S'UNIFORM_WITH_UCACHE'
p1767
sS'nCache_budget'
p1768
F0
ssS'desc'
p1769
S'strategy: C_RANDOM_UM, network cache: 0.6'
p1770
sS'topology'
p1771
g11
(tRp1772
S'asn'
p1773
I3257
sg1747
S'ROCKET_FUEL_WITH_UCACHE'
p1774
ssg11
(tRp1775
S'OVERHEAD_DISTRIBUTION'
p1776
g11
(tRp1777
S'CV'
p1778
g48
(g50
S'\x91,NU|\x81\xed?'
tRp1779
ssS'LATENCY'
p1780
g11
(tRp1781
S'MEAN'
p1782
F33.073694984646878
ssS'CACHE_HIT_RATIO'
p1783
g11
(tRp1784
g1782
F0.36131883072739635
ssS'CACHING_EFFICIENCY'
p1785
g11
(tRp1786
g1782
F0.36404109589041095
ssS'CACHE_EVICTION'
p1787
g11
(tRp1788
g1782
g48
(g50
S'\x88?n]\xde\x013@'
tRp1789
sstp1790
a(g11
(tRp1791
S'workload'
p1792
g11
(tRp1793
S'n_contents'
p1794
I1000
sS'name'
p1795
S'STATIONARY'
p1796
sS'n_warmup'
p1797
I100
sS'rate'
p1798
F1
sS'n_measured'
p1799
I300
sS'alpha'
p1800
F1
sS'n_segments'
p1801
I10
ssS'cache_policy'
p1802
g11
(tRp1803
g1795
S'LRU'
p1804
ssS'strategy'
p1805
g11
(tRp1806
g1795
S'C_RANDOM_UM'
p1807
ssS'content_placement'
p1808
g11
(tRp1809
g1794
I1000
sg1795
S'UNIFORM'
p1810
sg1801
I10
ssS'cache_placement'
p1811
g11
(tRp1812
S'network_cache'
p1813
F0.90000000000000002
sS'uCache_budget'
p1814
F900
sg1795
S'UNIFORM_WITH_UCACHE'
p1815
sS'nCache_budget'
p1816
F0
ssS'desc'
p1817
S'strategy: C_RANDOM_UM, network cache: 0.9'
p1818
sS'topology'
p1819
g11
(tRp1820
S'asn'
p1821
I3257
sg1795
S'ROCKET_FUEL_WITH_UCACHE'
p1822
ssg11
(tRp1823
S'OVERHEAD_DISTRIBUTION'
p1824
g11
(tRp1825
S'CV'
p1826
g48
(g50
S'{\xf3\xda\xfc\x03"\xed?'
tRp1827
ssS'LATENCY'
p1828
g11
(tRp1829
S'MEAN'
p1830
F28.14263404476835
ssS'CACHE_HIT_RATIO'
p1831
g11
(tRp1832
g1830
F0.45834773591427586
ssS'CACHING_EFFICIENCY'
p1833
g11
(tRp1834
g1830
F0.46202090592334494
ssS'CACHE_EVICTION'
p1835
g11
(tRp1836
g1830
g48
(g50
S'\xa6\x9e\x8c\xdf.\xf50@'
tRp1837
sstp1838
atRp1839
sb.