ccopy_reg
_reconstructor
p1
(cicarus.results.readwrite
ResultSet
p2
c__builtin__
object
p3
NtRp4
(dp5
S'attr'
p6
(dp7
sS'_results'
p8
ccollections
deque
p9
((lp10
(cicarus.util
Tree
p11
(tRp12
S'workload'
p13
g11
(tRp14
S'n_contents'
p15
I300000
sS'name'
p16
S'STATIONARY'
p17
sS'n_warmup'
p18
I300000
sS'rate'
p19
F1
sS'n_measured'
p20
I900000
sS'alpha'
p21
F1
ssS'cache_policy'
p22
g11
(tRp23
g16
S'LRU'
p24
ssS'strategy'
p25
g11
(tRp26
g16
S'C_RANDOM_P2P'
p27
ssS'content_placement'
p28
g11
(tRp29
g16
S'UNIFORM'
p30
ssS'cache_placement'
p31
g11
(tRp32
S'network_cache'
p33
I0
sS'uCache_budget'
p34
F0
sg16
S'UNIFORM_with_uCache'
p35
sS'nCache_budget'
p36
F0
ssS'desc'
p37
S'strategy: C_RANDOM_P2P, network cache: 0'
p38
sS'topology'
p39
g11
(tRp40
g16
S'ROCKET_FUEL_WITH_UCACHE'
p41
sS'asn'
p42
I3257
ssg11
(tRp43
S'OVERHEAD_DISTRIBUTION'
p44
g11
(tRp45
S'COEFFICIENT OF VARIATION'
p46
cnumpy.core.multiarray
scalar
p47
(cnumpy
dtype
p48
(S'f8'
I0
I1
tRp49
(I3
S'<'
NNNI-1
I-1
I0
tbS'\x1b\xeb\x070d+\xe3?'
tRp50
sstp51
a(g11
(tRp52
S'workload'
p53
g11
(tRp54
S'n_contents'
p55
I300000
sS'name'
p56
S'STATIONARY'
p57
sS'n_warmup'
p58
I300000
sS'rate'
p59
F1
sS'n_measured'
p60
I900000
sS'alpha'
p61
F1
ssS'cache_policy'
p62
g11
(tRp63
g56
S'LRU'
p64
ssS'strategy'
p65
g11
(tRp66
g56
S'C_RANDOM_P2P'
p67
ssS'content_placement'
p68
g11
(tRp69
g56
S'UNIFORM'
p70
ssS'cache_placement'
p71
g11
(tRp72
S'network_cache'
p73
F0.050000000000000003
sS'uCache_budget'
p74
F15000
sg56
S'UNIFORM_with_uCache'
p75
sS'nCache_budget'
p76
F0
ssS'desc'
p77
S'strategy: C_RANDOM_P2P, network cache: 0.05'
p78
sS'topology'
p79
g11
(tRp80
g56
S'ROCKET_FUEL_WITH_UCACHE'
p81
sS'asn'
p82
I3257
ssg11
(tRp83
S'OVERHEAD_DISTRIBUTION'
p84
g11
(tRp85
S'COEFFICIENT OF VARIATION'
p86
g47
(g49
S'b\xfd\x1e\xc4\xc5A\xdb?'
tRp87
sstp88
a(g11
(tRp89
S'workload'
p90
g11
(tRp91
S'n_contents'
p92
I300000
sS'name'
p93
S'STATIONARY'
p94
sS'n_warmup'
p95
I300000
sS'rate'
p96
F1
sS'n_measured'
p97
I900000
sS'alpha'
p98
F1
ssS'cache_policy'
p99
g11
(tRp100
g93
S'LRU'
p101
ssS'strategy'
p102
g11
(tRp103
g93
S'C_RANDOM_P2P'
p104
ssS'content_placement'
p105
g11
(tRp106
g93
S'UNIFORM'
p107
ssS'cache_placement'
p108
g11
(tRp109
S'network_cache'
p110
F0.10000000000000001
sS'uCache_budget'
p111
F30000
sg93
S'UNIFORM_with_uCache'
p112
sS'nCache_budget'
p113
F0
ssS'desc'
p114
S'strategy: C_RANDOM_P2P, network cache: 0.1'
p115
sS'topology'
p116
g11
(tRp117
g93
S'ROCKET_FUEL_WITH_UCACHE'
p118
sS'asn'
p119
I3257
ssg11
(tRp120
S'OVERHEAD_DISTRIBUTION'
p121
g11
(tRp122
S'COEFFICIENT OF VARIATION'
p123
g47
(g49
S'"j\xd4\xc7\xf4\xd6\xd8?'
tRp124
sstp125
a(g11
(tRp126
S'workload'
p127
g11
(tRp128
S'n_contents'
p129
I300000
sS'name'
p130
S'STATIONARY'
p131
sS'n_warmup'
p132
I300000
sS'rate'
p133
F1
sS'n_measured'
p134
I900000
sS'alpha'
p135
F1
ssS'cache_policy'
p136
g11
(tRp137
g130
S'LRU'
p138
ssS'strategy'
p139
g11
(tRp140
g130
S'C_RANDOM_P2P'
p141
ssS'content_placement'
p142
g11
(tRp143
g130
S'UNIFORM'
p144
ssS'cache_placement'
p145
g11
(tRp146
S'network_cache'
p147
F0.20000000000000001
sS'uCache_budget'
p148
F60000
sg130
S'UNIFORM_with_uCache'
p149
sS'nCache_budget'
p150
F0
ssS'desc'
p151
S'strategy: C_RANDOM_P2P, network cache: 0.2'
p152
sS'topology'
p153
g11
(tRp154
g130
S'ROCKET_FUEL_WITH_UCACHE'
p155
sS'asn'
p156
I3257
ssg11
(tRp157
S'OVERHEAD_DISTRIBUTION'
p158
g11
(tRp159
S'COEFFICIENT OF VARIATION'
p160
g47
(g49
S'>\xb6\xa6\xd8Y!\xd6?'
tRp161
sstp162
a(g11
(tRp163
S'workload'
p164
g11
(tRp165
S'n_contents'
p166
I300000
sS'name'
p167
S'STATIONARY'
p168
sS'n_warmup'
p169
I300000
sS'rate'
p170
F1
sS'n_measured'
p171
I900000
sS'alpha'
p172
F1
ssS'cache_policy'
p173
g11
(tRp174
g167
S'LRU'
p175
ssS'strategy'
p176
g11
(tRp177
g167
S'C_RANDOM_P2P'
p178
ssS'content_placement'
p179
g11
(tRp180
g167
S'UNIFORM'
p181
ssS'cache_placement'
p182
g11
(tRp183
S'network_cache'
p184
F0.29999999999999999
sS'uCache_budget'
p185
F90000
sg167
S'UNIFORM_with_uCache'
p186
sS'nCache_budget'
p187
F0
ssS'desc'
p188
S'strategy: C_RANDOM_P2P, network cache: 0.3'
p189
sS'topology'
p190
g11
(tRp191
g167
S'ROCKET_FUEL_WITH_UCACHE'
p192
sS'asn'
p193
I3257
ssg11
(tRp194
S'OVERHEAD_DISTRIBUTION'
p195
g11
(tRp196
S'COEFFICIENT OF VARIATION'
p197
g47
(g49
S'*!\x8e\xfa\x1a@\xd5?'
tRp198
sstp199
a(g11
(tRp200
S'workload'
p201
g11
(tRp202
S'n_contents'
p203
I300000
sS'name'
p204
S'STATIONARY'
p205
sS'n_warmup'
p206
I300000
sS'rate'
p207
F1
sS'n_measured'
p208
I900000
sS'alpha'
p209
F1
ssS'cache_policy'
p210
g11
(tRp211
g204
S'LRU'
p212
ssS'strategy'
p213
g11
(tRp214
g204
S'C_RANDOM_P2P'
p215
ssS'content_placement'
p216
g11
(tRp217
g204
S'UNIFORM'
p218
ssS'cache_placement'
p219
g11
(tRp220
S'network_cache'
p221
F0.40000000000000002
sS'uCache_budget'
p222
F120000
sg204
S'UNIFORM_with_uCache'
p223
sS'nCache_budget'
p224
F0
ssS'desc'
p225
S'strategy: C_RANDOM_P2P, network cache: 0.4'
p226
sS'topology'
p227
g11
(tRp228
g204
S'ROCKET_FUEL_WITH_UCACHE'
p229
sS'asn'
p230
I3257
ssg11
(tRp231
S'OVERHEAD_DISTRIBUTION'
p232
g11
(tRp233
S'COEFFICIENT OF VARIATION'
p234
g47
(g49
S'PI4>\xf3\xc2\xd4?'
tRp235
sstp236
a(g11
(tRp237
S'workload'
p238
g11
(tRp239
S'n_contents'
p240
I300000
sS'name'
p241
S'STATIONARY'
p242
sS'n_warmup'
p243
I300000
sS'rate'
p244
F1
sS'n_measured'
p245
I900000
sS'alpha'
p246
F1
ssS'cache_policy'
p247
g11
(tRp248
g241
S'LRU'
p249
ssS'strategy'
p250
g11
(tRp251
g241
S'C_RANDOM_P2P'
p252
ssS'content_placement'
p253
g11
(tRp254
g241
S'UNIFORM'
p255
ssS'cache_placement'
p256
g11
(tRp257
S'network_cache'
p258
F0.5
sS'uCache_budget'
p259
F150000
sg241
S'UNIFORM_with_uCache'
p260
sS'nCache_budget'
p261
F0
ssS'desc'
p262
S'strategy: C_RANDOM_P2P, network cache: 0.5'
p263
sS'topology'
p264
g11
(tRp265
g241
S'ROCKET_FUEL_WITH_UCACHE'
p266
sS'asn'
p267
I3257
ssg11
(tRp268
S'OVERHEAD_DISTRIBUTION'
p269
g11
(tRp270
S'COEFFICIENT OF VARIATION'
p271
g47
(g49
S'\x19\xec\xda+\xd2\x01\xd4?'
tRp272
sstp273
a(g11
(tRp274
S'workload'
p275
g11
(tRp276
S'n_contents'
p277
I300000
sS'name'
p278
S'STATIONARY'
p279
sS'n_warmup'
p280
I300000
sS'rate'
p281
F1
sS'n_measured'
p282
I900000
sS'alpha'
p283
F1
ssS'cache_policy'
p284
g11
(tRp285
g278
S'LRU'
p286
ssS'strategy'
p287
g11
(tRp288
g278
S'C_RANDOM_P2P'
p289
ssS'content_placement'
p290
g11
(tRp291
g278
S'UNIFORM'
p292
ssS'cache_placement'
p293
g11
(tRp294
S'network_cache'
p295
F0.59999999999999998
sS'uCache_budget'
p296
F180000
sg278
S'UNIFORM_with_uCache'
p297
sS'nCache_budget'
p298
F0
ssS'desc'
p299
S'strategy: C_RANDOM_P2P, network cache: 0.6'
p300
sS'topology'
p301
g11
(tRp302
g278
S'ROCKET_FUEL_WITH_UCACHE'
p303
sS'asn'
p304
I3257
ssg11
(tRp305
S'OVERHEAD_DISTRIBUTION'
p306
g11
(tRp307
S'COEFFICIENT OF VARIATION'
p308
g47
(g49
S'b\x85\xb6\xbcLC\xd3?'
tRp309
sstp310
a(g11
(tRp311
S'workload'
p312
g11
(tRp313
S'n_contents'
p314
I300000
sS'name'
p315
S'STATIONARY'
p316
sS'n_warmup'
p317
I300000
sS'rate'
p318
F1
sS'n_measured'
p319
I900000
sS'alpha'
p320
F1
ssS'cache_policy'
p321
g11
(tRp322
g315
S'LRU'
p323
ssS'strategy'
p324
g11
(tRp325
g315
S'C_LFR_P2P'
p326
ssS'content_placement'
p327
g11
(tRp328
g315
S'UNIFORM'
p329
ssS'cache_placement'
p330
g11
(tRp331
S'network_cache'
p332
I0
sS'uCache_budget'
p333
F0
sg315
S'UNIFORM_with_uCache'
p334
sS'nCache_budget'
p335
F0
ssS'desc'
p336
S'strategy: C_LFR_P2P, network cache: 0'
p337
sS'topology'
p338
g11
(tRp339
g315
S'ROCKET_FUEL_WITH_UCACHE'
p340
sS'asn'
p341
I3257
ssg11
(tRp342
S'OVERHEAD_DISTRIBUTION'
p343
g11
(tRp344
S'COEFFICIENT OF VARIATION'
p345
g47
(g49
S'VUUUUU\xd5?'
tRp346
sstp347
a(g11
(tRp348
S'workload'
p349
g11
(tRp350
S'n_contents'
p351
I300000
sS'name'
p352
S'STATIONARY'
p353
sS'n_warmup'
p354
I300000
sS'rate'
p355
F1
sS'n_measured'
p356
I900000
sS'alpha'
p357
F1
ssS'cache_policy'
p358
g11
(tRp359
g352
S'LRU'
p360
ssS'strategy'
p361
g11
(tRp362
g352
S'C_LFR_P2P'
p363
ssS'content_placement'
p364
g11
(tRp365
g352
S'UNIFORM'
p366
ssS'cache_placement'
p367
g11
(tRp368
S'network_cache'
p369
F0.050000000000000003
sS'uCache_budget'
p370
F15000
sg352
S'UNIFORM_with_uCache'
p371
sS'nCache_budget'
p372
F0
ssS'desc'
p373
S'strategy: C_LFR_P2P, network cache: 0.05'
p374
sS'topology'
p375
g11
(tRp376
g352
S'ROCKET_FUEL_WITH_UCACHE'
p377
sS'asn'
p378
I3257
ssg11
(tRp379
S'OVERHEAD_DISTRIBUTION'
p380
g11
(tRp381
S'COEFFICIENT OF VARIATION'
p382
g47
(g49
S'\xbf\x01B\x9a\x1e\x9c\xe0?'
tRp383
sstp384
a(g11
(tRp385
S'workload'
p386
g11
(tRp387
S'n_contents'
p388
I300000
sS'name'
p389
S'STATIONARY'
p390
sS'n_warmup'
p391
I300000
sS'rate'
p392
F1
sS'n_measured'
p393
I900000
sS'alpha'
p394
F1
ssS'cache_policy'
p395
g11
(tRp396
g389
S'LRU'
p397
ssS'strategy'
p398
g11
(tRp399
g389
S'C_RANDOM_P2P'
p400
ssS'content_placement'
p401
g11
(tRp402
g389
S'UNIFORM'
p403
ssS'cache_placement'
p404
g11
(tRp405
S'network_cache'
p406
F0.69999999999999996
sS'uCache_budget'
p407
F210000
sg389
S'UNIFORM_with_uCache'
p408
sS'nCache_budget'
p409
F0
ssS'desc'
p410
S'strategy: C_RANDOM_P2P, network cache: 0.7'
p411
sS'topology'
p412
g11
(tRp413
g389
S'ROCKET_FUEL_WITH_UCACHE'
p414
sS'asn'
p415
I3257
ssg11
(tRp416
S'OVERHEAD_DISTRIBUTION'
p417
g11
(tRp418
S'COEFFICIENT OF VARIATION'
p419
g47
(g49
S'\xd4\xbb\x94\xca\xa1\xfd\xd2?'
tRp420
sstp421
a(g11
(tRp422
S'workload'
p423
g11
(tRp424
S'n_contents'
p425
I300000
sS'name'
p426
S'STATIONARY'
p427
sS'n_warmup'
p428
I300000
sS'rate'
p429
F1
sS'n_measured'
p430
I900000
sS'alpha'
p431
F1
ssS'cache_policy'
p432
g11
(tRp433
g426
S'LRU'
p434
ssS'strategy'
p435
g11
(tRp436
g426
S'C_LFR_P2P'
p437
ssS'content_placement'
p438
g11
(tRp439
g426
S'UNIFORM'
p440
ssS'cache_placement'
p441
g11
(tRp442
S'network_cache'
p443
F0.10000000000000001
sS'uCache_budget'
p444
F30000
sg426
S'UNIFORM_with_uCache'
p445
sS'nCache_budget'
p446
F0
ssS'desc'
p447
S'strategy: C_LFR_P2P, network cache: 0.1'
p448
sS'topology'
p449
g11
(tRp450
g426
S'ROCKET_FUEL_WITH_UCACHE'
p451
sS'asn'
p452
I3257
ssg11
(tRp453
S'OVERHEAD_DISTRIBUTION'
p454
g11
(tRp455
S'COEFFICIENT OF VARIATION'
p456
g47
(g49
S'\xeft\x1d\xc9\xfe\x17\xe0?'
tRp457
sstp458
a(g11
(tRp459
S'workload'
p460
g11
(tRp461
S'n_contents'
p462
I300000
sS'name'
p463
S'STATIONARY'
p464
sS'n_warmup'
p465
I300000
sS'rate'
p466
F1
sS'n_measured'
p467
I900000
sS'alpha'
p468
F1
ssS'cache_policy'
p469
g11
(tRp470
g463
S'LRU'
p471
ssS'strategy'
p472
g11
(tRp473
g463
S'C_RANDOM_P2P'
p474
ssS'content_placement'
p475
g11
(tRp476
g463
S'UNIFORM'
p477
ssS'cache_placement'
p478
g11
(tRp479
S'network_cache'
p480
F0.80000000000000004
sS'uCache_budget'
p481
F240000
sg463
S'UNIFORM_with_uCache'
p482
sS'nCache_budget'
p483
F0
ssS'desc'
p484
S'strategy: C_RANDOM_P2P, network cache: 0.8'
p485
sS'topology'
p486
g11
(tRp487
g463
S'ROCKET_FUEL_WITH_UCACHE'
p488
sS'asn'
p489
I3257
ssg11
(tRp490
S'OVERHEAD_DISTRIBUTION'
p491
g11
(tRp492
S'COEFFICIENT OF VARIATION'
p493
g47
(g49
S'x\xff\xa3\x07\xa3<\xd2?'
tRp494
sstp495
a(g11
(tRp496
S'workload'
p497
g11
(tRp498
S'n_contents'
p499
I300000
sS'name'
p500
S'STATIONARY'
p501
sS'n_warmup'
p502
I300000
sS'rate'
p503
F1
sS'n_measured'
p504
I900000
sS'alpha'
p505
F1
ssS'cache_policy'
p506
g11
(tRp507
g500
S'LRU'
p508
ssS'strategy'
p509
g11
(tRp510
g500
S'C_RANDOM_P2P'
p511
ssS'content_placement'
p512
g11
(tRp513
g500
S'UNIFORM'
p514
ssS'cache_placement'
p515
g11
(tRp516
S'network_cache'
p517
F0.90000000000000002
sS'uCache_budget'
p518
F270000
sg500
S'UNIFORM_with_uCache'
p519
sS'nCache_budget'
p520
F0
ssS'desc'
p521
S'strategy: C_RANDOM_P2P, network cache: 0.9'
p522
sS'topology'
p523
g11
(tRp524
g500
S'ROCKET_FUEL_WITH_UCACHE'
p525
sS'asn'
p526
I3257
ssg11
(tRp527
S'OVERHEAD_DISTRIBUTION'
p528
g11
(tRp529
S'COEFFICIENT OF VARIATION'
p530
g47
(g49
S'\xb2\x1d5\x13\x84\xb6\xd1?'
tRp531
sstp532
a(g11
(tRp533
S'workload'
p534
g11
(tRp535
S'n_contents'
p536
I300000
sS'name'
p537
S'STATIONARY'
p538
sS'n_warmup'
p539
I300000
sS'rate'
p540
F1
sS'n_measured'
p541
I900000
sS'alpha'
p542
F1
ssS'cache_policy'
p543
g11
(tRp544
g537
S'LRU'
p545
ssS'strategy'
p546
g11
(tRp547
g537
S'C_RANDOM_P2P'
p548
ssS'content_placement'
p549
g11
(tRp550
g537
S'UNIFORM'
p551
ssS'cache_placement'
p552
g11
(tRp553
S'network_cache'
p554
F1
sS'uCache_budget'
p555
F300000
sg537
S'UNIFORM_with_uCache'
p556
sS'nCache_budget'
p557
F0
ssS'desc'
p558
S'strategy: C_RANDOM_P2P, network cache: 1.0'
p559
sS'topology'
p560
g11
(tRp561
g537
S'ROCKET_FUEL_WITH_UCACHE'
p562
sS'asn'
p563
I3257
ssg11
(tRp564
S'OVERHEAD_DISTRIBUTION'
p565
g11
(tRp566
S'COEFFICIENT OF VARIATION'
p567
g47
(g49
S'|\xeb\t3Cs\xd1?'
tRp568
sstp569
a(g11
(tRp570
S'workload'
p571
g11
(tRp572
S'n_contents'
p573
I300000
sS'name'
p574
S'STATIONARY'
p575
sS'n_warmup'
p576
I300000
sS'rate'
p577
F1
sS'n_measured'
p578
I900000
sS'alpha'
p579
F1
ssS'cache_policy'
p580
g11
(tRp581
g574
S'LRU'
p582
ssS'strategy'
p583
g11
(tRp584
g574
S'C_LFR_P2P'
p585
ssS'content_placement'
p586
g11
(tRp587
g574
S'UNIFORM'
p588
ssS'cache_placement'
p589
g11
(tRp590
S'network_cache'
p591
F0.20000000000000001
sS'uCache_budget'
p592
F60000
sg574
S'UNIFORM_with_uCache'
p593
sS'nCache_budget'
p594
F0
ssS'desc'
p595
S'strategy: C_LFR_P2P, network cache: 0.2'
p596
sS'topology'
p597
g11
(tRp598
g574
S'ROCKET_FUEL_WITH_UCACHE'
p599
sS'asn'
p600
I3257
ssg11
(tRp601
S'OVERHEAD_DISTRIBUTION'
p602
g11
(tRp603
S'COEFFICIENT OF VARIATION'
p604
g47
(g49
S'\xe6Z!o\xa54\xe0?'
tRp605
sstp606
a(g11
(tRp607
S'workload'
p608
g11
(tRp609
S'n_contents'
p610
I300000
sS'name'
p611
S'STATIONARY'
p612
sS'n_warmup'
p613
I300000
sS'rate'
p614
F1
sS'n_measured'
p615
I900000
sS'alpha'
p616
F1
ssS'cache_policy'
p617
g11
(tRp618
g611
S'LRU'
p619
ssS'strategy'
p620
g11
(tRp621
g611
S'C_LFR_P2P'
p622
ssS'content_placement'
p623
g11
(tRp624
g611
S'UNIFORM'
p625
ssS'cache_placement'
p626
g11
(tRp627
S'network_cache'
p628
F0.29999999999999999
sS'uCache_budget'
p629
F90000
sg611
S'UNIFORM_with_uCache'
p630
sS'nCache_budget'
p631
F0
ssS'desc'
p632
S'strategy: C_LFR_P2P, network cache: 0.3'
p633
sS'topology'
p634
g11
(tRp635
g611
S'ROCKET_FUEL_WITH_UCACHE'
p636
sS'asn'
p637
I3257
ssg11
(tRp638
S'OVERHEAD_DISTRIBUTION'
p639
g11
(tRp640
S'COEFFICIENT OF VARIATION'
p641
g47
(g49
S'/+\xe3\xd2\x0fB\xe0?'
tRp642
sstp643
a(g11
(tRp644
S'workload'
p645
g11
(tRp646
S'n_contents'
p647
I300000
sS'name'
p648
S'STATIONARY'
p649
sS'n_warmup'
p650
I300000
sS'rate'
p651
F1
sS'n_measured'
p652
I900000
sS'alpha'
p653
F1
ssS'cache_policy'
p654
g11
(tRp655
g648
S'LRU'
p656
ssS'strategy'
p657
g11
(tRp658
g648
S'C_LCF_P2P'
p659
ssS'content_placement'
p660
g11
(tRp661
g648
S'UNIFORM'
p662
ssS'cache_placement'
p663
g11
(tRp664
S'network_cache'
p665
I0
sS'uCache_budget'
p666
F0
sg648
S'UNIFORM_with_uCache'
p667
sS'nCache_budget'
p668
F0
ssS'desc'
p669
S'strategy: C_LCF_P2P, network cache: 0'
p670
sS'topology'
p671
g11
(tRp672
g648
S'ROCKET_FUEL_WITH_UCACHE'
p673
sS'asn'
p674
I3257
ssg11
(tRp675
S'OVERHEAD_DISTRIBUTION'
p676
g11
(tRp677
S'COEFFICIENT OF VARIATION'
p678
g47
(g49
S'\xdb\x90(sH\xf0\xda?'
tRp679
sstp680
a(g11
(tRp681
S'workload'
p682
g11
(tRp683
S'n_contents'
p684
I300000
sS'name'
p685
S'STATIONARY'
p686
sS'n_warmup'
p687
I300000
sS'rate'
p688
F1
sS'n_measured'
p689
I900000
sS'alpha'
p690
F1
ssS'cache_policy'
p691
g11
(tRp692
g685
S'LRU'
p693
ssS'strategy'
p694
g11
(tRp695
g685
S'C_LFR_P2P'
p696
ssS'content_placement'
p697
g11
(tRp698
g685
S'UNIFORM'
p699
ssS'cache_placement'
p700
g11
(tRp701
S'network_cache'
p702
F0.40000000000000002
sS'uCache_budget'
p703
F120000
sg685
S'UNIFORM_with_uCache'
p704
sS'nCache_budget'
p705
F0
ssS'desc'
p706
S'strategy: C_LFR_P2P, network cache: 0.4'
p707
sS'topology'
p708
g11
(tRp709
g685
S'ROCKET_FUEL_WITH_UCACHE'
p710
sS'asn'
p711
I3257
ssg11
(tRp712
S'OVERHEAD_DISTRIBUTION'
p713
g11
(tRp714
S'COEFFICIENT OF VARIATION'
p715
g47
(g49
S'\xd7\x99\x1c\x98\xf7i\xe0?'
tRp716
sstp717
a(g11
(tRp718
S'workload'
p719
g11
(tRp720
S'n_contents'
p721
I300000
sS'name'
p722
S'STATIONARY'
p723
sS'n_warmup'
p724
I300000
sS'rate'
p725
F1
sS'n_measured'
p726
I900000
sS'alpha'
p727
F1
ssS'cache_policy'
p728
g11
(tRp729
g722
S'LRU'
p730
ssS'strategy'
p731
g11
(tRp732
g722
S'C_LFR_P2P'
p733
ssS'content_placement'
p734
g11
(tRp735
g722
S'UNIFORM'
p736
ssS'cache_placement'
p737
g11
(tRp738
S'network_cache'
p739
F0.5
sS'uCache_budget'
p740
F150000
sg722
S'UNIFORM_with_uCache'
p741
sS'nCache_budget'
p742
F0
ssS'desc'
p743
S'strategy: C_LFR_P2P, network cache: 0.5'
p744
sS'topology'
p745
g11
(tRp746
g722
S'ROCKET_FUEL_WITH_UCACHE'
p747
sS'asn'
p748
I3257
ssg11
(tRp749
S'OVERHEAD_DISTRIBUTION'
p750
g11
(tRp751
S'COEFFICIENT OF VARIATION'
p752
g47
(g49
S'\xe2\xd5>\x1f\xf0?\xe1?'
tRp753
sstp754
a(g11
(tRp755
S'workload'
p756
g11
(tRp757
S'n_contents'
p758
I300000
sS'name'
p759
S'STATIONARY'
p760
sS'n_warmup'
p761
I300000
sS'rate'
p762
F1
sS'n_measured'
p763
I900000
sS'alpha'
p764
F1
ssS'cache_policy'
p765
g11
(tRp766
g759
S'LRU'
p767
ssS'strategy'
p768
g11
(tRp769
g759
S'C_LCF_P2P'
p770
ssS'content_placement'
p771
g11
(tRp772
g759
S'UNIFORM'
p773
ssS'cache_placement'
p774
g11
(tRp775
S'network_cache'
p776
F0.050000000000000003
sS'uCache_budget'
p777
F15000
sg759
S'UNIFORM_with_uCache'
p778
sS'nCache_budget'
p779
F0
ssS'desc'
p780
S'strategy: C_LCF_P2P, network cache: 0.05'
p781
sS'topology'
p782
g11
(tRp783
g759
S'ROCKET_FUEL_WITH_UCACHE'
p784
sS'asn'
p785
I3257
ssg11
(tRp786
S'OVERHEAD_DISTRIBUTION'
p787
g11
(tRp788
S'COEFFICIENT OF VARIATION'
p789
g47
(g49
S'\xd6\xf8Sb:4\xd7?'
tRp790
sstp791
a(g11
(tRp792
S'workload'
p793
g11
(tRp794
S'n_contents'
p795
I300000
sS'name'
p796
S'STATIONARY'
p797
sS'n_warmup'
p798
I300000
sS'rate'
p799
F1
sS'n_measured'
p800
I900000
sS'alpha'
p801
F1
ssS'cache_policy'
p802
g11
(tRp803
g796
S'LRU'
p804
ssS'strategy'
p805
g11
(tRp806
g796
S'C_LFR_P2P'
p807
ssS'content_placement'
p808
g11
(tRp809
g796
S'UNIFORM'
p810
ssS'cache_placement'
p811
g11
(tRp812
S'network_cache'
p813
F0.59999999999999998
sS'uCache_budget'
p814
F180000
sg796
S'UNIFORM_with_uCache'
p815
sS'nCache_budget'
p816
F0
ssS'desc'
p817
S'strategy: C_LFR_P2P, network cache: 0.6'
p818
sS'topology'
p819
g11
(tRp820
g796
S'ROCKET_FUEL_WITH_UCACHE'
p821
sS'asn'
p822
I3257
ssg11
(tRp823
S'OVERHEAD_DISTRIBUTION'
p824
g11
(tRp825
S'COEFFICIENT OF VARIATION'
p826
g47
(g49
S'z\xb1|\x10\x80F\xe5?'
tRp827
sstp828
a(g11
(tRp829
S'workload'
p830
g11
(tRp831
S'n_contents'
p832
I300000
sS'name'
p833
S'STATIONARY'
p834
sS'n_warmup'
p835
I300000
sS'rate'
p836
F1
sS'n_measured'
p837
I900000
sS'alpha'
p838
F1
ssS'cache_policy'
p839
g11
(tRp840
g833
S'LRU'
p841
ssS'strategy'
p842
g11
(tRp843
g833
S'C_LCF_P2P'
p844
ssS'content_placement'
p845
g11
(tRp846
g833
S'UNIFORM'
p847
ssS'cache_placement'
p848
g11
(tRp849
S'network_cache'
p850
F0.10000000000000001
sS'uCache_budget'
p851
F30000
sg833
S'UNIFORM_with_uCache'
p852
sS'nCache_budget'
p853
F0
ssS'desc'
p854
S'strategy: C_LCF_P2P, network cache: 0.1'
p855
sS'topology'
p856
g11
(tRp857
g833
S'ROCKET_FUEL_WITH_UCACHE'
p858
sS'asn'
p859
I3257
ssg11
(tRp860
S'OVERHEAD_DISTRIBUTION'
p861
g11
(tRp862
S'COEFFICIENT OF VARIATION'
p863
g47
(g49
S'\tH\x04\x97j\xad\xd8?'
tRp864
sstp865
a(g11
(tRp866
S'workload'
p867
g11
(tRp868
S'n_contents'
p869
I300000
sS'name'
p870
S'STATIONARY'
p871
sS'n_warmup'
p872
I300000
sS'rate'
p873
F1
sS'n_measured'
p874
I900000
sS'alpha'
p875
F1
ssS'cache_policy'
p876
g11
(tRp877
g870
S'LRU'
p878
ssS'strategy'
p879
g11
(tRp880
g870
S'C_LFR_P2P'
p881
ssS'content_placement'
p882
g11
(tRp883
g870
S'UNIFORM'
p884
ssS'cache_placement'
p885
g11
(tRp886
S'network_cache'
p887
F0.69999999999999996
sS'uCache_budget'
p888
F210000
sg870
S'UNIFORM_with_uCache'
p889
sS'nCache_budget'
p890
F0
ssS'desc'
p891
S'strategy: C_LFR_P2P, network cache: 0.7'
p892
sS'topology'
p893
g11
(tRp894
g870
S'ROCKET_FUEL_WITH_UCACHE'
p895
sS'asn'
p896
I3257
ssg11
(tRp897
S'OVERHEAD_DISTRIBUTION'
p898
g11
(tRp899
S'COEFFICIENT OF VARIATION'
p900
g47
(g49
S'\xf6\x8e\xfc\x941\x1e\xe1?'
tRp901
sstp902
a(g11
(tRp903
S'workload'
p904
g11
(tRp905
S'n_contents'
p906
I300000
sS'name'
p907
S'STATIONARY'
p908
sS'n_warmup'
p909
I300000
sS'rate'
p910
F1
sS'n_measured'
p911
I900000
sS'alpha'
p912
F1
ssS'cache_policy'
p913
g11
(tRp914
g907
S'LRU'
p915
ssS'strategy'
p916
g11
(tRp917
g907
S'C_LFR_P2P'
p918
ssS'content_placement'
p919
g11
(tRp920
g907
S'UNIFORM'
p921
ssS'cache_placement'
p922
g11
(tRp923
S'network_cache'
p924
F0.80000000000000004
sS'uCache_budget'
p925
F240000
sg907
S'UNIFORM_with_uCache'
p926
sS'nCache_budget'
p927
F0
ssS'desc'
p928
S'strategy: C_LFR_P2P, network cache: 0.8'
p929
sS'topology'
p930
g11
(tRp931
g907
S'ROCKET_FUEL_WITH_UCACHE'
p932
sS'asn'
p933
I3257
ssg11
(tRp934
S'OVERHEAD_DISTRIBUTION'
p935
g11
(tRp936
S'COEFFICIENT OF VARIATION'
p937
g47
(g49
S'\x1f\xb4\x18\xeb\xd7\xea\xde?'
tRp938
sstp939
a(g11
(tRp940
S'workload'
p941
g11
(tRp942
S'n_contents'
p943
I300000
sS'name'
p944
S'STATIONARY'
p945
sS'n_warmup'
p946
I300000
sS'rate'
p947
F1
sS'n_measured'
p948
I900000
sS'alpha'
p949
F1
ssS'cache_policy'
p950
g11
(tRp951
g944
S'LRU'
p952
ssS'strategy'
p953
g11
(tRp954
g944
S'C_LCF_P2P'
p955
ssS'content_placement'
p956
g11
(tRp957
g944
S'UNIFORM'
p958
ssS'cache_placement'
p959
g11
(tRp960
S'network_cache'
p961
F0.20000000000000001
sS'uCache_budget'
p962
F60000
sg944
S'UNIFORM_with_uCache'
p963
sS'nCache_budget'
p964
F0
ssS'desc'
p965
S'strategy: C_LCF_P2P, network cache: 0.2'
p966
sS'topology'
p967
g11
(tRp968
g944
S'ROCKET_FUEL_WITH_UCACHE'
p969
sS'asn'
p970
I3257
ssg11
(tRp971
S'OVERHEAD_DISTRIBUTION'
p972
g11
(tRp973
S'COEFFICIENT OF VARIATION'
p974
g47
(g49
S'\x87\xe9}\xc7mX\xdd?'
tRp975
sstp976
a(g11
(tRp977
S'workload'
p978
g11
(tRp979
S'n_contents'
p980
I300000
sS'name'
p981
S'STATIONARY'
p982
sS'n_warmup'
p983
I300000
sS'rate'
p984
F1
sS'n_measured'
p985
I900000
sS'alpha'
p986
F1
ssS'cache_policy'
p987
g11
(tRp988
g981
S'LRU'
p989
ssS'strategy'
p990
g11
(tRp991
g981
S'C_LFR_P2P'
p992
ssS'content_placement'
p993
g11
(tRp994
g981
S'UNIFORM'
p995
ssS'cache_placement'
p996
g11
(tRp997
S'network_cache'
p998
F0.90000000000000002
sS'uCache_budget'
p999
F270000
sg981
S'UNIFORM_with_uCache'
p1000
sS'nCache_budget'
p1001
F0
ssS'desc'
p1002
S'strategy: C_LFR_P2P, network cache: 0.9'
p1003
sS'topology'
p1004
g11
(tRp1005
g981
S'ROCKET_FUEL_WITH_UCACHE'
p1006
sS'asn'
p1007
I3257
ssg11
(tRp1008
S'OVERHEAD_DISTRIBUTION'
p1009
g11
(tRp1010
S'COEFFICIENT OF VARIATION'
p1011
g47
(g49
S'\xaf3\x07C\xcb\xc5\xdc?'
tRp1012
sstp1013
a(g11
(tRp1014
S'workload'
p1015
g11
(tRp1016
S'n_contents'
p1017
I300000
sS'name'
p1018
S'STATIONARY'
p1019
sS'n_warmup'
p1020
I300000
sS'rate'
p1021
F1
sS'n_measured'
p1022
I900000
sS'alpha'
p1023
F1
ssS'cache_policy'
p1024
g11
(tRp1025
g1018
S'LRU'
p1026
ssS'strategy'
p1027
g11
(tRp1028
g1018
S'C_LFR_P2P'
p1029
ssS'content_placement'
p1030
g11
(tRp1031
g1018
S'UNIFORM'
p1032
ssS'cache_placement'
p1033
g11
(tRp1034
S'network_cache'
p1035
F1
sS'uCache_budget'
p1036
F300000
sg1018
S'UNIFORM_with_uCache'
p1037
sS'nCache_budget'
p1038
F0
ssS'desc'
p1039
S'strategy: C_LFR_P2P, network cache: 1.0'
p1040
sS'topology'
p1041
g11
(tRp1042
g1018
S'ROCKET_FUEL_WITH_UCACHE'
p1043
sS'asn'
p1044
I3257
ssg11
(tRp1045
S'OVERHEAD_DISTRIBUTION'
p1046
g11
(tRp1047
S'COEFFICIENT OF VARIATION'
p1048
g47
(g49
S'\xbdq\xbal\x18w\xd9?'
tRp1049
sstp1050
a(g11
(tRp1051
S'workload'
p1052
g11
(tRp1053
S'n_contents'
p1054
I300000
sS'name'
p1055
S'STATIONARY'
p1056
sS'n_warmup'
p1057
I300000
sS'rate'
p1058
F1
sS'n_measured'
p1059
I900000
sS'alpha'
p1060
F1
ssS'cache_policy'
p1061
g11
(tRp1062
g1055
S'LRU'
p1063
ssS'strategy'
p1064
g11
(tRp1065
g1055
S'C_LCF_P2P'
p1066
ssS'content_placement'
p1067
g11
(tRp1068
g1055
S'UNIFORM'
p1069
ssS'cache_placement'
p1070
g11
(tRp1071
S'network_cache'
p1072
F0.29999999999999999
sS'uCache_budget'
p1073
F90000
sg1055
S'UNIFORM_with_uCache'
p1074
sS'nCache_budget'
p1075
F0
ssS'desc'
p1076
S'strategy: C_LCF_P2P, network cache: 0.3'
p1077
sS'topology'
p1078
g11
(tRp1079
g1055
S'ROCKET_FUEL_WITH_UCACHE'
p1080
sS'asn'
p1081
I3257
ssg11
(tRp1082
S'OVERHEAD_DISTRIBUTION'
p1083
g11
(tRp1084
S'COEFFICIENT OF VARIATION'
p1085
g47
(g49
S"\x87@\xe6\xea'\n\xdf?"
tRp1086
sstp1087
a(g11
(tRp1088
S'workload'
p1089
g11
(tRp1090
S'n_contents'
p1091
I300000
sS'name'
p1092
S'STATIONARY'
p1093
sS'n_warmup'
p1094
I300000
sS'rate'
p1095
F1
sS'n_measured'
p1096
I900000
sS'alpha'
p1097
F1
ssS'cache_policy'
p1098
g11
(tRp1099
g1092
S'LRU'
p1100
ssS'strategy'
p1101
g11
(tRp1102
g1092
S'C_LCF_P2P'
p1103
ssS'content_placement'
p1104
g11
(tRp1105
g1092
S'UNIFORM'
p1106
ssS'cache_placement'
p1107
g11
(tRp1108
S'network_cache'
p1109
F0.40000000000000002
sS'uCache_budget'
p1110
F120000
sg1092
S'UNIFORM_with_uCache'
p1111
sS'nCache_budget'
p1112
F0
ssS'desc'
p1113
S'strategy: C_LCF_P2P, network cache: 0.4'
p1114
sS'topology'
p1115
g11
(tRp1116
g1092
S'ROCKET_FUEL_WITH_UCACHE'
p1117
sS'asn'
p1118
I3257
ssg11
(tRp1119
S'OVERHEAD_DISTRIBUTION'
p1120
g11
(tRp1121
S'COEFFICIENT OF VARIATION'
p1122
g47
(g49
S'\xc1\x8a\x9b\x84_\x08\xe0?'
tRp1123
sstp1124
a(g11
(tRp1125
S'workload'
p1126
g11
(tRp1127
S'n_contents'
p1128
I300000
sS'name'
p1129
S'STATIONARY'
p1130
sS'n_warmup'
p1131
I300000
sS'rate'
p1132
F1
sS'n_measured'
p1133
I900000
sS'alpha'
p1134
F1
ssS'cache_policy'
p1135
g11
(tRp1136
g1129
S'LRU'
p1137
ssS'strategy'
p1138
g11
(tRp1139
g1129
S'C_LCF_P2P'
p1140
ssS'content_placement'
p1141
g11
(tRp1142
g1129
S'UNIFORM'
p1143
ssS'cache_placement'
p1144
g11
(tRp1145
S'network_cache'
p1146
F0.5
sS'uCache_budget'
p1147
F150000
sg1129
S'UNIFORM_with_uCache'
p1148
sS'nCache_budget'
p1149
F0
ssS'desc'
p1150
S'strategy: C_LCF_P2P, network cache: 0.5'
p1151
sS'topology'
p1152
g11
(tRp1153
g1129
S'ROCKET_FUEL_WITH_UCACHE'
p1154
sS'asn'
p1155
I3257
ssg11
(tRp1156
S'OVERHEAD_DISTRIBUTION'
p1157
g11
(tRp1158
S'COEFFICIENT OF VARIATION'
p1159
g47
(g49
S'\xda\xac\xbc\x9epJ\xe1?'
tRp1160
sstp1161
a(g11
(tRp1162
S'workload'
p1163
g11
(tRp1164
S'n_contents'
p1165
I300000
sS'name'
p1166
S'STATIONARY'
p1167
sS'n_warmup'
p1168
I300000
sS'rate'
p1169
F1
sS'n_measured'
p1170
I900000
sS'alpha'
p1171
F1
ssS'cache_policy'
p1172
g11
(tRp1173
g1166
S'LRU'
p1174
ssS'strategy'
p1175
g11
(tRp1176
g1166
S'C_LCF_P2P'
p1177
ssS'content_placement'
p1178
g11
(tRp1179
g1166
S'UNIFORM'
p1180
ssS'cache_placement'
p1181
g11
(tRp1182
S'network_cache'
p1183
F0.59999999999999998
sS'uCache_budget'
p1184
F180000
sg1166
S'UNIFORM_with_uCache'
p1185
sS'nCache_budget'
p1186
F0
ssS'desc'
p1187
S'strategy: C_LCF_P2P, network cache: 0.6'
p1188
sS'topology'
p1189
g11
(tRp1190
g1166
S'ROCKET_FUEL_WITH_UCACHE'
p1191
sS'asn'
p1192
I3257
ssg11
(tRp1193
S'OVERHEAD_DISTRIBUTION'
p1194
g11
(tRp1195
S'COEFFICIENT OF VARIATION'
p1196
g47
(g49
S'\x92\x9a\xbbI\xf0\x88\xe6?'
tRp1197
sstp1198
a(g11
(tRp1199
S'workload'
p1200
g11
(tRp1201
S'n_contents'
p1202
I300000
sS'name'
p1203
S'STATIONARY'
p1204
sS'n_warmup'
p1205
I300000
sS'rate'
p1206
F1
sS'n_measured'
p1207
I900000
sS'alpha'
p1208
F1
ssS'cache_policy'
p1209
g11
(tRp1210
g1203
S'LRU'
p1211
ssS'strategy'
p1212
g11
(tRp1213
g1203
S'C_LCF_P2P'
p1214
ssS'content_placement'
p1215
g11
(tRp1216
g1203
S'UNIFORM'
p1217
ssS'cache_placement'
p1218
g11
(tRp1219
S'network_cache'
p1220
F0.69999999999999996
sS'uCache_budget'
p1221
F210000
sg1203
S'UNIFORM_with_uCache'
p1222
sS'nCache_budget'
p1223
F0
ssS'desc'
p1224
S'strategy: C_LCF_P2P, network cache: 0.7'
p1225
sS'topology'
p1226
g11
(tRp1227
g1203
S'ROCKET_FUEL_WITH_UCACHE'
p1228
sS'asn'
p1229
I3257
ssg11
(tRp1230
S'OVERHEAD_DISTRIBUTION'
p1231
g11
(tRp1232
S'COEFFICIENT OF VARIATION'
p1233
g47
(g49
S'H\xd3&\x93\xd2\x03\xe3?'
tRp1234
sstp1235
a(g11
(tRp1236
S'workload'
p1237
g11
(tRp1238
S'n_contents'
p1239
I300000
sS'name'
p1240
S'STATIONARY'
p1241
sS'n_warmup'
p1242
I300000
sS'rate'
p1243
F1
sS'n_measured'
p1244
I900000
sS'alpha'
p1245
F1
ssS'cache_policy'
p1246
g11
(tRp1247
g1240
S'LRU'
p1248
ssS'strategy'
p1249
g11
(tRp1250
g1240
S'C_LCF_P2P'
p1251
ssS'content_placement'
p1252
g11
(tRp1253
g1240
S'UNIFORM'
p1254
ssS'cache_placement'
p1255
g11
(tRp1256
S'network_cache'
p1257
F0.80000000000000004
sS'uCache_budget'
p1258
F240000
sg1240
S'UNIFORM_with_uCache'
p1259
sS'nCache_budget'
p1260
F0
ssS'desc'
p1261
S'strategy: C_LCF_P2P, network cache: 0.8'
p1262
sS'topology'
p1263
g11
(tRp1264
g1240
S'ROCKET_FUEL_WITH_UCACHE'
p1265
sS'asn'
p1266
I3257
ssg11
(tRp1267
S'OVERHEAD_DISTRIBUTION'
p1268
g11
(tRp1269
S'COEFFICIENT OF VARIATION'
p1270
g47
(g49
S'\x0f\x0fJ1\x02\xaf\xe0?'
tRp1271
sstp1272
a(g11
(tRp1273
S'workload'
p1274
g11
(tRp1275
S'n_contents'
p1276
I300000
sS'name'
p1277
S'STATIONARY'
p1278
sS'n_warmup'
p1279
I300000
sS'rate'
p1280
F1
sS'n_measured'
p1281
I900000
sS'alpha'
p1282
F1
ssS'cache_policy'
p1283
g11
(tRp1284
g1277
S'LRU'
p1285
ssS'strategy'
p1286
g11
(tRp1287
g1277
S'C_LCF_P2P'
p1288
ssS'content_placement'
p1289
g11
(tRp1290
g1277
S'UNIFORM'
p1291
ssS'cache_placement'
p1292
g11
(tRp1293
S'network_cache'
p1294
F0.90000000000000002
sS'uCache_budget'
p1295
F270000
sg1277
S'UNIFORM_with_uCache'
p1296
sS'nCache_budget'
p1297
F0
ssS'desc'
p1298
S'strategy: C_LCF_P2P, network cache: 0.9'
p1299
sS'topology'
p1300
g11
(tRp1301
g1277
S'ROCKET_FUEL_WITH_UCACHE'
p1302
sS'asn'
p1303
I3257
ssg11
(tRp1304
S'OVERHEAD_DISTRIBUTION'
p1305
g11
(tRp1306
S'COEFFICIENT OF VARIATION'
p1307
g47
(g49
S'\x83\xb4\xbd\xa8\x13\xdc\xdd?'
tRp1308
sstp1309
a(g11
(tRp1310
S'workload'
p1311
g11
(tRp1312
S'n_contents'
p1313
I300000
sS'name'
p1314
S'STATIONARY'
p1315
sS'n_warmup'
p1316
I300000
sS'rate'
p1317
F1
sS'n_measured'
p1318
I900000
sS'alpha'
p1319
F1
ssS'cache_policy'
p1320
g11
(tRp1321
g1314
S'LRU'
p1322
ssS'strategy'
p1323
g11
(tRp1324
g1314
S'C_LCF_P2P'
p1325
ssS'content_placement'
p1326
g11
(tRp1327
g1314
S'UNIFORM'
p1328
ssS'cache_placement'
p1329
g11
(tRp1330
S'network_cache'
p1331
F1
sS'uCache_budget'
p1332
F300000
sg1314
S'UNIFORM_with_uCache'
p1333
sS'nCache_budget'
p1334
F0
ssS'desc'
p1335
S'strategy: C_LCF_P2P, network cache: 1.0'
p1336
sS'topology'
p1337
g11
(tRp1338
g1314
S'ROCKET_FUEL_WITH_UCACHE'
p1339
sS'asn'
p1340
I3257
ssg11
(tRp1341
S'OVERHEAD_DISTRIBUTION'
p1342
g11
(tRp1343
S'COEFFICIENT OF VARIATION'
p1344
g47
(g49
S'\x7f\x94-\x90\x95&\xd9?'
tRp1345
sstp1346
atRp1347
sb.