ccopy_reg
_reconstructor
p1
(cicarus.results.readwrite
ResultSet
p2
c__builtin__
object
p3
NtRp4
(dp5
S'attr'
p6
(dp7
sS'_results'
p8
ccollections
deque
p9
((lp10
(cicarus.util
Tree
p11
(tRp12
S'workload'
p13
g11
(tRp14
S'time_interval'
p15
I60
sS'n_contents'
p16
I5000
sS'name'
p17
S'STATIONARY'
p18
sS'n_warmup'
p19
I250
sS'rate'
p20
F10
sS'n_measured'
p21
I500
sS'alpha'
p22
F1
sS'n_segments'
p23
I5000
ssS'cache_policy'
p24
g11
(tRp25
g17
S'LRU'
p26
ssS'strategy'
p27
g11
(tRp28
g17
S'C_LCF_UM'
p29
ssS'content_placement'
p30
g11
(tRp31
g16
I5000
sg17
S'UNIFORM'
p32
sg23
I5000
ssS'cache_placement'
p33
g11
(tRp34
S'network_cache'
p35
F0.5
sS'uCache_budget'
p36
F402500
sg17
S'UNIFORM_WITH_UCACHE'
p37
sS'nCache_budget'
p38
F0
ssS'desc'
p39
S'strategy: C_LCF_UM, time interval: 60, network cache: 0.5'
p40
sS'topology'
p41
g11
(tRp42
S'asn'
p43
I3257
sg17
S'ROCKET_FUEL_WITH_UCACHE'
p44
ssg11
(tRp45
S'LATENCY'
p46
g11
(tRp47
S'MEAN'
p48
F22.087473599999999
ssS'CACHING_EFFICIENCY'
p49
g11
(tRp50
g48
F0.498
ssS'SEGMENT_PERFORMANCE_DIFFERENCE'
p51
g11
(tRp52
S'CV'
p53
cnumpy.core.multiarray
scalar
p54
(cnumpy
dtype
p55
(S'f8'
I0
I1
tRp56
(I3
S'<'
NNNI-1
I-1
I0
tbS'\x00\x00\x00\x00\x00\x00\x00\x00'
tRp57
ssS'OVERHEAD_DISTRIBUTION'
p58
g11
(tRp59
g53
g54
(g56
S'\xb7M\rVoF\xe0?'
tRp60
ssS'CACHE_EVICTION'
p61
g11
(tRp62
g48
g54
(g56
S'.\xdf\xf2-_4\xce@'
tRp63
ssS'CACHE_HIT_RATIO'
p64
g11
(tRp65
g48
F0.498
sstp66
a(g11
(tRp67
S'workload'
p68
g11
(tRp69
S'time_interval'
p70
I60
sS'n_contents'
p71
I5000
sS'name'
p72
S'STATIONARY'
p73
sS'n_warmup'
p74
I250
sS'rate'
p75
F10
sS'n_measured'
p76
I500
sS'alpha'
p77
F1
sS'n_segments'
p78
I5000
ssS'cache_policy'
p79
g11
(tRp80
g72
S'LRU'
p81
ssS'strategy'
p82
g11
(tRp83
g72
S'C_LFR_UM'
p84
ssS'content_placement'
p85
g11
(tRp86
g71
I5000
sg72
S'UNIFORM'
p87
sg78
I5000
ssS'cache_placement'
p88
g11
(tRp89
S'network_cache'
p90
F0.5
sS'uCache_budget'
p91
F402500
sg72
S'UNIFORM_WITH_UCACHE'
p92
sS'nCache_budget'
p93
F0
ssS'desc'
p94
S'strategy: C_LFR_UM, time interval: 60, network cache: 0.5'
p95
sS'topology'
p96
g11
(tRp97
S'asn'
p98
I3257
sg72
S'ROCKET_FUEL_WITH_UCACHE'
p99
ssg11
(tRp100
S'LATENCY'
p101
g11
(tRp102
S'MEAN'
p103
F17.381896000000001
ssS'CACHING_EFFICIENCY'
p104
g11
(tRp105
g103
F0.70379172104957721
ssS'SEGMENT_PERFORMANCE_DIFFERENCE'
p106
g11
(tRp107
S'CV'
p108
g54
(g56
S'\x88\xc2\x1d0\x9eh\xe2?'
tRp109
ssS'OVERHEAD_DISTRIBUTION'
p110
g11
(tRp111
g108
g54
(g56
S'C;87\xb1\xc5\xe2?'
tRp112
ssS'CACHE_EVICTION'
p113
g11
(tRp114
g103
g54
(g56
S')\xa5\x94R\xcaK\xcb@'
tRp115
ssS'CACHE_HIT_RATIO'
p116
g11
(tRp117
g103
F0.63305080000000002
sstp118
atRp119
sb.