ccopy_reg
_reconstructor
p1
(cicarus.results.readwrite
ResultSet
p2
c__builtin__
object
p3
NtRp4
(dp5
S'attr'
p6
(dp7
sS'_results'
p8
ccollections
deque
p9
((lp10
(cicarus.util
Tree
p11
(tRp12
S'workload'
p13
g11
(tRp14
S'time_interval'
p15
I1
sS'n_contents'
p16
I5000
sS'name'
p17
S'STATIONARY'
p18
sS'n_warmup'
p19
I20
sS'rate'
p20
F1
sS'n_measured'
p21
I60
sS'alpha'
p22
F1
sS'n_segments'
p23
I5000
ssS'cache_policy'
p24
g11
(tRp25
g17
S'LRU'
p26
ssS'strategy'
p27
g11
(tRp28
g17
S'C_LFR_UM'
p29
ssS'content_placement'
p30
g11
(tRp31
g16
I5000
sg17
S'UNIFORM'
p32
sg23
I5000
ssS'cache_placement'
p33
g11
(tRp34
S'network_cache'
p35
F0.001
sS'uCache_budget'
p36
F805
sg17
S'UNIFORM_WITH_UCACHE'
p37
sS'nCache_budget'
p38
F0
ssS'desc'
p39
S'strategy: C_LFR_UM, time interval: 1, network cache: 0.001'
p40
sS'topology'
p41
g11
(tRp42
S'asn'
p43
I3257
sg17
S'ROCKET_FUEL_WITH_UCACHE'
p44
ssg11
(tRp45
S'OVERHEAD_DISTRIBUTION'
p46
g11
(tRp47
S'CV'
p48
cnumpy.core.multiarray
scalar
p49
(cnumpy
dtype
p50
(S'f8'
I0
I1
tRp51
(I3
S'<'
NNNI-1
I-1
I0
tbS'K\x9c\x10\xaa\x08\x0b\xe8?'
tRp52
ssS'LATENCY'
p53
g11
(tRp54
S'MEAN'
p55
F45.87287203432426
ssS'CACHE_HIT_RATIO'
p56
g11
(tRp57
g55
F0.013582480395331484
ssS'CACHING_EFFICIENCY'
p58
g11
(tRp59
g55
F0.014562264150943397
ssS'CACHE_EVICTION'
p60
g11
(tRp61
g55
g49
(g51
S'\xca\x15\xc4\xe4\n\x02\xb6@'
tRp62
sstp63
a(g11
(tRp64
S'workload'
p65
g11
(tRp66
S'time_interval'
p67
I1
sS'n_contents'
p68
I5000
sS'name'
p69
S'STATIONARY'
p70
sS'n_warmup'
p71
I20
sS'rate'
p72
F1
sS'n_measured'
p73
I60
sS'alpha'
p74
F1
sS'n_segments'
p75
I5000
ssS'cache_policy'
p76
g11
(tRp77
g69
S'LRU'
p78
ssS'strategy'
p79
g11
(tRp80
g69
S'C_LFR_UM'
p81
ssS'content_placement'
p82
g11
(tRp83
g68
I5000
sg69
S'UNIFORM'
p84
sg75
I5000
ssS'cache_placement'
p85
g11
(tRp86
S'network_cache'
p87
F0.10000000000000001
sS'uCache_budget'
p88
F80500
sg69
S'UNIFORM_WITH_UCACHE'
p89
sS'nCache_budget'
p90
F0
ssS'desc'
p91
S'strategy: C_LFR_UM, time interval: 1, network cache: 0.1'
p92
sS'topology'
p93
g11
(tRp94
S'asn'
p95
I3257
sg69
S'ROCKET_FUEL_WITH_UCACHE'
p96
ssg11
(tRp97
S'OVERHEAD_DISTRIBUTION'
p98
g11
(tRp99
S'CV'
p100
g49
(g51
S'\x99H(\x96Fz\xf2?'
tRp101
ssS'LATENCY'
p102
g11
(tRp103
S'MEAN'
p104
F27.089726640035064
ssS'CACHE_HIT_RATIO'
p105
g11
(tRp106
g104
F0.58071604748496009
ssS'CACHING_EFFICIENCY'
p107
g11
(tRp108
g104
F0.60444727272727272
ssS'CACHE_EVICTION'
p109
g11
(tRp110
g104
g49
(g51
S'oz\xd3\x9b\xde\x86\xb5@'
tRp111
sstp112
a(g11
(tRp113
S'workload'
p114
g11
(tRp115
S'time_interval'
p116
I1
sS'n_contents'
p117
I5000
sS'name'
p118
S'STATIONARY'
p119
sS'n_warmup'
p120
I20
sS'rate'
p121
F1
sS'n_measured'
p122
I60
sS'alpha'
p123
F1
sS'n_segments'
p124
I5000
ssS'cache_policy'
p125
g11
(tRp126
g118
S'LRU'
p127
ssS'strategy'
p128
g11
(tRp129
g118
S'C_LFR_UM'
p130
ssS'content_placement'
p131
g11
(tRp132
g117
I5000
sg118
S'UNIFORM'
p133
sg124
I5000
ssS'cache_placement'
p134
g11
(tRp135
S'network_cache'
p136
F0.20000000000000001
sS'uCache_budget'
p137
F161000
sg118
S'UNIFORM_WITH_UCACHE'
p138
sS'nCache_budget'
p139
F0
ssS'desc'
p140
S'strategy: C_LFR_UM, time interval: 1, network cache: 0.2'
p141
sS'topology'
p142
g11
(tRp143
S'asn'
p144
I3257
sg118
S'ROCKET_FUEL_WITH_UCACHE'
p145
ssg11
(tRp146
S'OVERHEAD_DISTRIBUTION'
p147
g11
(tRp148
S'CV'
p149
g49
(g51
S'cpGN\xb8\xc9\xee?'
tRp150
ssS'LATENCY'
p151
g11
(tRp152
S'MEAN'
p153
F15.597374202322419
ssS'CACHE_HIT_RATIO'
p154
g11
(tRp155
g153
F0.81453871213696538
ssS'CACHING_EFFICIENCY'
p156
g11
(tRp157
g153
F0.82534537613867021
ssS'CACHE_EVICTION'
p158
g11
(tRp159
g153
g49
(g51
S'\xfb\x1cR\x13\x8c\xd1\xb1@'
tRp160
sstp161
a(g11
(tRp162
S'workload'
p163
g11
(tRp164
S'time_interval'
p165
I1
sS'n_contents'
p166
I5000
sS'name'
p167
S'STATIONARY'
p168
sS'n_warmup'
p169
I20
sS'rate'
p170
F1
sS'n_measured'
p171
I60
sS'alpha'
p172
F1
sS'n_segments'
p173
I5000
ssS'cache_policy'
p174
g11
(tRp175
g167
S'LRU'
p176
ssS'strategy'
p177
g11
(tRp178
g167
S'C_LFR_UM'
p179
ssS'content_placement'
p180
g11
(tRp181
g166
I5000
sg167
S'UNIFORM'
p182
sg173
I5000
ssS'cache_placement'
p183
g11
(tRp184
S'network_cache'
p185
F0.29999999999999999
sS'uCache_budget'
p186
F241500
sg167
S'UNIFORM_WITH_UCACHE'
p187
sS'nCache_budget'
p188
F0
ssS'desc'
p189
S'strategy: C_LFR_UM, time interval: 1, network cache: 0.3'
p190
sS'topology'
p191
g11
(tRp192
S'asn'
p193
I3257
sg167
S'ROCKET_FUEL_WITH_UCACHE'
p194
ssg11
(tRp195
S'OVERHEAD_DISTRIBUTION'
p196
g11
(tRp197
S'CV'
p198
g49
(g51
S'k\xfc0\x11\xdc\xae\xf1?'
tRp199
ssS'LATENCY'
p200
g11
(tRp201
S'MEAN'
p202
F19.16359520087823
ssS'CACHE_HIT_RATIO'
p203
g11
(tRp204
g202
F0.67258657964811996
ssS'CACHING_EFFICIENCY'
p205
g11
(tRp206
g202
F0.71948182935669935
ssS'CACHE_EVICTION'
p207
g11
(tRp208
g202
g49
(g51
S'\xa3\x8b.\xba\xe84\xb1@'
tRp209
sstp210
atRp211
sb.