ccopy_reg
_reconstructor
p1
(cicarus.results.readwrite
ResultSet
p2
c__builtin__
object
p3
NtRp4
(dp5
S'attr'
p6
(dp7
sS'_results'
p8
ccollections
deque
p9
((lp10
(cicarus.util
Tree
p11
(tRp12
S'workload'
p13
g11
(tRp14
S'n_contents'
p15
I300000
sS'name'
p16
S'STATIONARY'
p17
sS'n_warmup'
p18
I300000
sS'rate'
p19
F1
sS'n_measured'
p20
I600000
sS'alpha'
p21
F1
ssS'cache_policy'
p22
g11
(tRp23
g16
S'LRU'
p24
ssS'strategy'
p25
g11
(tRp26
g16
S'LCE'
p27
ssS'content_placement'
p28
g11
(tRp29
g16
S'UNIFORM'
p30
ssS'cache_placement'
p31
g11
(tRp32
S'network_cache'
p33
I1
sS'uCache_budget'
p34
I0
sg16
S'UNIFORM_with_uCache'
p35
sS'nCache_budget'
p36
F300000
ssS'desc'
p37
S'strategy: LCE, network cache: 1'
p38
sS'topology'
p39
g11
(tRp40
S'h'
I3
sS'k'
I2
sg16
S'TREE_with_uCache'
p41
ssg11
(tRp42
S'LATENCY'
p43
g11
(tRp44
S'MEAN'
p45
F2.7771400000000002
ssS'LINK_LOAD'
p46
g11
(tRp47
S'MEAN_INTERNAL'
p48
F81.886835307481491
sS'PER_LINK_INTERNAL'
p49
g11
(tRp50
(I7
I3
tp51
F18.806118901305496
s(I1
I3
tp52
F79.813860127106636
s(I12
I5
tp53
F18.877671669145606
s(I6
I2
tp54
F7.9371033556907351
s(I9
I4
tp55
F18.681276834339705
s(I3
I7
tp56
F188.06118901305496
s(I2
I5
tp57
F79.838878577400394
s(I6
I14
tp58
F187.41571299547633
s(I4
I9
tp59
F186.81276834339707
s(I11
I5
tp60
F18.786604510076373
s(I5
I12
tp61
F188.77671669145607
s(I4
I1
tp62
F7.9746310311313531
s(I4
I10
tp63
F186.66766133169332
s(I2
I6
tp64
F79.371033556907349
s(I10
I4
tp65
F18.666766133169332
s(I5
I11
tp66
F187.86604510076373
s(I1
I4
tp67
F79.746310311313522
s(I14
I6
tp68
F18.741571299547633
s(I13
I6
tp69
F18.845147683763738
s(I1
I0
tp70
F13.258277548667449
s(I0
I1
tp71
F132.58277548667448
s(I8
I3
tp72
F18.70554473112464
s(I3
I1
tp73
F7.9813860127106642
s(I3
I8
tp74
F187.05544731124638
s(I2
I0
tp75
F13.193229577903709
s(I6
I13
tp76
F188.45147683763739
s(I5
I2
tp77
F7.9838878577400383
s(I0
I2
tp78
F131.9322957790371
ssS'MEAN_EXTERNAL'
p79
I0
sS'PER_LINK_EXTERNAL'
p80
g11
(tRp81
ssS'CACHE_HIT_RATIO'
p82
g11
(tRp83
S'PER_NODE_SERVER_HIT_RATIO'
p84
g11
(tRp85
I0
F0.17621333333333333
ssS'PER_NODE_CACHE_HIT_RATIO'
p86
g11
(tRp87
I1
F0.017971666666666667
sI2
F0.018171666666666666
sI3
F0.19672333333333333
sI4
F0.19567833333333334
sI5
F0.19772333333333333
sI6
F0.19751833333333332
ssg45
F0.82378666666666667
ssS'PATH_STRETCH'
p88
g11
(tRp89
S'MEAN_REQUEST'
p90
F0.34714250000000002
sS'MEAN_CONTENT'
p91
F0.34714250000000002
sg45
F0.34714250000000002
sstp92
a(g11
(tRp93
S'workload'
p94
g11
(tRp95
S'n_contents'
p96
I300000
sS'name'
p97
S'STATIONARY'
p98
sS'n_warmup'
p99
I300000
sS'rate'
p100
F1
sS'n_measured'
p101
I600000
sS'alpha'
p102
F1
ssS'cache_policy'
p103
g11
(tRp104
g97
S'LRU'
p105
ssS'strategy'
p106
g11
(tRp107
g97
S'LCE'
p108
ssS'content_placement'
p109
g11
(tRp110
g97
S'UNIFORM'
p111
ssS'cache_placement'
p112
g11
(tRp113
S'network_cache'
p114
F0.5
sS'uCache_budget'
p115
F0
sg97
S'UNIFORM_with_uCache'
p116
sS'nCache_budget'
p117
F150000
ssS'desc'
p118
S'strategy: LCE, network cache: 0.5'
p119
sS'topology'
p120
g11
(tRp121
S'h'
I3
sS'k'
I2
sg97
S'TREE_with_uCache'
p122
ssg11
(tRp123
S'LATENCY'
p124
g11
(tRp125
S'MEAN'
p126
F2.9791699999999999
ssS'LINK_LOAD'
p127
g11
(tRp128
S'MEAN_INTERNAL'
p129
F87.616983783162112
sS'PER_LINK_INTERNAL'
p130
g11
(tRp131
(I7
I3
tp132
F18.864092629624402
s(I1
I3
tp133
F96.753460967303411
s(I12
I5
tp134
F18.70838076919679
s(I6
I2
tp135
F9.576279416298032
s(I9
I4
tp136
F18.659720812813163
s(I3
I7
tp137
F188.640926296244
s(I2
I5
tp138
F96.261870638709837
s(I6
I14
tp139
F186.06319629910104
s(I4
I9
tp140
F186.59720812813163
s(I11
I5
tp141
F18.701643236774441
s(I5
I12
tp142
F187.08380769196791
s(I4
I1
tp143
F9.6578784200798076
s(I4
I10
tp144
F187.58038878531877
s(I2
I6
tp145
F95.762794162980313
s(I10
I4
tp146
F18.758038878531877
s(I5
I11
tp147
F187.01643236774441
s(I1
I4
tp148
F96.578784200798083
s(I14
I6
tp149
F18.606319629910104
s(I13
I6
tp150
F18.694157089638498
s(I1
I0
tp151
F17.457695121018613
s(I0
I1
tp152
F174.57695121018614
s(I8
I3
tp153
F18.730589672366754
s(I3
I1
tp154
F9.6753460967303404
s(I3
I8
tp155
F187.30589672366753
s(I2
I0
tp156
F17.30872079301335
s(I6
I13
tp157
F186.94157089638497
s(I5
I2
tp158
F9.626187063870983
s(I0
I2
tp159
F173.0872079301335
ssS'MEAN_EXTERNAL'
p160
I0
sS'PER_LINK_EXTERNAL'
p161
g11
(tRp162
ssS'CACHE_HIT_RATIO'
p163
g11
(tRp164
S'PER_NODE_SERVER_HIT_RATIO'
p165
g11
(tRp166
I0
F0.23220499999999999
ssS'PER_NODE_CACHE_HIT_RATIO'
p167
g11
(tRp168
I1
F0.012526666666666667
sI2
F0.012648333333333333
sI3
F0.18647333333333332
sI4
F0.18540833333333334
sI5
F0.18556833333333334
sI6
F0.18517
ssg126
F0.76779500000000001
ssS'PATH_STRETCH'
p169
g11
(tRp170
S'MEAN_REQUEST'
p171
F0.37239624999999998
sS'MEAN_CONTENT'
p172
F0.37239624999999998
sg126
F0.37239624999999998
sstp173
a(g11
(tRp174
S'workload'
p175
g11
(tRp176
S'n_contents'
p177
I300000
sS'name'
p178
S'STATIONARY'
p179
sS'n_warmup'
p180
I300000
sS'rate'
p181
F1
sS'n_measured'
p182
I600000
sS'alpha'
p183
F1
ssS'cache_policy'
p184
g11
(tRp185
g178
S'LRU'
p186
ssS'strategy'
p187
g11
(tRp188
g178
S'LCE'
p189
ssS'content_placement'
p190
g11
(tRp191
g178
S'UNIFORM'
p192
ssS'cache_placement'
p193
g11
(tRp194
S'network_cache'
p195
F0.10000000000000001
sS'uCache_budget'
p196
F0
sg178
S'UNIFORM_with_uCache'
p197
sS'nCache_budget'
p198
F30000
ssS'desc'
p199
S'strategy: LCE, network cache: 0.1'
p200
sS'topology'
p201
g11
(tRp202
S'h'
I3
sS'k'
I2
sg178
S'TREE_with_uCache'
p203
ssg11
(tRp204
S'LATENCY'
p205
g11
(tRp206
S'MEAN'
p207
F3.5838666666666668
ssS'LINK_LOAD'
p208
g11
(tRp209
S'MEAN_INTERNAL'
p210
F105.61987345261046
sS'PER_LINK_INTERNAL'
p211
g11
(tRp212
(I7
I3
tp213
F18.836244852205567
s(I1
I3
tp214
F153.59461339765755
s(I12
I5
tp215
F18.766479130113314
s(I6
I2
tp216
F15.306449393229705
s(I9
I4
tp217
F18.71721802885104
s(I3
I7
tp218
F188.3624485220557
s(I2
I5
tp219
F152.95696970111544
s(I6
I14
tp220
F187.21218930476402
s(I4
I9
tp221
F187.17218028851042
s(I11
I5
tp222
F18.729970902781883
s(I5
I12
tp223
F187.66479130113314
s(I4
I1
tp224
F15.162666991068249
s(I4
I10
tp225
F187.15467634389944
s(I2
I6
tp226
F153.06449393229707
s(I10
I4
tp227
F18.715467634389945
s(I5
I11
tp228
F187.29970902781884
s(I1
I4
tp229
F151.62666991068249
s(I14
I6
tp230
F18.721218930476404
s(I13
I6
tp231
F18.774480933364039
s(I1
I0
tp232
F28.812993167749561
s(I0
I1
tp233
F288.12993167749562
s(I8
I3
tp234
F18.772730538902941
s(I3
I1
tp235
F15.359461339765756
s(I3
I8
tp236
F187.72730538902942
s(I2
I0
tp237
F28.879508157271207
s(I6
I13
tp238
F187.74480933364038
s(I5
I2
tp239
F15.295696970111544
s(I0
I2
tp240
F288.79508157271209
ssS'MEAN_EXTERNAL'
p241
I0
sS'PER_LINK_EXTERNAL'
p242
g11
(tRp243
ssS'CACHE_HIT_RATIO'
p244
g11
(tRp245
S'PER_NODE_SERVER_HIT_RATIO'
p246
g11
(tRp247
I0
F0.38452999999999998
ssS'PER_NODE_CACHE_HIT_RATIO'
p248
g11
(tRp249
I1
F0.011391666666666666
sI2
F0.011481666666666666
sI3
F0.14829666666666666
sI4
F0.14843333333333333
sI5
F0.14797166666666667
sI6
F0.147895
ssg207
F0.61546999999999996
ssS'PATH_STRETCH'
p250
g11
(tRp251
S'MEAN_REQUEST'
p252
F0.44798333333333334
sS'MEAN_CONTENT'
p253
F0.44798333333333334
sg207
F0.44798333333333334
sstp254
a(g11
(tRp255
S'workload'
p256
g11
(tRp257
S'n_contents'
p258
I300000
sS'name'
p259
S'STATIONARY'
p260
sS'n_warmup'
p261
I300000
sS'rate'
p262
F1
sS'n_measured'
p263
I600000
sS'alpha'
p264
F1
ssS'cache_policy'
p265
g11
(tRp266
g259
S'LRU'
p267
ssS'strategy'
p268
g11
(tRp269
g259
S'LCE'
p270
ssS'content_placement'
p271
g11
(tRp272
g259
S'UNIFORM'
p273
ssS'cache_placement'
p274
g11
(tRp275
S'network_cache'
p276
F0.050000000000000003
sS'uCache_budget'
p277
F0
sg259
S'UNIFORM_with_uCache'
p278
sS'nCache_budget'
p279
F15000
ssS'desc'
p280
S'strategy: LCE, network cache: 0.05'
p281
sS'topology'
p282
g11
(tRp283
S'h'
I3
sS'k'
I2
sg259
S'TREE_with_uCache'
p284
ssg11
(tRp285
S'LATENCY'
p286
g11
(tRp287
S'MEAN'
p288
F3.8294433333333333
ssS'LINK_LOAD'
p289
g11
(tRp290
S'MEAN_INTERNAL'
p291
F112.80013369929699
sS'PER_LINK_INTERNAL'
p292
g11
(tRp293
(I7
I3
tp294
F18.834710458052378
s(I1
I3
tp295
F176.02556496292846
s(I12
I5
tp296
F18.780225759540496
s(I6
I2
tp297
F17.643295055271913
s(I9
I4
tp298
F18.865701754453632
s(I3
I7
tp299
F188.34710458052376
s(I2
I5
tp300
F175.53070393974716
s(I6
I14
tp301
F188.30961510907062
s(I4
I9
tp302
F188.6570175445363
s(I11
I5
tp303
F18.615771944766099
s(I5
I12
tp304
F187.80225759540494
s(I4
I1
tp305
F17.499835344511272
s(I4
I10
tp306
F186.37265908399226
s(I2
I6
tp307
F176.43295055271912
s(I10
I4
tp308
F18.637265908399225
s(I5
I11
tp309
F186.15771944766098
s(I1
I4
tp310
F174.99835344511271
s(I14
I6
tp311
F18.830961510907063
s(I13
I6
tp312
F18.768229128675493
s(I1
I0
tp313
F33.391372363683274
s(I0
I1
tp314
F333.91372363683274
s(I8
I3
tp315
F18.625019347724539
s(I3
I1
tp316
F17.602556496292845
s(I3
I8
tp317
F186.25019347724538
s(I2
I0
tp318
F33.479597586502976
s(I6
I13
tp319
F187.68229128675492
s(I5
I2
tp320
F17.553070393974714
s(I0
I2
tp321
F334.79597586502973
ssS'MEAN_EXTERNAL'
p322
I0
sS'PER_LINK_EXTERNAL'
p323
g11
(tRp324
ssS'CACHE_HIT_RATIO'
p325
g11
(tRp326
S'PER_NODE_SERVER_HIT_RATIO'
p327
g11
(tRp328
I0
F0.44593166666666667
ssS'PER_NODE_CACHE_HIT_RATIO'
p329
g11
(tRp330
I1
F0.01141
sI2
F0.011448333333333333
sI3
F0.13241833333333333
sI4
F0.13339166666666666
sI5
F0.13232333333333332
sI6
F0.13307666666666668
ssg288
F0.55406833333333338
ssS'PATH_STRETCH'
p331
g11
(tRp332
S'MEAN_REQUEST'
p333
F0.47868041666666666
sS'MEAN_CONTENT'
p334
F0.47868041666666666
sg288
F0.47868041666666666
sstp335
a(g11
(tRp336
S'workload'
p337
g11
(tRp338
S'n_contents'
p339
I300000
sS'name'
p340
S'STATIONARY'
p341
sS'n_warmup'
p342
I300000
sS'rate'
p343
F1
sS'n_measured'
p344
I600000
sS'alpha'
p345
F1
ssS'cache_policy'
p346
g11
(tRp347
g340
S'LRU'
p348
ssS'strategy'
p349
g11
(tRp350
g340
S'LCE'
p351
ssS'content_placement'
p352
g11
(tRp353
g340
S'UNIFORM'
p354
ssS'cache_placement'
p355
g11
(tRp356
S'network_cache'
p357
F0.01
sS'uCache_budget'
p358
F0
sg340
S'UNIFORM_with_uCache'
p359
sS'nCache_budget'
p360
F3000
ssS'desc'
p361
S'strategy: LCE, network cache: 0.01'
p362
sS'topology'
p363
g11
(tRp364
S'h'
I3
sS'k'
I2
sg340
S'TREE_with_uCache'
p365
ssg11
(tRp366
S'LATENCY'
p367
g11
(tRp368
S'MEAN'
p369
F4.3887499999999999
ssS'LINK_LOAD'
p370
g11
(tRp371
S'MEAN_INTERNAL'
p372
F129.17130759228834
sS'PER_LINK_INTERNAL'
p373
g11
(tRp374
(I7
I3
tp375
F18.675747589859569
s(I1
I3
tp376
F226.58178949715827
s(I12
I5
tp377
F18.732685844706701
s(I6
I2
tp378
F22.797527836578546
s(I9
I4
tp379
F18.77913547366094
s(I3
I7
tp380
F186.75747589859569
s(I2
I5
tp381
F229.34878889937858
s(I6
I14
tp382
F187.24944239880995
s(I4
I9
tp383
F187.79135473660941
s(I11
I5
tp384
F18.8488099170923
s(I5
I12
tp385
F187.326858447067
s(I4
I1
tp386
F22.726105288831704
s(I4
I10
tp387
F186.68255714221786
s(I2
I6
tp388
F227.97527836578547
s(I10
I4
tp389
F18.668255714221786
s(I5
I11
tp390
F188.48809917092299
s(I1
I4
tp391
F227.26105288831704
s(I14
I6
tp392
F18.724944239880994
s(I13
I6
tp393
F18.797115975191613
s(I1
I0
tp394
F43.775279080740177
s(I0
I1
tp395
F437.75279080740177
s(I8
I3
tp396
F18.610818000998801
s(I3
I1
tp397
F22.658178949715829
s(I3
I8
tp398
F186.10818000998802
s(I2
I0
tp399
F44.070209251680808
s(I6
I13
tp400
F187.97115975191613
s(I5
I2
tp401
F22.93487888993786
s(I0
I2
tp402
F440.70209251680808
ssS'MEAN_EXTERNAL'
p403
I0
sS'PER_LINK_EXTERNAL'
p404
g11
(tRp405
ssS'CACHE_HIT_RATIO'
p406
g11
(tRp407
S'PER_NODE_SERVER_HIT_RATIO'
p408
g11
(tRp409
I0
F0.58627166666666664
ssS'PER_NODE_CACHE_HIT_RATIO'
p410
g11
(tRp411
I1
F0.010738333333333334
sI2
F0.011093333333333334
sI3
F0.097628333333333331
sI4
F0.098248333333333326
sI5
F0.097750000000000004
sI6
F0.098269999999999996
ssg369
F0.41372833333333331
ssS'PATH_STRETCH'
p412
g11
(tRp413
S'MEAN_REQUEST'
p414
F0.54859374999999999
sS'MEAN_CONTENT'
p415
F0.54859374999999999
sg369
F0.54859374999999999
sstp416
a(g11
(tRp417
S'workload'
p418
g11
(tRp419
S'n_contents'
p420
I300000
sS'name'
p421
S'STATIONARY'
p422
sS'n_warmup'
p423
I300000
sS'rate'
p424
F1
sS'n_measured'
p425
I600000
sS'alpha'
p426
F1
ssS'cache_policy'
p427
g11
(tRp428
g421
S'LRU'
p429
ssS'strategy'
p430
g11
(tRp431
g421
S'LCE'
p432
ssS'content_placement'
p433
g11
(tRp434
g421
S'UNIFORM'
p435
ssS'cache_placement'
p436
g11
(tRp437
S'network_cache'
p438
F0.0050000000000000001
sS'uCache_budget'
p439
F0
sg421
S'UNIFORM_with_uCache'
p440
sS'nCache_budget'
p441
F1500
ssS'desc'
p442
S'strategy: LCE, network cache: 0.005'
p443
sS'topology'
p444
g11
(tRp445
S'h'
I3
sS'k'
I2
sg421
S'TREE_with_uCache'
p446
ssg11
(tRp447
S'LATENCY'
p448
g11
(tRp449
S'MEAN'
p450
F4.6222933333333334
ssS'LINK_LOAD'
p451
g11
(tRp452
S'MEAN_INTERNAL'
p453
F135.89357199203798
sS'PER_LINK_INTERNAL'
p454
g11
(tRp455
(I7
I3
tp456
F18.687383139598744
s(I1
I3
tp457
F248.42091260955496
s(I12
I5
tp458
F18.629759924909269
s(I6
I2
tp459
F25.10251825721442
s(I9
I4
tp460
F18.608307126366867
s(I3
I7
tp461
F186.87383139598742
s(I2
I5
tp462
F249.540948254385
s(I6
I14
tp463
F188.16099930853153
s(I4
I9
tp464
F186.08307126366867
s(I11
I5
tp465
F18.74276129397564
s(I5
I12
tp466
F186.29759924909268
s(I4
I1
tp467
F24.822883522725672
s(I4
I10
tp468
F187.22306300016606
s(I2
I6
tp469
F251.02518257214419
s(I10
I4
tp470
F18.722306300016605
s(I5
I11
tp471
F187.42761293975641
s(I1
I4
tp472
F248.2288352272567
s(I14
I6
tp473
F18.816099930853152
s(I13
I6
tp474
F18.768704213143195
s(I1
I0
tp475
F48.10415896414851
s(I0
I1
tp476
F481.04158964148507
s(I8
I3
tp477
F18.695365576265683
s(I3
I1
tp478
F24.842091260955495
s(I3
I8
tp479
F186.95365576265684
s(I2
I0
tp480
F48.414476189575808
s(I6
I13
tp481
F187.68704213143195
s(I5
I2
tp482
F24.954094825438499
s(I0
I2
tp483
F484.14476189575811
ssS'MEAN_EXTERNAL'
p484
I0
sS'PER_LINK_EXTERNAL'
p485
g11
(tRp486
ssS'CACHE_HIT_RATIO'
p487
g11
(tRp488
S'PER_NODE_SERVER_HIT_RATIO'
p489
g11
(tRp490
I0
F0.6448733333333333
ssS'PER_NODE_CACHE_HIT_RATIO'
p491
g11
(tRp492
I1
F0.010428333333333333
sI2
F0.010971666666666666
sI3
F0.08378833333333334
sI4
F0.083568333333333328
sI5
F0.082971666666666666
sI6
F0.083398333333333338
ssg450
F0.35512666666666665
ssS'PATH_STRETCH'
p493
g11
(tRp494
S'MEAN_REQUEST'
p495
F0.57778666666666667
sS'MEAN_CONTENT'
p496
F0.57778666666666667
sg450
F0.57778666666666667
sstp497
a(g11
(tRp498
S'workload'
p499
g11
(tRp500
S'n_contents'
p501
I300000
sS'name'
p502
S'STATIONARY'
p503
sS'n_warmup'
p504
I300000
sS'rate'
p505
F1
sS'n_measured'
p506
I600000
sS'alpha'
p507
F1
ssS'cache_policy'
p508
g11
(tRp509
g502
S'LRU'
p510
ssS'strategy'
p511
g11
(tRp512
g502
S'LCE'
p513
ssS'content_placement'
p514
g11
(tRp515
g502
S'UNIFORM'
p516
ssS'cache_placement'
p517
g11
(tRp518
S'network_cache'
p519
F0.001
sS'uCache_budget'
p520
F300
sg502
S'UNIFORM_with_uCache'
p521
sS'nCache_budget'
p522
F300
ssS'desc'
p523
S'strategy: LCE, network cache: 0.001'
p524
sS'topology'
p525
g11
(tRp526
S'h'
I3
sS'k'
I2
sg502
S'TREE_with_uCache'
p527
ssg11
(tRp528
S'LATENCY'
p529
g11
(tRp530
S'MEAN'
p531
F5.1594433333333329
ssS'LINK_LOAD'
p532
g11
(tRp533
S'MEAN_INTERNAL'
p534
F151.74414051157606
sS'PER_LINK_INTERNAL'
p535
g11
(tRp536
(I7
I3
tp537
F18.728537772780982
s(I1
I3
tp538
F300.10329433935613
s(I12
I5
tp539
F18.686613797486814
s(I6
I2
tp540
F29.874575609173551
s(I9
I4
tp541
F18.622729644657607
s(I3
I7
tp542
F187.28537772780982
s(I2
I5
tp543
F299.93360205840355
s(I6
I14
tp544
F187.18306326429428
s(I4
I9
tp545
F186.22729644657608
s(I11
I5
tp546
F18.803152466905718
s(I5
I12
tp547
F186.86613797486814
s(I4
I1
tp548
F29.949689398242267
s(I4
I10
tp549
F187.65470798635366
s(I2
I6
tp550
F298.74575609173553
s(I10
I4
tp551
F18.765470798635366
s(I5
I11
tp552
F188.03152466905718
s(I1
I4
tp553
F299.49689398242265
s(I14
I6
tp554
F18.718306326429428
s(I13
I6
tp555
F18.612997293250032
s(I1
I0
tp556
F58.390365233366524
s(I0
I1
tp557
F583.90365233366526
s(I8
I3
tp558
F18.790675093306263
s(I3
I1
tp559
F30.010329433935617
s(I3
I8
tp560
F187.90675093306263
s(I2
I0
tp561
F58.311009137273999
s(I6
I13
tp562
F186.12997293250032
s(I5
I2
tp563
F29.993360205840357
s(I0
I2
tp564
F583.11009137273993
ssS'MEAN_EXTERNAL'
p565
I0
sS'PER_LINK_EXTERNAL'
p566
g11
(tRp567
ssS'CACHE_HIT_RATIO'
p568
g11
(tRp569
S'PER_NODE_SERVER_HIT_RATIO'
p570
g11
(tRp571
I0
F0.77942
ssS'PER_NODE_CACHE_HIT_RATIO'
p572
g11
(tRp573
I1
F0.010483333333333334
sI2
F0.010398333333333334
sI3
F0.05015
sI4
F0.049680000000000002
sI5
F0.050066666666666669
sI6
F0.049801666666666668
ssg531
F0.22058
ssS'PATH_STRETCH'
p574
g11
(tRp575
S'MEAN_REQUEST'
p576
F0.64493041666666662
sS'MEAN_CONTENT'
p577
F0.64493041666666662
sg531
F0.64493041666666662
sstp578
a(g11
(tRp579
S'workload'
p580
g11
(tRp581
S'n_contents'
p582
I300000
sS'name'
p583
S'STATIONARY'
p584
sS'n_warmup'
p585
I300000
sS'rate'
p586
F1
sS'n_measured'
p587
I600000
sS'alpha'
p588
F1
ssS'cache_policy'
p589
g11
(tRp590
g583
S'LRU'
p591
ssS'strategy'
p592
g11
(tRp593
g583
S'LCE'
p594
ssS'content_placement'
p595
g11
(tRp596
g583
S'UNIFORM'
p597
ssS'cache_placement'
p598
g11
(tRp599
S'network_cache'
p600
F0.001
sS'uCache_budget'
p601
F0
sg583
S'UNIFORM_with_uCache'
p602
sS'nCache_budget'
p603
F300
ssS'desc'
p604
S'strategy: LCE, network cache: 0.001'
p605
sS'topology'
p606
g11
(tRp607
S'h'
I3
sS'k'
I2
sg583
S'TREE_with_uCache'
p608
ssg11
(tRp609
S'LATENCY'
p610
g11
(tRp611
S'MEAN'
p612
F5.1629666666666667
ssS'LINK_LOAD'
p613
g11
(tRp614
S'MEAN_INTERNAL'
p615
F152.00357570647569
sS'PER_LINK_INTERNAL'
p616
g11
(tRp617
(I7
I3
tp618
F18.841931009523275
s(I1
I3
tp619
F301.83261166673446
s(I12
I5
tp620
F18.706287691637488
s(I6
I2
tp621
F29.951443488960724
s(I9
I4
tp622
F18.678809303115507
s(I3
I7
tp623
F188.41931009523273
s(I2
I5
tp624
F299.62934451433551
s(I6
I14
tp625
F186.69566572430841
s(I4
I9
tp626
F186.78809303115506
s(I11
I5
tp627
F18.679808517243579
s(I5
I12
tp628
F187.06287691637488
s(I4
I1
tp629
F29.992661071743697
s(I4
I10
tp630
F187.40011168459921
s(I2
I6
tp631
F299.51443488960723
s(I10
I4
tp632
F18.740011168459922
s(I5
I11
tp633
F186.79808517243578
s(I1
I4
tp634
F299.92661071743697
s(I14
I6
tp635
F18.669566572430838
s(I13
I6
tp636
F18.760994665149436
s(I1
I0
tp637
F58.63088739288569
s(I0
I1
tp638
F586.30887392885688
s(I8
I3
tp639
F18.804710283252589
s(I3
I1
tp640
F30.18326116667345
s(I3
I8
tp641
F188.04710283252589
s(I2
I0
tp642
F58.314885924882887
s(I6
I13
tp643
F187.60994665149437
s(I5
I2
tp644
F29.962934451433554
s(I0
I2
tp645
F583.1488592488289
ssS'MEAN_EXTERNAL'
p646
I0
sS'PER_LINK_EXTERNAL'
p647
g11
(tRp648
ssS'CACHE_HIT_RATIO'
p649
g11
(tRp650
S'PER_NODE_SERVER_HIT_RATIO'
p651
g11
(tRp652
I0
F0.78025166666666668
ssS'PER_NODE_CACHE_HIT_RATIO'
p653
g11
(tRp654
I1
F0.010308333333333333
sI2
F0.010671666666666666
sI3
F0.049794999999999999
sI4
F0.049546666666666669
sI5
F0.049526666666666663
sI6
F0.0499
ssg612
F0.21974833333333332
ssS'PATH_STRETCH'
p655
g11
(tRp656
S'MEAN_REQUEST'
p657
F0.64537083333333334
sS'MEAN_CONTENT'
p658
F0.64537083333333334
sg612
F0.64537083333333334
sstp659
a(g11
(tRp660
S'workload'
p661
g11
(tRp662
S'n_contents'
p663
I300000
sS'name'
p664
S'STATIONARY'
p665
sS'n_warmup'
p666
I300000
sS'rate'
p667
F1
sS'n_measured'
p668
I600000
sS'alpha'
p669
F1
ssS'cache_policy'
p670
g11
(tRp671
g664
S'LRU'
p672
ssS'strategy'
p673
g11
(tRp674
g664
S'LCE'
p675
ssS'content_placement'
p676
g11
(tRp677
g664
S'UNIFORM'
p678
ssS'cache_placement'
p679
g11
(tRp680
S'network_cache'
p681
F0.10000000000000001
sS'uCache_budget'
p682
F30000
sg664
S'UNIFORM_with_uCache'
p683
sS'nCache_budget'
p684
F30000
ssS'desc'
p685
S'strategy: LCE, network cache: 0.1'
p686
sS'topology'
p687
g11
(tRp688
S'h'
I3
sS'k'
I2
sg664
S'TREE_with_uCache'
p689
ssg11
(tRp690
S'LATENCY'
p691
g11
(tRp692
S'MEAN'
p693
F3.5810266666666668
ssS'LINK_LOAD'
p694
g11
(tRp695
S'MEAN_INTERNAL'
p696
F105.47302280432096
sS'PER_LINK_INTERNAL'
p697
g11
(tRp698
(I7
I3
tp699
F18.676528587808701
s(I1
I3
tp700
F152.75548076241159
s(I12
I5
tp701
F18.786237636568945
s(I6
I2
tp702
F15.286044158354896
s(I9
I4
tp703
F18.713014968489784
s(I3
I7
tp704
F186.76528587808701
s(I2
I5
tp705
F152.34563374654189
s(I6
I14
tp706
F186.85275322903482
s(I4
I9
tp707
F187.13014968489784
s(I11
I5
tp708
F18.693272337847279
s(I5
I12
tp709
F187.86237636568944
s(I4
I1
tp710
F15.200326154426049
s(I4
I10
tp711
F187.02019072942059
s(I2
I6
tp712
F152.86044158354895
s(I10
I4
tp713
F18.702019072942061
s(I5
I11
tp714
F186.93272337847282
s(I1
I4
tp715
F152.00326154426051
s(I14
I6
tp716
F18.685275322903482
s(I13
I6
tp717
F18.79123577090882
s(I1
I0
tp718
F28.752267603561521
s(I0
I1
tp719
F287.52267603561518
s(I8
I3
tp720
F18.896446498763176
s(I3
I1
tp721
F15.27554807624116
s(I3
I8
tp722
F188.96446498763174
s(I2
I0
tp723
F28.784005756619724
s(I6
I13
tp724
F187.91235770908818
s(I5
I2
tp725
F15.23456337465419
s(I0
I2
tp726
F287.84005756619723
ssS'MEAN_EXTERNAL'
p727
I0
sS'PER_LINK_EXTERNAL'
p728
g11
(tRp729
ssS'CACHE_HIT_RATIO'
p730
g11
(tRp731
S'PER_NODE_SERVER_HIT_RATIO'
p732
g11
(tRp733
I0
F0.38371833333333333
ssS'PER_NODE_CACHE_HIT_RATIO'
p734
g11
(tRp735
I1
F0.011495
sI2
F0.011581666666666667
sI3
F0.148705
sI4
F0.14815333333333333
sI5
F0.14835499999999999
sI6
F0.14799166666666666
ssg693
F0.61628166666666662
ssS'PATH_STRETCH'
p736
g11
(tRp737
S'MEAN_REQUEST'
p738
F0.44762833333333335
sS'MEAN_CONTENT'
p739
F0.44762833333333335
sg693
F0.44762833333333335
sstp740
a(g11
(tRp741
S'workload'
p742
g11
(tRp743
S'n_contents'
p744
I300000
sS'name'
p745
S'STATIONARY'
p746
sS'n_warmup'
p747
I300000
sS'rate'
p748
F1
sS'n_measured'
p749
I600000
sS'alpha'
p750
F1
ssS'cache_policy'
p751
g11
(tRp752
g745
S'LRU'
p753
ssS'strategy'
p754
g11
(tRp755
g745
S'LCE'
p756
ssS'content_placement'
p757
g11
(tRp758
g745
S'UNIFORM'
p759
ssS'cache_placement'
p760
g11
(tRp761
S'network_cache'
p762
F0.050000000000000003
sS'uCache_budget'
p763
F15000
sg745
S'UNIFORM_with_uCache'
p764
sS'nCache_budget'
p765
F15000
ssS'desc'
p766
S'strategy: LCE, network cache: 0.05'
p767
sS'topology'
p768
g11
(tRp769
S'h'
I3
sS'k'
I2
sg745
S'TREE_with_uCache'
p770
ssg11
(tRp771
S'LATENCY'
p772
g11
(tRp773
S'MEAN'
p774
F3.8282533333333335
ssS'LINK_LOAD'
p775
g11
(tRp776
S'MEAN_INTERNAL'
p777
F112.96650162853379
sS'PER_LINK_INTERNAL'
p778
g11
(tRp779
(I7
I3
tp780
F18.799249110184533
s(I1
I3
tp781
F175.49871705413599
s(I12
I5
tp782
F18.727891883659542
s(I6
I2
tp783
F17.627237961540697
s(I9
I4
tp784
F18.932449266364522
s(I3
I7
tp785
F187.99249110184533
s(I2
I5
tp786
F175.51624339047547
s(I6
I14
tp787
F187.72959605675325
s(I4
I9
tp788
F189.3244926636452
s(I11
I5
tp789
F18.692588834747177
s(I5
I12
tp790
F187.27891883659541
s(I4
I1
tp791
F17.614969526103067
s(I4
I10
tp792
F187.16875329389015
s(I2
I6
tp793
F176.27237961540698
s(I10
I4
tp794
F18.716875329389016
s(I5
I11
tp795
F186.92588834747175
s(I1
I4
tp796
F176.14969526103067
s(I14
I6
tp797
F18.772959605675325
s(I13
I6
tp798
F18.839309307531899
s(I1
I0
tp799
F33.505848308868927
s(I0
I1
tp800
F335.05848308868929
s(I8
I3
tp801
F18.744416715065327
s(I3
I1
tp802
F17.549871705413601
s(I3
I8
tp803
F187.44416715065327
s(I2
I0
tp804
F33.475803160858405
s(I6
I13
tp805
F188.39309307531897
s(I5
I2
tp806
F17.551624339047546
s(I0
I2
tp807
F334.75803160858408
ssS'MEAN_EXTERNAL'
p808
I0
sS'PER_LINK_EXTERNAL'
p809
g11
(tRp810
ssS'CACHE_HIT_RATIO'
p811
g11
(tRp812
S'PER_NODE_SERVER_HIT_RATIO'
p813
g11
(tRp814
I0
F0.44587333333333334
ssS'PER_NODE_CACHE_HIT_RATIO'
p815
g11
(tRp816
I1
F0.011043333333333334
sI2
F0.011336666666666667
sI3
F0.13309166666666666
sI4
F0.13336166666666666
sI5
F0.13225999999999999
sI6
F0.13303333333333334
ssg774
F0.55412666666666666
ssS'PATH_STRETCH'
p817
g11
(tRp818
S'MEAN_REQUEST'
p819
F0.47853166666666669
sS'MEAN_CONTENT'
p820
F0.47853166666666669
sg774
F0.47853166666666669
sstp821
a(g11
(tRp822
S'workload'
p823
g11
(tRp824
S'n_contents'
p825
I300000
sS'name'
p826
S'STATIONARY'
p827
sS'n_warmup'
p828
I300000
sS'rate'
p829
F1
sS'n_measured'
p830
I600000
sS'alpha'
p831
F1
ssS'cache_policy'
p832
g11
(tRp833
g826
S'LRU'
p834
ssS'strategy'
p835
g11
(tRp836
g826
S'LCE'
p837
ssS'content_placement'
p838
g11
(tRp839
g826
S'UNIFORM'
p840
ssS'cache_placement'
p841
g11
(tRp842
S'network_cache'
p843
F0.01
sS'uCache_budget'
p844
F3000
sg826
S'UNIFORM_with_uCache'
p845
sS'nCache_budget'
p846
F3000
ssS'desc'
p847
S'strategy: LCE, network cache: 0.01'
p848
sS'topology'
p849
g11
(tRp850
S'h'
I3
sS'k'
I2
sg826
S'TREE_with_uCache'
p851
ssg11
(tRp852
S'LATENCY'
p853
g11
(tRp854
S'MEAN'
p855
F4.3876566666666665
ssS'LINK_LOAD'
p856
g11
(tRp857
S'MEAN_INTERNAL'
p858
F128.87356235179183
sS'PER_LINK_INTERNAL'
p859
g11
(tRp860
(I7
I3
tp861
F18.688929819517121
s(I1
I3
tp862
F227.1176862879617
s(I12
I5
tp863
F18.601205915362353
s(I6
I2
tp864
F22.731207448466829
s(I9
I4
tp865
F18.708867070461384
s(I3
I7
tp866
F186.88929819517119
s(I2
I5
tp867
F226.67159029808377
s(I6
I14
tp868
F186.82699428597036
s(I4
I9
tp869
F187.08867070461383
s(I11
I5
tp870
F18.710113148645402
s(I5
I12
tp871
F186.01205915362354
s(I4
I1
tp872
F22.77257724417618
s(I4
I10
tp873
F187.62448432374097
s(I2
I6
tp874
F227.3120744846683
s(I10
I4
tp875
F18.762448432374097
s(I5
I11
tp876
F187.10113148645402
s(I1
I4
tp877
F227.72577244176179
s(I14
I6
tp878
F18.682699428597036
s(I13
I6
tp879
F18.70413197336212
s(I1
I0
tp880
F43.85447560827869
s(I0
I1
tp881
F438.54475608278693
s(I8
I3
tp882
F18.67098629366728
s(I3
I1
tp883
F22.711768628796172
s(I3
I8
tp884
F186.70986293667281
s(I2
I0
tp885
F43.775225035775243
s(I6
I13
tp886
F187.04131973362121
s(I5
I2
tp887
F22.667159029808378
s(I0
I2
tp888
F437.75225035775242
ssS'MEAN_EXTERNAL'
p889
I0
sS'PER_LINK_EXTERNAL'
p890
g11
(tRp891
ssS'CACHE_HIT_RATIO'
p892
g11
(tRp893
S'PER_NODE_SERVER_HIT_RATIO'
p894
g11
(tRp895
I0
F0.58603666666666665
ssS'PER_NODE_CACHE_HIT_RATIO'
p896
g11
(tRp897
I1
F0.0109
sI2
F0.010855
sI3
F0.097961666666666669
sI4
F0.098299999999999998
sI5
F0.097934999999999994
sI6
F0.098011666666666664
ssg855
F0.41396333333333335
ssS'PATH_STRETCH'
p898
g11
(tRp899
S'MEAN_REQUEST'
p900
F0.54845708333333332
sS'MEAN_CONTENT'
p901
F0.54845708333333332
sg855
F0.54845708333333332
sstp902
a(g11
(tRp903
S'workload'
p904
g11
(tRp905
S'n_contents'
p906
I300000
sS'name'
p907
S'STATIONARY'
p908
sS'n_warmup'
p909
I300000
sS'rate'
p910
F1
sS'n_measured'
p911
I600000
sS'alpha'
p912
F1
ssS'cache_policy'
p913
g11
(tRp914
g907
S'LRU'
p915
ssS'strategy'
p916
g11
(tRp917
g907
S'LCE'
p918
ssS'content_placement'
p919
g11
(tRp920
g907
S'UNIFORM'
p921
ssS'cache_placement'
p922
g11
(tRp923
S'network_cache'
p924
F0.5
sS'uCache_budget'
p925
F150000
sg907
S'UNIFORM_with_uCache'
p926
sS'nCache_budget'
p927
F150000
ssS'desc'
p928
S'strategy: LCE, network cache: 0.5'
p929
sS'topology'
p930
g11
(tRp931
S'h'
I3
sS'k'
I2
sg907
S'TREE_with_uCache'
p932
ssg11
(tRp933
S'LATENCY'
p934
g11
(tRp935
S'MEAN'
p936
F2.9855999999999998
ssS'LINK_LOAD'
p937
g11
(tRp938
S'MEAN_INTERNAL'
p939
F88.039599875996387
sS'PER_LINK_INTERNAL'
p940
g11
(tRp941
(I7
I3
tp942
F18.770643749910281
s(I1
I3
tp943
F96.595431107246711
s(I12
I5
tp944
F18.84720551829119
s(I6
I2
tp945
F9.7826424245920141
s(I9
I4
tp946
F18.75087780317142
s(I3
I7
tp947
F187.70643749910283
s(I2
I5
tp948
F97.768877818705732
s(I6
I14
tp949
F187.69392740623013
s(I4
I9
tp950
F187.5087780317142
s(I11
I5
tp951
F18.747374977167066
s(I5
I12
tp952
F188.4720551829119
s(I4
I1
tp953
F9.6515366512861451
s(I4
I10
tp954
F187.87907678074606
s(I2
I6
tp955
F97.826424245920151
s(I10
I4
tp956
F18.787907678074603
s(I5
I11
tp957
F187.47374977167064
s(I1
I4
tp958
F96.515366512861448
s(I14
I6
tp959
F18.769392740623012
s(I13
I6
tp960
F18.858464601876619
s(I1
I0
tp961
F17.448577135123607
s(I0
I1
tp962
F174.48577135123608
s(I8
I3
tp963
F18.589247403256167
s(I3
I1
tp964
F9.6595431107246714
s(I3
I8
tp965
F185.89247403256169
s(I2
I0
tp966
F17.660498108387102
s(I6
I13
tp967
F188.58464601876619
s(I5
I2
tp968
F9.7768877818705739
s(I0
I2
tp969
F176.60498108387102
ssS'MEAN_EXTERNAL'
p970
I0
sS'PER_LINK_EXTERNAL'
p971
g11
(tRp972
ssS'CACHE_HIT_RATIO'
p973
g11
(tRp974
S'PER_NODE_SERVER_HIT_RATIO'
p975
g11
(tRp976
I0
F0.23387166666666667
ssS'PER_NODE_CACHE_HIT_RATIO'
p977
g11
(tRp978
I1
F0.012406666666666667
sI2
F0.01265
sI3
F0.18451999999999999
sI4
F0.18576500000000001
sI5
F0.18530166666666667
sI6
F0.18548500000000001
ssg936
F0.7661283333333333
ssS'PATH_STRETCH'
p979
g11
(tRp980
S'MEAN_REQUEST'
p981
F0.37319999999999998
sS'MEAN_CONTENT'
p982
F0.37319999999999998
sg936
F0.37319999999999998
sstp983
a(g11
(tRp984
S'workload'
p985
g11
(tRp986
S'n_contents'
p987
I300000
sS'name'
p988
S'STATIONARY'
p989
sS'n_warmup'
p990
I300000
sS'rate'
p991
F1
sS'n_measured'
p992
I600000
sS'alpha'
p993
F1
ssS'cache_policy'
p994
g11
(tRp995
g988
S'LRU'
p996
ssS'strategy'
p997
g11
(tRp998
g988
S'LCE'
p999
ssS'content_placement'
p1000
g11
(tRp1001
g988
S'UNIFORM'
p1002
ssS'cache_placement'
p1003
g11
(tRp1004
S'network_cache'
p1005
F0.0050000000000000001
sS'uCache_budget'
p1006
F1500
sg988
S'UNIFORM_with_uCache'
p1007
sS'nCache_budget'
p1008
F1500
ssS'desc'
p1009
S'strategy: LCE, network cache: 0.005'
p1010
sS'topology'
p1011
g11
(tRp1012
S'h'
I3
sS'k'
I2
sg988
S'TREE_with_uCache'
p1013
ssg11
(tRp1014
S'LATENCY'
p1015
g11
(tRp1016
S'MEAN'
p1017
F4.6250499999999999
ssS'LINK_LOAD'
p1018
g11
(tRp1019
S'MEAN_INTERNAL'
p1020
F136.1454619741601
sS'PER_LINK_INTERNAL'
p1021
g11
(tRp1022
(I7
I3
tp1023
F18.741334149141462
s(I1
I3
tp1024
F250.35651035602817
s(I12
I5
tp1025
F18.789788475397305
s(I6
I2
tp1026
F24.895533112770199
s(I9
I4
tp1027
F18.70661687414372
s(I3
I7
tp1028
F187.41334149141463
s(I2
I5
tp1029
F250.62875373550688
s(I6
I14
tp1030
F187.30344508134985
s(I4
I9
tp1031
F187.0661687414372
s(I11
I5
tp1032
F18.75856790435617
s(I5
I12
tp1033
F187.89788475397307
s(I4
I1
tp1034
F24.960222135967431
s(I4
I10
tp1035
F187.37837445184857
s(I2
I6
tp1036
F248.95533112770198
s(I10
I4
tp1037
F18.737837445184855
s(I5
I11
tp1038
F187.5856790435617
s(I1
I4
tp1039
F249.6022213596743
s(I14
I6
tp1040
F18.730344508134984
s(I13
I6
tp1041
F18.648421729723044
s(I1
I0
tp1042
F48.387639116099251
s(I0
I1
tp1043
F483.87639116099245
s(I8
I3
tp1044
F18.745829911371388
s(I3
I1
tp1045
F25.035651035602815
s(I3
I8
tp1046
F187.45829911371388
s(I2
I0
tp1047
F48.351423253691529
s(I6
I13
tp1048
F186.48421729723043
s(I5
I2
tp1049
F25.062875373550686
s(I0
I2
tp1050
F483.5142325369153
ssS'MEAN_EXTERNAL'
p1051
I0
sS'PER_LINK_EXTERNAL'
p1052
g11
(tRp1053
ssS'CACHE_HIT_RATIO'
p1054
g11
(tRp1055
S'PER_NODE_SERVER_HIT_RATIO'
p1056
g11
(tRp1057
I0
F0.64553499999999997
ssS'PER_NODE_CACHE_HIT_RATIO'
p1058
g11
(tRp1059
I1
F0.010731666666666667
sI2
F0.010723333333333333
sI3
F0.083088333333333333
sI4
F0.083306666666666668
sI5
F0.083315
sI6
F0.083299999999999999
ssg1017
F0.35446499999999997
ssS'PATH_STRETCH'
p1060
g11
(tRp1061
S'MEAN_REQUEST'
p1062
F0.57813124999999999
sS'MEAN_CONTENT'
p1063
F0.57813124999999999
sg1017
F0.57813124999999999
sstp1064
a(g11
(tRp1065
S'workload'
p1066
g11
(tRp1067
S'n_contents'
p1068
I300000
sS'name'
p1069
S'STATIONARY'
p1070
sS'n_warmup'
p1071
I300000
sS'rate'
p1072
F1
sS'n_measured'
p1073
I600000
sS'alpha'
p1074
F1
ssS'cache_policy'
p1075
g11
(tRp1076
g1069
S'LRU'
p1077
ssS'strategy'
p1078
g11
(tRp1079
g1069
S'LCE'
p1080
ssS'content_placement'
p1081
g11
(tRp1082
g1069
S'UNIFORM'
p1083
ssS'cache_placement'
p1084
g11
(tRp1085
S'network_cache'
p1086
I1
sS'uCache_budget'
p1087
F300000
sg1069
S'UNIFORM_with_uCache'
p1088
sS'nCache_budget'
p1089
F300000
ssS'desc'
p1090
S'strategy: LCE, network cache: 1'
p1091
sS'topology'
p1092
g11
(tRp1093
S'h'
I3
sS'k'
I2
sg1069
S'TREE_with_uCache'
p1094
ssg11
(tRp1095
S'LATENCY'
p1096
g11
(tRp1097
S'MEAN'
p1098
F2.7780133333333334
ssS'LINK_LOAD'
p1099
g11
(tRp1100
S'MEAN_INTERNAL'
p1101
F81.841996784194095
sS'PER_LINK_INTERNAL'
p1102
g11
(tRp1103
(I7
I3
tp1104
F18.749917363007309
s(I1
I3
tp1105
F79.27013817217771
s(I12
I5
tp1106
F18.644430486403312
s(I6
I2
tp1107
F7.9252640349044343
s(I9
I4
tp1108
F18.871652218235141
s(I3
I7
tp1109
F187.49917363007307
s(I2
I5
tp1110
F79.925056695169332
s(I6
I14
tp1111
F185.98436208452756
s(I4
I9
tp1112
F188.71652218235141
s(I11
I5
tp1113
F18.866402871295133
s(I5
I12
tp1114
F186.44430486403314
s(I4
I1
tp1115
F8.0065039280236245
s(I4
I10
tp1116
F187.18671250269159
s(I2
I6
tp1117
F79.252640349044341
s(I10
I4
tp1118
F18.718671250269157
s(I5
I11
tp1119
F188.66402871295134
s(I1
I4
tp1120
F80.065039280236249
s(I14
I6
tp1121
F18.598436208452757
s(I13
I6
tp1122
F18.765165466023525
s(I1
I0
tp1123
F13.241602640624274
s(I0
I1
tp1124
F132.41602640624274
s(I8
I3
tp1125
F18.766665279434957
s(I3
I1
tp1126
F7.9270138172177704
s(I3
I8
tp1127
F187.66665279434957
s(I2
I0
tp1128
F13.250851489994766
s(I6
I13
tp1129
F187.65165466023527
s(I5
I2
tp1130
F7.9925056695169339
s(I0
I2
tp1131
F132.50851489994767
ssS'MEAN_EXTERNAL'
p1132
I0
sS'PER_LINK_EXTERNAL'
p1133
g11
(tRp1134
ssS'CACHE_HIT_RATIO'
p1135
g11
(tRp1136
S'PER_NODE_SERVER_HIT_RATIO'
p1137
g11
(tRp1138
I0
F0.17663833333333334
ssS'PER_NODE_CACHE_HIT_RATIO'
p1139
g11
(tRp1140
I1
F0.017948333333333334
sI2
F0.017781666666666668
sI3
F0.19728833333333334
sI4
F0.19725000000000001
sI5
F0.19681333333333334
sI6
F0.19628000000000001
ssg1098
F0.82336166666666666
ssS'PATH_STRETCH'
p1141
g11
(tRp1142
S'MEAN_REQUEST'
p1143
F0.34725166666666668
sS'MEAN_CONTENT'
p1144
F0.34725166666666668
sg1098
F0.34725166666666668
sstp1145
a(g11
(tRp1146
S'workload'
p1147
g11
(tRp1148
S'n_contents'
p1149
I300000
sS'name'
p1150
S'STATIONARY'
p1151
sS'n_warmup'
p1152
I300000
sS'rate'
p1153
F1
sS'n_measured'
p1154
I600000
sS'alpha'
p1155
F1
ssS'cache_policy'
p1156
g11
(tRp1157
g1150
S'LRU'
p1158
ssS'strategy'
p1159
g11
(tRp1160
g1150
S'LCE'
p1161
ssS'content_placement'
p1162
g11
(tRp1163
g1150
S'UNIFORM'
p1164
ssS'cache_placement'
p1165
g11
(tRp1166
S'network_cache'
p1167
F0.001
sS'uCache_budget'
p1168
F300
sg1150
S'UNIFORM_with_uCache'
p1169
sS'nCache_budget'
p1170
F0
ssS'desc'
p1171
S'strategy: LCE, network cache: 0.001'
p1172
sS'topology'
p1173
g11
(tRp1174
S'h'
I3
sS'k'
I2
sg1150
S'TREE_with_uCache'
p1175
ssg11
(tRp1176
S'LATENCY'
p1177
g11
(tRp1178
S'MEAN'
p1179
F5.9522966666666663
ssS'LINK_LOAD'
p1180
g11
(tRp1181
S'MEAN_INTERNAL'
p1182
F175.40896165857956
sS'PER_LINK_INTERNAL'
p1183
g11
(tRp1184
(I7
I3
tp1185
F18.824839950950707
s(I1
I3
tp1186
F371.4659732481224
s(I12
I5
tp1187
F18.732824847387676
s(I6
I2
tp1188
F37.247863946940029
s(I9
I4
tp1189
F18.720072754230845
s(I3
I7
tp1190
F188.24839950950707
s(I2
I5
tp1191
F371.24593713090644
s(I6
I14
tp1192
F187.38825832402657
s(I4
I9
tp1193
F187.20072754230844
s(I11
I5
tp1194
F18.755578582236144
s(I5
I12
tp1195
F187.32824847387676
s(I4
I1
tp1196
F37.050831605614846
s(I4
I10
tp1197
F186.9231819853656
s(I2
I6
tp1198
F372.47863946940026
s(I10
I4
tp1199
F18.692318198536562
s(I5
I11
tp1200
F187.55578582236143
s(I1
I4
tp1201
F370.50831605614843
s(I14
I6
tp1202
F18.738825832402657
s(I13
I6
tp1203
F18.875348241493459
s(I1
I0
tp1204
F73.872375575448984
s(I0
I1
tp1205
F738.72375575448984
s(I8
I3
tp1206
F18.684816967267835
s(I3
I1
tp1207
F37.146597324812234
s(I3
I8
tp1208
F186.84816967267835
s(I2
I0
tp1209
F74.028651226880768
s(I6
I13
tp1210
F188.75348241493458
s(I5
I2
tp1211
F37.12459371309064
s(I0
I2
tp1212
F740.28651226880766
ssS'MEAN_EXTERNAL'
p1213
I0
sS'PER_LINK_EXTERNAL'
p1214
g11
(tRp1215
ssS'CACHE_HIT_RATIO'
p1216
g11
(tRp1217
S'PER_NODE_SERVER_HIT_RATIO'
p1218
g11
(tRp1219
I0
F0.98584499999999997
ssS'PER_NODE_CACHE_HIT_RATIO'
p1220
g11
(tRp1221
I1
F0.0021666666666666666
sI2
F0.0022916666666666667
sI3
F0.0024199999999999998
sI4
F0.0024099999999999998
sI5
F0.0024250000000000001
sI6
F0.0024416666666666666
ssg1179
F0.014154999999999999
ssS'PATH_STRETCH'
p1222
g11
(tRp1223
S'MEAN_REQUEST'
p1224
F0.74403708333333329
sS'MEAN_CONTENT'
p1225
F0.74403708333333329
sg1179
F0.74403708333333329
sstp1226
a(g11
(tRp1227
S'workload'
p1228
g11
(tRp1229
S'n_contents'
p1230
I300000
sS'name'
p1231
S'STATIONARY'
p1232
sS'n_warmup'
p1233
I300000
sS'rate'
p1234
F1
sS'n_measured'
p1235
I600000
sS'alpha'
p1236
F1
ssS'cache_policy'
p1237
g11
(tRp1238
g1231
S'LRU'
p1239
ssS'strategy'
p1240
g11
(tRp1241
g1231
S'LCE'
p1242
ssS'content_placement'
p1243
g11
(tRp1244
g1231
S'UNIFORM'
p1245
ssS'cache_placement'
p1246
g11
(tRp1247
S'network_cache'
p1248
F0.0050000000000000001
sS'uCache_budget'
p1249
F1500
sg1231
S'UNIFORM_with_uCache'
p1250
sS'nCache_budget'
p1251
F0
ssS'desc'
p1252
S'strategy: LCE, network cache: 0.005'
p1253
sS'topology'
p1254
g11
(tRp1255
S'h'
I3
sS'k'
I2
sg1231
S'TREE_with_uCache'
p1256
ssg11
(tRp1257
S'LATENCY'
p1258
g11
(tRp1259
S'MEAN'
p1260
F5.9527566666666667
ssS'LINK_LOAD'
p1261
g11
(tRp1262
S'MEAN_INTERNAL'
p1263
F174.883584271252
sS'PER_LINK_INTERNAL'
p1264
g11
(tRp1265
(I7
I3
tp1266
F18.785951001981015
s(I1
I3
tp1267
F371.2994121250585
s(I12
I5
tp1268
F18.755290439460367
s(I6
I2
tp1269
F36.900360902900012
s(I9
I4
tp1270
F18.596503623804647
s(I3
I7
tp1271
F187.85951001981016
s(I2
I5
tp1272
F371.69326325337249
s(I6
I14
tp1273
F185.56869238107222
s(I4
I9
tp1274
F185.96503623804648
s(I11
I5
tp1275
F18.76900044709155
s(I5
I12
tp1276
F187.55290439460367
s(I4
I1
tp1277
F36.929027282492491
s(I4
I10
tp1278
F186.91227312892832
s(I2
I6
tp1279
F369.00360902900013
s(I10
I4
tp1280
F18.691227312892831
s(I5
I11
tp1281
F187.69000447091551
s(I1
I4
tp1282
F369.2902728249249
s(I14
I6
tp1283
F18.556869238107225
s(I13
I6
tp1284
F18.709424232112404
s(I1
I0
tp1285
F73.720455942941086
s(I0
I1
tp1286
F737.20455942941089
s(I8
I3
tp1287
F18.699453317471541
s(I3
I1
tp1288
F37.129941212505848
s(I3
I8
tp1289
F186.99453317471543
s(I2
I0
tp1290
F73.745383229543251
s(I6
I13
tp1291
F187.09424232112403
s(I5
I2
tp1292
F37.169326325337252
s(I0
I2
tp1293
F737.45383229543245
ssS'MEAN_EXTERNAL'
p1294
I0
sS'PER_LINK_EXTERNAL'
p1295
g11
(tRp1296
ssS'CACHE_HIT_RATIO'
p1297
g11
(tRp1298
S'PER_NODE_SERVER_HIT_RATIO'
p1299
g11
(tRp1300
I0
F0.98597333333333337
ssS'PER_NODE_CACHE_HIT_RATIO'
p1301
g11
(tRp1302
I1
F0.0022633333333333333
sI2
F0.0021683333333333333
sI3
F0.0023766666666666667
sI4
F0.0023983333333333335
sI5
F0.0023733333333333332
sI6
F0.0024466666666666669
ssg1260
F0.014026666666666666
ssS'PATH_STRETCH'
p1303
g11
(tRp1304
S'MEAN_REQUEST'
p1305
F0.74409458333333334
sS'MEAN_CONTENT'
p1306
F0.74409458333333334
sg1260
F0.74409458333333334
sstp1307
a(g11
(tRp1308
S'workload'
p1309
g11
(tRp1310
S'n_contents'
p1311
I300000
sS'name'
p1312
S'STATIONARY'
p1313
sS'n_warmup'
p1314
I300000
sS'rate'
p1315
F1
sS'n_measured'
p1316
I600000
sS'alpha'
p1317
F1
ssS'cache_policy'
p1318
g11
(tRp1319
g1312
S'LRU'
p1320
ssS'strategy'
p1321
g11
(tRp1322
g1312
S'LCE'
p1323
ssS'content_placement'
p1324
g11
(tRp1325
g1312
S'UNIFORM'
p1326
ssS'cache_placement'
p1327
g11
(tRp1328
S'network_cache'
p1329
F0.01
sS'uCache_budget'
p1330
F3000
sg1312
S'UNIFORM_with_uCache'
p1331
sS'nCache_budget'
p1332
F0
ssS'desc'
p1333
S'strategy: LCE, network cache: 0.01'
p1334
sS'topology'
p1335
g11
(tRp1336
S'h'
I3
sS'k'
I2
sg1312
S'TREE_with_uCache'
p1337
ssg11
(tRp1338
S'LATENCY'
p1339
g11
(tRp1340
S'MEAN'
p1341
F5.9525600000000001
ssS'LINK_LOAD'
p1342
g11
(tRp1343
S'MEAN_INTERNAL'
p1344
F175.72888400186406
sS'PER_LINK_INTERNAL'
p1345
g11
(tRp1346
(I7
I3
tp1347
F18.776681184616084
s(I1
I3
tp1348
F372.73319019164791
s(I12
I5
tp1349
F18.785448194680804
s(I6
I2
tp1350
F37.230485912848579
s(I9
I4
tp1351
F18.772673408586499
s(I3
I7
tp1352
F187.76681184616083
s(I2
I5
tp1353
F371.69116842395533
s(I6
I14
tp1354
F187.07547048105712
s(I4
I9
tp1355
F187.72673408586496
s(I11
I5
tp1356
F18.750129668420072
s(I5
I12
tp1357
F187.85448194680805
s(I4
I1
tp1358
F37.174126562432512
s(I4
I10
tp1359
F187.62152996508831
s(I2
I6
tp1360
F372.30485912848582
s(I10
I4
tp1361
F18.762152996508831
s(I5
I11
tp1362
F187.50129668420072
s(I1
I4
tp1363
F371.74126562432514
s(I14
I6
tp1364
F18.707547048105713
s(I13
I6
tp1365
F18.866355173278091
s(I1
I0
tp1366
F74.107035105084279
s(I0
I1
tp1367
F741.07035105084276
s(I8
I3
tp1368
F18.870613435309526
s(I3
I1
tp1369
F37.273319019164788
s(I3
I8
tp1370
F188.70613435309525
s(I2
I0
tp1371
F74.06420199876807
s(I6
I13
tp1372
F188.66355173278089
s(I5
I2
tp1373
F37.169116842395532
s(I0
I2
tp1374
F740.64201998768067
ssS'MEAN_EXTERNAL'
p1375
I0
sS'PER_LINK_EXTERNAL'
p1376
g11
(tRp1377
ssS'CACHE_HIT_RATIO'
p1378
g11
(tRp1379
S'PER_NODE_SERVER_HIT_RATIO'
p1380
g11
(tRp1381
I0
F0.98589166666666672
ssS'PER_NODE_CACHE_HIT_RATIO'
p1382
g11
(tRp1383
I1
F0.0022650000000000001
sI2
F0.0022316666666666665
sI3
F0.0024883333333333333
sI4
F0.0023999999999999998
sI5
F0.0024383333333333332
sI6
F0.0022850000000000001
ssg1341
F0.014108333333333334
ssS'PATH_STRETCH'
p1384
g11
(tRp1385
S'MEAN_REQUEST'
p1386
F0.74407000000000001
sS'MEAN_CONTENT'
p1387
F0.74407000000000001
sg1341
F0.74407000000000001
sstp1388
a(g11
(tRp1389
S'workload'
p1390
g11
(tRp1391
S'n_contents'
p1392
I300000
sS'name'
p1393
S'STATIONARY'
p1394
sS'n_warmup'
p1395
I300000
sS'rate'
p1396
F1
sS'n_measured'
p1397
I600000
sS'alpha'
p1398
F1
ssS'cache_policy'
p1399
g11
(tRp1400
g1393
S'LRU'
p1401
ssS'strategy'
p1402
g11
(tRp1403
g1393
S'LCE'
p1404
ssS'content_placement'
p1405
g11
(tRp1406
g1393
S'UNIFORM'
p1407
ssS'cache_placement'
p1408
g11
(tRp1409
S'network_cache'
p1410
F0.050000000000000003
sS'uCache_budget'
p1411
F15000
sg1393
S'UNIFORM_with_uCache'
p1412
sS'nCache_budget'
p1413
F0
ssS'desc'
p1414
S'strategy: LCE, network cache: 0.05'
p1415
sS'topology'
p1416
g11
(tRp1417
S'h'
I3
sS'k'
I2
sg1393
S'TREE_with_uCache'
p1418
ssg11
(tRp1419
S'LATENCY'
p1420
g11
(tRp1421
S'MEAN'
p1422
F5.9527533333333329
ssS'LINK_LOAD'
p1423
g11
(tRp1424
S'MEAN_INTERNAL'
p1425
F175.15627083769158
sS'PER_LINK_INTERNAL'
p1426
g11
(tRp1427
(I7
I3
tp1428
F18.751839393176603
s(I1
I3
tp1429
F371.21446748768449
s(I12
I5
tp1430
F18.697163484469179
s(I6
I2
tp1431
F37.145414270393616
s(I9
I4
tp1432
F18.673445624527606
s(I3
I7
tp1433
F187.51839393176601
s(I2
I5
tp1434
F370.33815497826419
s(I6
I14
tp1435
F188.00773083161326
s(I4
I9
tp1436
F186.73445624527605
s(I11
I5
tp1437
F18.687926002176145
s(I5
I12
tp1438
F186.97163484469181
s(I4
I1
tp1439
F37.057533357767994
s(I4
I10
tp1440
F187.33614090274128
s(I2
I6
tp1441
F371.45414270393616
s(I10
I4
tp1442
F18.733614090274127
s(I5
I11
tp1443
F186.87926002176147
s(I1
I4
tp1444
F370.57533357767994
s(I14
I6
tp1445
F18.800773083161324
s(I13
I6
tp1446
F18.716637095789633
s(I1
I0
tp1447
F73.854669579545842
s(I0
I1
tp1448
F738.5466957954585
s(I8
I3
tp1449
F18.735611383742892
s(I3
I1
tp1450
F37.121446748768449
s(I3
I8
tp1451
F187.35611383742892
s(I2
I0
tp1452
F73.842436157049661
s(I6
I13
tp1453
F187.16637095789631
s(I5
I2
tp1454
F37.033815497826417
s(I0
I2
tp1455
F738.42436157049667
ssS'MEAN_EXTERNAL'
p1456
I0
sS'PER_LINK_EXTERNAL'
p1457
g11
(tRp1458
ssS'CACHE_HIT_RATIO'
p1459
g11
(tRp1460
S'PER_NODE_SERVER_HIT_RATIO'
p1461
g11
(tRp1462
I0
F0.98598166666666665
ssS'PER_NODE_CACHE_HIT_RATIO'
p1463
g11
(tRp1464
I1
F0.0021649999999999998
sI2
F0.0022483333333333335
sI3
F0.0024433333333333334
sI4
F0.0023333333333333335
sI5
F0.0023449999999999999
sI6
F0.0024833333333333335
ssg1422
F0.014018333333333334
ssS'PATH_STRETCH'
p1465
g11
(tRp1466
S'MEAN_REQUEST'
p1467
F0.74409416666666661
sS'MEAN_CONTENT'
p1468
F0.74409416666666661
sg1422
F0.74409416666666661
sstp1469
a(g11
(tRp1470
S'workload'
p1471
g11
(tRp1472
S'n_contents'
p1473
I300000
sS'name'
p1474
S'STATIONARY'
p1475
sS'n_warmup'
p1476
I300000
sS'rate'
p1477
F1
sS'n_measured'
p1478
I600000
sS'alpha'
p1479
F1
ssS'cache_policy'
p1480
g11
(tRp1481
g1474
S'LRU'
p1482
ssS'strategy'
p1483
g11
(tRp1484
g1474
S'LCE'
p1485
ssS'content_placement'
p1486
g11
(tRp1487
g1474
S'UNIFORM'
p1488
ssS'cache_placement'
p1489
g11
(tRp1490
S'network_cache'
p1491
F0.10000000000000001
sS'uCache_budget'
p1492
F30000
sg1474
S'UNIFORM_with_uCache'
p1493
sS'nCache_budget'
p1494
F0
ssS'desc'
p1495
S'strategy: LCE, network cache: 0.1'
p1496
sS'topology'
p1497
g11
(tRp1498
S'h'
I3
sS'k'
I2
sg1474
S'TREE_with_uCache'
p1499
ssg11
(tRp1500
S'LATENCY'
p1501
g11
(tRp1502
S'MEAN'
p1503
F5.9532733333333336
ssS'LINK_LOAD'
p1504
g11
(tRp1505
S'MEAN_INTERNAL'
p1506
F175.53108639116286
sS'PER_LINK_INTERNAL'
p1507
g11
(tRp1508
(I7
I3
tp1509
F18.714522143721346
s(I1
I3
tp1510
F370.823030141331
s(I12
I5
tp1511
F18.861624502095118
s(I6
I2
tp1512
F37.309210903665424
s(I9
I4
tp1513
F18.629713130985451
s(I3
I7
tp1514
F187.14522143721348
s(I2
I5
tp1515
F372.21900150140857
s(I6
I14
tp1516
F188.49365972230635
s(I4
I9
tp1517
F186.29713130985451
s(I11
I5
tp1518
F18.711520054774944
s(I5
I12
tp1519
F188.61624502095117
s(I4
I1
tp1520
F37.068543439795413
s(I4
I10
tp1521
F187.93827326722172
s(I2
I6
tp1522
F373.09210903665428
s(I10
I4
tp1523
F18.793827326722173
s(I5
I11
tp1524
F187.11520054774945
s(I1
I4
tp1525
F370.68543439795417
s(I14
I6
tp1526
F18.849365972230636
s(I13
I6
tp1527
F18.817844038293401
s(I1
I0
tp1528
F73.826620847716939
s(I0
I1
tp1529
F738.26620847716947
s(I8
I3
tp1530
F18.726030151349228
s(I3
I1
tp1531
F37.082303014133096
s(I3
I8
tp1532
F187.26030151349227
s(I2
I0
tp1533
F74.193376047335889
s(I6
I13
tp1534
F188.17844038293401
s(I5
I2
tp1535
F37.221900150140861
s(I0
I2
tp1536
F741.93376047335892
ssS'MEAN_EXTERNAL'
p1537
I0
sS'PER_LINK_EXTERNAL'
p1538
g11
(tRp1539
ssS'CACHE_HIT_RATIO'
p1540
g11
(tRp1541
S'PER_NODE_SERVER_HIT_RATIO'
p1542
g11
(tRp1543
I0
F0.98611333333333329
ssS'PER_NODE_CACHE_HIT_RATIO'
p1544
g11
(tRp1545
I1
F0.00216
sI2
F0.0022499999999999998
sI3
F0.0023866666666666667
sI4
F0.0023649999999999999
sI5
F0.0023400000000000001
sI6
F0.002385
ssg1503
F0.013886666666666667
ssS'PATH_STRETCH'
p1546
g11
(tRp1547
S'MEAN_REQUEST'
p1548
F0.7441591666666667
sS'MEAN_CONTENT'
p1549
F0.7441591666666667
sg1503
F0.7441591666666667
sstp1550
a(g11
(tRp1551
S'workload'
p1552
g11
(tRp1553
S'n_contents'
p1554
I300000
sS'name'
p1555
S'STATIONARY'
p1556
sS'n_warmup'
p1557
I300000
sS'rate'
p1558
F1
sS'n_measured'
p1559
I600000
sS'alpha'
p1560
F1
ssS'cache_policy'
p1561
g11
(tRp1562
g1555
S'LRU'
p1563
ssS'strategy'
p1564
g11
(tRp1565
g1555
S'LCE'
p1566
ssS'content_placement'
p1567
g11
(tRp1568
g1555
S'UNIFORM'
p1569
ssS'cache_placement'
p1570
g11
(tRp1571
S'network_cache'
p1572
F0.5
sS'uCache_budget'
p1573
F150000
sg1555
S'UNIFORM_with_uCache'
p1574
sS'nCache_budget'
p1575
F0
ssS'desc'
p1576
S'strategy: LCE, network cache: 0.5'
p1577
sS'topology'
p1578
g11
(tRp1579
S'h'
I3
sS'k'
I2
sg1555
S'TREE_with_uCache'
p1580
ssg11
(tRp1581
S'LATENCY'
p1582
g11
(tRp1583
S'MEAN'
p1584
F5.9539200000000001
ssS'LINK_LOAD'
p1585
g11
(tRp1586
S'MEAN_INTERNAL'
p1587
F175.38162943173589
sS'PER_LINK_INTERNAL'
p1588
g11
(tRp1589
(I7
I3
tp1590
F18.711052833324036
s(I1
I3
tp1591
F370.57951948196569
s(I12
I5
tp1592
F18.83551992446257
s(I6
I2
tp1593
F37.138180735858157
s(I9
I4
tp1594
F18.843267875918986
s(I3
I7
tp1595
F187.11052833324035
s(I2
I5
tp1596
F371.83418775006902
s(I6
I14
tp1597
F187.26298802318917
s(I4
I9
tp1598
F188.43267875918986
s(I11
I5
tp1599
F18.686059441529149
s(I5
I12
tp1600
F188.35519924462571
s(I4
I1
tp1601
F37.181419303663311
s(I4
I10
tp1602
F186.87309111118893
s(I2
I6
tp1603
F371.38180735858157
s(I10
I4
tp1604
F18.687309111118893
s(I5
I11
tp1605
F186.86059441529147
s(I1
I4
tp1606
F371.81419303663313
s(I14
I6
tp1607
F18.726298802318915
s(I13
I6
tp1608
F18.778534991170229
s(I1
I0
tp1609
F73.909458480167373
s(I0
I1
tp1610
F739.0945848016737
s(I8
I3
tp1611
F18.692307789477869
s(I3
I1
tp1612
F37.057951948196568
s(I3
I8
tp1613
F186.92307789477869
s(I2
I0
tp1614
F73.995185814023841
s(I6
I13
tp1615
F187.7853499117023
s(I5
I2
tp1616
F37.183418775006899
s(I0
I2
tp1617
F739.9518581402383
ssS'MEAN_EXTERNAL'
p1618
I0
sS'PER_LINK_EXTERNAL'
p1619
g11
(tRp1620
ssS'CACHE_HIT_RATIO'
p1621
g11
(tRp1622
S'PER_NODE_SERVER_HIT_RATIO'
p1623
g11
(tRp1624
I0
F0.98629166666666668
ssS'PER_NODE_CACHE_HIT_RATIO'
p1625
g11
(tRp1626
I1
F0.0022000000000000001
sI2
F0.0021766666666666666
sI3
F0.0023033333333333334
sI4
F0.0023283333333333333
sI5
F0.0022550000000000001
sI6
F0.0024450000000000001
ssg1584
F0.013708333333333333
ssS'PATH_STRETCH'
p1627
g11
(tRp1628
S'MEAN_REQUEST'
p1629
F0.74424000000000001
sS'MEAN_CONTENT'
p1630
F0.74424000000000001
sg1584
F0.74424000000000001
sstp1631
a(g11
(tRp1632
S'workload'
p1633
g11
(tRp1634
S'n_contents'
p1635
I300000
sS'name'
p1636
S'STATIONARY'
p1637
sS'n_warmup'
p1638
I300000
sS'rate'
p1639
F1
sS'n_measured'
p1640
I600000
sS'alpha'
p1641
F1
ssS'cache_policy'
p1642
g11
(tRp1643
g1636
S'LRU'
p1644
ssS'strategy'
p1645
g11
(tRp1646
g1636
S'LCE'
p1647
ssS'content_placement'
p1648
g11
(tRp1649
g1636
S'UNIFORM'
p1650
ssS'cache_placement'
p1651
g11
(tRp1652
S'network_cache'
p1653
I1
sS'uCache_budget'
p1654
F300000
sg1636
S'UNIFORM_with_uCache'
p1655
sS'nCache_budget'
p1656
I0
ssS'desc'
p1657
S'strategy: LCE, network cache: 1'
p1658
sS'topology'
p1659
g11
(tRp1660
S'h'
I3
sS'k'
I2
sg1636
S'TREE_with_uCache'
p1661
ssg11
(tRp1662
S'LATENCY'
p1663
g11
(tRp1664
S'MEAN'
p1665
F5.9537066666666663
ssS'LINK_LOAD'
p1666
g11
(tRp1667
S'MEAN_INTERNAL'
p1668
F175.40509915229723
sS'PER_LINK_INTERNAL'
p1669
g11
(tRp1670
(I7
I3
tp1671
F18.692479367104603
s(I1
I3
tp1672
F371.07485017725713
s(I12
I5
tp1673
F18.731975625847298
s(I6
I2
tp1674
F37.353461717743514
s(I9
I4
tp1675
F18.737475104912736
s(I3
I7
tp1676
F186.92479367104602
s(I2
I5
tp1677
F370.75988001260021
s(I6
I14
tp1678
F188.41465254513759
s(I4
I9
tp1679
F187.37475104912735
s(I11
I5
tp1680
F18.695729059279635
s(I5
I12
tp1681
F187.31975625847298
s(I4
I1
tp1682
F37.049490511217449
s(I4
I10
tp1683
F186.58732563748504
s(I2
I6
tp1684
F373.53461717743511
s(I10
I4
tp1685
F18.658732563748501
s(I5
I11
tp1686
F186.95729059279634
s(I1
I4
tp1687
F370.49490511217454
s(I14
I6
tp1688
F18.841465254513757
s(I13
I6
tp1689
F18.85471399953504
s(I1
I0
tp1690
F73.819757471703312
s(I0
I1
tp1691
F738.19757471703315
s(I8
I3
tp1692
F18.773221718838087
s(I3
I1
tp1693
F37.107485017725715
s(I3
I8
tp1694
F187.73221718838087
s(I2
I0
tp1695
F74.093731519690621
s(I6
I13
tp1696
F188.54713999535042
s(I5
I2
tp1697
F37.075988001260022
s(I0
I2
tp1698
F740.93731519690618
ssS'MEAN_EXTERNAL'
p1699
I0
sS'PER_LINK_EXTERNAL'
p1700
g11
(tRp1701
ssS'CACHE_HIT_RATIO'
p1702
g11
(tRp1703
S'PER_NODE_SERVER_HIT_RATIO'
p1704
g11
(tRp1705
I0
F0.9861833333333333
ssS'PER_NODE_CACHE_HIT_RATIO'
p1706
g11
(tRp1707
I1
F0.0022483333333333335
sI2
F0.0022383333333333335
sI3
F0.0023883333333333335
sI4
F0.0023116666666666667
sI5
F0.0023449999999999999
sI6
F0.0022850000000000001
ssg1665
F0.013816666666666666
ssS'PATH_STRETCH'
p1708
g11
(tRp1709
S'MEAN_REQUEST'
p1710
F0.74421333333333328
sS'MEAN_CONTENT'
p1711
F0.74421333333333328
sg1665
F0.74421333333333328
sstp1712
atRp1713
sb.