ccopy_reg
_reconstructor
p1
(cicarus.results.readwrite
ResultSet
p2
c__builtin__
object
p3
NtRp4
(dp5
S'attr'
p6
(dp7
sS'_results'
p8
ccollections
deque
p9
((lp10
(cicarus.util
Tree
p11
(tRp12
S'workload'
p13
g11
(tRp14
S'n_contents'
p15
I300000
sS'name'
p16
S'STATIONARY'
p17
sS'n_warmup'
p18
I300000
sS'rate'
p19
F1
sS'n_measured'
p20
I900000
sS'alpha'
p21
F1
ssS'cache_policy'
p22
g11
(tRp23
g16
S'LRU'
p24
ssS'strategy'
p25
g11
(tRp26
g16
S'C_RANDOM'
p27
ssS'content_placement'
p28
g11
(tRp29
g16
S'UNIFORM'
p30
ssS'cache_placement'
p31
g11
(tRp32
S'network_cache'
p33
I0
sS'uCache_budget'
p34
F0
sg16
S'UNIFORM_WITH_UCACHE'
p35
sS'nCache_budget'
p36
F0
ssS'desc'
p37
S'strategy: C_RANDOM, network cache: 0'
p38
sS'topology'
p39
g11
(tRp40
S'asn'
p41
I3257
sg16
S'ROCKET_FUEL_WITH_UCACHE'
p42
ssg11
(tRp43
S'OVERHEAD_DISTRIBUTION'
p44
g11
(tRp45
S'CV'
p46
cnumpy.core.multiarray
scalar
p47
(cnumpy
dtype
p48
(S'f8'
I0
I1
tRp49
(I3
S'<'
NNNI-1
I-1
I0
tbS'\x13a;w5\x1e\xc2?'
tRp50
ssS'LATENCY'
p51
g11
(tRp52
S'MEAN'
p53
F88.468926666666661
ssS'CACHE_HIT_RATIO'
p54
g11
(tRp55
g53
F0.0092466666666666669
ssS'CACHING_EFFICIENCY'
p56
g11
(tRp57
g53
F0.0093329654875414676
ssS'CACHE_EVICTION'
p58
g11
(tRp59
g53
g47
(g49
S'0\xa2Zg_\xa2\xb5@'
tRp60
sstp61
a(g11
(tRp62
S'workload'
p63
g11
(tRp64
S'n_contents'
p65
I300000
sS'name'
p66
S'STATIONARY'
p67
sS'n_warmup'
p68
I300000
sS'rate'
p69
F1
sS'n_measured'
p70
I900000
sS'alpha'
p71
F1
ssS'cache_policy'
p72
g11
(tRp73
g66
S'LRU'
p74
ssS'strategy'
p75
g11
(tRp76
g66
S'C_RANDOM'
p77
ssS'content_placement'
p78
g11
(tRp79
g66
S'UNIFORM'
p80
ssS'cache_placement'
p81
g11
(tRp82
S'network_cache'
p83
F0.01
sS'uCache_budget'
p84
F3000
sg66
S'UNIFORM_WITH_UCACHE'
p85
sS'nCache_budget'
p86
F0
ssS'desc'
p87
S'strategy: C_RANDOM, network cache: 0.01'
p88
sS'topology'
p89
g11
(tRp90
S'asn'
p91
I3257
sg66
S'ROCKET_FUEL_WITH_UCACHE'
p92
ssg11
(tRp93
S'OVERHEAD_DISTRIBUTION'
p94
g11
(tRp95
S'CV'
p96
g47
(g49
S'\xe7.\x97\\+f\xa8?'
tRp97
ssS'LATENCY'
p98
g11
(tRp99
S'MEAN'
p100
F80.335693333333339
ssS'CACHE_HIT_RATIO'
p101
g11
(tRp102
g100
F0.10183444444444445
ssS'CACHING_EFFICIENCY'
p103
g11
(tRp104
g100
F0.11338048293496993
ssS'CACHE_EVICTION'
p105
g11
(tRp106
g100
g47
(g49
S'\xe7\x0f6\x1e\xcd\x9c\xb3@'
tRp107
sstp108
a(g11
(tRp109
S'workload'
p110
g11
(tRp111
S'n_contents'
p112
I300000
sS'name'
p113
S'STATIONARY'
p114
sS'n_warmup'
p115
I300000
sS'rate'
p116
F1
sS'n_measured'
p117
I900000
sS'alpha'
p118
F1
ssS'cache_policy'
p119
g11
(tRp120
g113
S'LRU'
p121
ssS'strategy'
p122
g11
(tRp123
g113
S'C_RANDOM'
p124
ssS'content_placement'
p125
g11
(tRp126
g113
S'UNIFORM'
p127
ssS'cache_placement'
p128
g11
(tRp129
S'network_cache'
p130
F0.050000000000000003
sS'uCache_budget'
p131
F15000
sg113
S'UNIFORM_WITH_UCACHE'
p132
sS'nCache_budget'
p133
F0
ssS'desc'
p134
S'strategy: C_RANDOM, network cache: 0.05'
p135
sS'topology'
p136
g11
(tRp137
S'asn'
p138
I3257
sg113
S'ROCKET_FUEL_WITH_UCACHE'
p139
ssg11
(tRp140
S'OVERHEAD_DISTRIBUTION'
p141
g11
(tRp142
S'CV'
p143
g47
(g49
S'%\xd1\x1a>s^\xa1?'
tRp144
ssS'LATENCY'
p145
g11
(tRp146
S'MEAN'
p147
F70.371868888888883
ssS'CACHE_HIT_RATIO'
p148
g11
(tRp149
g147
F0.21408444444444444
ssS'CACHING_EFFICIENCY'
p150
g11
(tRp151
g147
F0.2724013323455729
ssS'CACHE_EVICTION'
p152
g11
(tRp153
g147
g47
(g49
S'\xa9\xd6\xd9\x17Q)\xb1@'
tRp154
sstp155
a(g11
(tRp156
S'workload'
p157
g11
(tRp158
S'n_contents'
p159
I300000
sS'name'
p160
S'STATIONARY'
p161
sS'n_warmup'
p162
I300000
sS'rate'
p163
F1
sS'n_measured'
p164
I900000
sS'alpha'
p165
F1
ssS'cache_policy'
p166
g11
(tRp167
g160
S'LRU'
p168
ssS'strategy'
p169
g11
(tRp170
g160
S'C_RANDOM'
p171
ssS'content_placement'
p172
g11
(tRp173
g160
S'UNIFORM'
p174
ssS'cache_placement'
p175
g11
(tRp176
S'network_cache'
p177
F0.10000000000000001
sS'uCache_budget'
p178
F30000
sg160
S'UNIFORM_WITH_UCACHE'
p179
sS'nCache_budget'
p180
F0
ssS'desc'
p181
S'strategy: C_RANDOM, network cache: 0.1'
p182
sS'topology'
p183
g11
(tRp184
S'asn'
p185
I3257
sg160
S'ROCKET_FUEL_WITH_UCACHE'
p186
ssg11
(tRp187
S'OVERHEAD_DISTRIBUTION'
p188
g11
(tRp189
S'CV'
p190
g47
(g49
S']\r=k3\x82\x9e?'
tRp191
ssS'LATENCY'
p192
g11
(tRp193
S'MEAN'
p194
F65.290031111111105
ssS'CACHE_HIT_RATIO'
p195
g11
(tRp196
g194
F0.27049222222222224
ssS'CACHING_EFFICIENCY'
p197
g11
(tRp198
g194
F0.37078730407260907
ssS'CACHE_EVICTION'
p199
g11
(tRp200
g194
g47
(g49
S'\xfe`\xe3\xd1\xfc\xdb\xaf@'
tRp201
sstp202
a(g11
(tRp203
S'workload'
p204
g11
(tRp205
S'n_contents'
p206
I300000
sS'name'
p207
S'STATIONARY'
p208
sS'n_warmup'
p209
I300000
sS'rate'
p210
F1
sS'n_measured'
p211
I900000
sS'alpha'
p212
F1
ssS'cache_policy'
p213
g11
(tRp214
g207
S'LRU'
p215
ssS'strategy'
p216
g11
(tRp217
g207
S'C_RANDOM'
p218
ssS'content_placement'
p219
g11
(tRp220
g207
S'UNIFORM'
p221
ssS'cache_placement'
p222
g11
(tRp223
S'network_cache'
p224
F0.20000000000000001
sS'uCache_budget'
p225
F60000
sg207
S'UNIFORM_WITH_UCACHE'
p226
sS'nCache_budget'
p227
F0
ssS'desc'
p228
S'strategy: C_RANDOM, network cache: 0.2'
p229
sS'topology'
p230
g11
(tRp231
S'asn'
p232
I3257
sg207
S'ROCKET_FUEL_WITH_UCACHE'
p233
ssg11
(tRp234
S'OVERHEAD_DISTRIBUTION'
p235
g11
(tRp236
S'CV'
p237
g47
(g49
S'\xe0\xed\xdfL}E\x9a?'
tRp238
ssS'LATENCY'
p239
g11
(tRp240
S'MEAN'
p241
F59.880353333333332
ssS'CACHE_HIT_RATIO'
p242
g11
(tRp243
g241
F0.32937888888888889
ssS'CACHING_EFFICIENCY'
p244
g11
(tRp245
g241
F0.49115496579456192
ssS'CACHE_EVICTION'
p246
g11
(tRp247
g241
g47
(g49
S'\xd0]\xa5\x98\xa0I\xad@'
tRp248
sstp249
a(g11
(tRp250
S'workload'
p251
g11
(tRp252
S'n_contents'
p253
I300000
sS'name'
p254
S'STATIONARY'
p255
sS'n_warmup'
p256
I300000
sS'rate'
p257
F1
sS'n_measured'
p258
I900000
sS'alpha'
p259
F1
ssS'cache_policy'
p260
g11
(tRp261
g254
S'LRU'
p262
ssS'strategy'
p263
g11
(tRp264
g254
S'C_RANDOM'
p265
ssS'content_placement'
p266
g11
(tRp267
g254
S'UNIFORM'
p268
ssS'cache_placement'
p269
g11
(tRp270
S'network_cache'
p271
F0.29999999999999999
sS'uCache_budget'
p272
F90000
sg254
S'UNIFORM_WITH_UCACHE'
p273
sS'nCache_budget'
p274
F0
ssS'desc'
p275
S'strategy: C_RANDOM, network cache: 0.3'
p276
sS'topology'
p277
g11
(tRp278
S'asn'
p279
I3257
sg254
S'ROCKET_FUEL_WITH_UCACHE'
p280
ssg11
(tRp281
S'OVERHEAD_DISTRIBUTION'
p282
g11
(tRp283
S'CV'
p284
g47
(g49
S'\xf0<O\xd6\x82\x82\x99?'
tRp285
ssS'LATENCY'
p286
g11
(tRp287
S'MEAN'
p288
F57.032679999999999
ssS'CACHE_HIT_RATIO'
p289
g11
(tRp290
g288
F0.36233444444444446
ssS'CACHING_EFFICIENCY'
p291
g11
(tRp292
g288
F0.56822019205469954
ssS'CACHE_EVICTION'
p293
g11
(tRp294
g288
g47
(g49
S'\x97\x01\x9f\x1c.\xd9\xab@'
tRp295
sstp296
a(g11
(tRp297
S'workload'
p298
g11
(tRp299
S'n_contents'
p300
I300000
sS'name'
p301
S'STATIONARY'
p302
sS'n_warmup'
p303
I300000
sS'rate'
p304
F1
sS'n_measured'
p305
I900000
sS'alpha'
p306
F1
ssS'cache_policy'
p307
g11
(tRp308
g301
S'LRU'
p309
ssS'strategy'
p310
g11
(tRp311
g301
S'C_RANDOM'
p312
ssS'content_placement'
p313
g11
(tRp314
g301
S'UNIFORM'
p315
ssS'cache_placement'
p316
g11
(tRp317
S'network_cache'
p318
F0.40000000000000002
sS'uCache_budget'
p319
F120000
sg301
S'UNIFORM_WITH_UCACHE'
p320
sS'nCache_budget'
p321
F0
ssS'desc'
p322
S'strategy: C_RANDOM, network cache: 0.4'
p323
sS'topology'
p324
g11
(tRp325
S'asn'
p326
I3257
sg301
S'ROCKET_FUEL_WITH_UCACHE'
p327
ssg11
(tRp328
S'OVERHEAD_DISTRIBUTION'
p329
g11
(tRp330
S'CV'
p331
g47
(g49
S'\xb2\xa0L"\x92\x90\x95?'
tRp332
ssS'LATENCY'
p333
g11
(tRp334
S'MEAN'
p335
F54.793462222222225
ssS'CACHE_HIT_RATIO'
p336
g11
(tRp337
g335
F0.38779333333333332
ssS'CACHING_EFFICIENCY'
p338
g11
(tRp339
g335
F0.63343533229519444
ssS'CACHE_EVICTION'
p340
g11
(tRp341
g335
g47
(g49
S'FT\xeb\xec\x8b\xbc\xaa@'
tRp342
sstp343
a(g11
(tRp344
S'workload'
p345
g11
(tRp346
S'n_contents'
p347
I300000
sS'name'
p348
S'STATIONARY'
p349
sS'n_warmup'
p350
I300000
sS'rate'
p351
F1
sS'n_measured'
p352
I900000
sS'alpha'
p353
F1
ssS'cache_policy'
p354
g11
(tRp355
g348
S'LRU'
p356
ssS'strategy'
p357
g11
(tRp358
g348
S'C_RANDOM'
p359
ssS'content_placement'
p360
g11
(tRp361
g348
S'UNIFORM'
p362
ssS'cache_placement'
p363
g11
(tRp364
S'network_cache'
p365
F0.5
sS'uCache_budget'
p366
F150000
sg348
S'UNIFORM_WITH_UCACHE'
p367
sS'nCache_budget'
p368
F0
ssS'desc'
p369
S'strategy: C_RANDOM, network cache: 0.5'
p370
sS'topology'
p371
g11
(tRp372
S'asn'
p373
I3257
sg348
S'ROCKET_FUEL_WITH_UCACHE'
p374
ssg11
(tRp375
S'OVERHEAD_DISTRIBUTION'
p376
g11
(tRp377
S'CV'
p378
g47
(g49
S'\xf2\xb1\xf9w.5\x97?'
tRp379
ssS'LATENCY'
p380
g11
(tRp381
S'MEAN'
p382
F53.000755555555557
ssS'CACHE_HIT_RATIO'
p383
g11
(tRp384
g382
F0.40762666666666669
ssS'CACHING_EFFICIENCY'
p385
g11
(tRp386
g382
F0.68812460610425863
ssS'CACHE_EVICTION'
p387
g11
(tRp388
g382
g47
(g49
S'g_D\xb5\xce\xde\xa9@'
tRp389
sstp390
atRp391
sb.